
main.elf:     file format elf32-littlearm

Sections:
Idx Name          Size      VMA       LMA       File off  Algn
  0 .text         0000dbc8  00000000  00000000  00008000  2**3
                  CONTENTS, ALLOC, LOAD, READONLY, CODE
  1 .data         00000964  40000000  0000dbc8  00018000  2**2
                  CONTENTS, ALLOC, LOAD, DATA
  2 .bss          00001584  40000964  0000e52c  00018964  2**2
                  ALLOC
  3 .stack        00001980  40001f00  40001f00  00018970  2**4
                  CONTENTS
  4 .comment      0000002c  00000000  00000000  0001a2f0  2**0
                  CONTENTS, READONLY
  5 .ARM.attributes 00000010  00000000  00000000  0001a31c  2**0
                  CONTENTS, READONLY
  6 .debug_aranges 00000570  00000000  00000000  0001a330  2**3
                  CONTENTS, READONLY, DEBUGGING
  7 .debug_pubnames 00001470  00000000  00000000  0001a8a0  2**0
                  CONTENTS, READONLY, DEBUGGING
  8 .debug_info   0000c3c6  00000000  00000000  0001bd10  2**0
                  CONTENTS, READONLY, DEBUGGING
  9 .debug_abbrev 000025c0  00000000  00000000  000280d6  2**0
                  CONTENTS, READONLY, DEBUGGING
 10 .debug_line   00008420  00000000  00000000  0002a696  2**0
                  CONTENTS, READONLY, DEBUGGING
 11 .debug_frame  0000148c  00000000  00000000  00032ab8  2**2
                  CONTENTS, READONLY, DEBUGGING
 12 .debug_str    000003d2  00000000  00000000  00033f44  2**0
                  CONTENTS, READONLY, DEBUGGING
 13 .debug_loc    00003dbd  00000000  00000000  00034316  2**0
                  CONTENTS, READONLY, DEBUGGING
 14 .debug_ranges 000001f0  00000000  00000000  000380d8  2**3
                  CONTENTS, READONLY, DEBUGGING

Disassembly of section .text:

00000000 <__Vectors>:

// Exception Vectors
// Mapped to Address 0.
// Absolute addressing mode must be used.

    __Vectors:        LDR     PC,Reset_Addr
       0:	e59ff018 	ldr	pc, [pc, #24]	; 20 <Reset_Addr>
    LDR     PC,Undef_Addr
       4:	e59ff018 	ldr	pc, [pc, #24]	; 24 <Undef_Addr>
    LDR     PC,SWI_Addr
       8:	e59ff018 	ldr	pc, [pc, #24]	; 28 <SWI_Addr>
    LDR     PC,PAbt_Addr
       c:	e59ff018 	ldr	pc, [pc, #24]	; 2c <PAbt_Addr>
    LDR     PC,DAbt_Addr
      10:	e59ff018 	ldr	pc, [pc, #24]	; 30 <DAbt_Addr>
    NOP                            /* Reserved Vector */
      14:	e1a00000 	nop			; (mov r0, r0)
//                LDR     PC,IRQ_Addr
//                LDR     PC,[PC, #-0x0FF0]      /* Vector from VicVectAddr */
    LDR     PC,IRQ_Wrapper_Addr
      18:	e59ff018 	ldr	pc, [pc, #24]	; 38 <IRQ_Wrapper_Addr>
    LDR     PC,FIQ_Addr
      1c:	e59ff018 	ldr	pc, [pc, #24]	; 3c <FIQ_Addr>

00000020 <Reset_Addr>:
      20:	00000168 	.word	0x00000168

00000024 <Undef_Addr>:
      24:	00000040 	.word	0x00000040

00000028 <SWI_Addr>:
      28:	00000098 	.word	0x00000098

0000002c <PAbt_Addr>:
      2c:	00000044 	.word	0x00000044

00000030 <DAbt_Addr>:
      30:	00000048 	.word	0x00000048
      34:	00000000 	.word	0x00000000

00000038 <IRQ_Wrapper_Addr>:
      38:	00000050 	.word	0x00000050

0000003c <FIQ_Addr>:
      3c:	0000004c 	.word	0x0000004c

00000040 <Undef_Handler>:
    .word     0                      /* Reserved Address */
// IRQ_Addr:         .word     __IRQ_Handler
IRQ_Wrapper_Addr: .word    __IRQ_Wrapper
FIQ_Addr:         .word     FIQ_Handler

Undef_Handler:  B       Undef_Handler
      40:	eafffffe 	b	40 <Undef_Handler>

00000044 <PAbt_Handler>:
    /* SWI_Handler:    B       SWI_Handler */
PAbt_Handler:   B       PAbt_Handler
      44:	eafffffe 	b	44 <PAbt_Handler>

00000048 <DAbt_Handler>:
DAbt_Handler:   B       DAbt_Handler
      48:	eafffffe 	b	48 <DAbt_Handler>

0000004c <FIQ_Handler>:
    /* IRQ_Handler:    B       IRQ_Handler */
FIQ_Handler:    B       FIQ_Handler
      4c:	eafffffe 	b	4c <FIQ_Handler>

00000050 <__IRQ_Wrapper>:
                                                                                                                                                   .global __IRQ_Wrapper
                                                                                                                                                   .func   __IRQ_Wrapper
                                                                                                                                               __IRQ_Wrapper:
                                                                                                                                                   /*- Manage Exception Entry  */
                                                                                                                                                   /*- Adjust and save LR_irq in IRQ stack  */
                                                                                                                                                   sub         lr, lr, #4
      50:	e24ee004 	sub	lr, lr, #4
                                                                                                                                                   stmfd       sp!, {lr}
      54:	e92d4000 	push	{lr}

                                                                                                                                                   /*- Save SPSR need to be saved for nested interrupt */
                                                                                                                                                   mrs         r14, SPSR
      58:	e14fe000 	mrs	lr, SPSR
                                                                                                                                                   stmfd       sp!, {r14}
      5c:	e92d4000 	push	{lr}

                                                                                                                                                   /*- Save and r0 in IRQ stack  */
                                                                                                                                                   stmfd       sp!, {r0}
      60:	e92d0001 	push	{r0}

                                                                                                                                                   /*- Write in the IVR to support Protect Mode  */
                                                                                                                                                   /*- No effect in Normal Mode  */
                                                                                                                                                   /*- De-assert the NIRQ and clear the source in Protect Mode */
                                                                                                                                                   /* R14 = LR */
                                                                                                                                                   ldr         r14, =VIC_base_addr
      64:	e59fe028 	ldr	lr, [pc, #40]	; 94 <ABT_Stack_Size+0x14>
                                                                                                                                                           ldr         r0 , [r14, #VIC_vect_offs]
      68:	e59e0030 	ldr	r0, [lr, #48]	; 0x30
                                                                                                                                                           /*str         r14, [r14, #VIC_vect_offs]*/

                                                                                                                                                           /*- Enable Interrupt and Switch in Supervisor Mode */
                                                                                                                                                           msr         CPSR_c, #I_Bit | Mode_SVC
      6c:	e321f093 	msr	CPSR_c, #147	; 0x93

                                                                                                                                                           /*- Save scratch/used registers and LR in User Stack */
                                                                                                                                                           /*stmfd       sp!, { r1-r3, r12, r14}*/
                                                                                                                                                           stmfd       sp!, { r1-r12, r14 }
      70:	e92d5ffe 	push	{r1, r2, r3, r4, r5, r6, r7, r8, r9, sl, fp, ip, lr}

                                                                                                                                                           /*- Branch to the routine pointed by the VIC-Vector-Address  */
                                                                                                                                                           mov         r14, pc
      74:	e1a0e00f 	mov	lr, pc
                                                                                                                                                           bx          r0
      78:	e12fff10 	bx	r0
                                                                                                                                                           /*- Restore scratch/used registers and LR from User Stack*/
                                                                                                                                                           /* ldmia       sp!, { r1-r3, r12, r14} */
                                                                                                                                                           ldmia       sp!, { r1-r12, r14 }
      7c:	e8bd5ffe 	pop	{r1, r2, r3, r4, r5, r6, r7, r8, r9, sl, fp, ip, lr}

                                                                                                                                                           /*- Disable Interrupt and switch back in IRQ mode */
                                                                                                                                                           msr         CPSR_c, #I_Bit | Mode_IRQ
      80:	e321f092 	msr	CPSR_c, #146	; 0x92
                                                                                                                                                           ldr         r14, =VIC_base_addr
                                                                                                                                                                   str         r14, [r14, #VIC_vect_offs]
#endif

                                                                                                                                                                   /*- Restore SPSR_irq and r0 from IRQ stack */
                                                                                                                                                                   ldmia       sp!, {r0}
      84:	e8bd0001 	pop	{r0}

                                                                                                                                                                   /*- Restore SPSR_irq and r0 from IRQ stack */
                                                                                                                                                                   ldmia       sp!, {r14}
      88:	e8bd4000 	pop	{lr}
                                                                                                                                                                   msr         SPSR_cxsf, r14
      8c:	e16ff00e 	msr	SPSR_fsxc, lr

                                                                                                                                                                   /*- Restore adjusted  LR_irq from IRQ stack directly in the PC */
                                                                                                                                                                   ldmia       sp!, {pc}^
      90:	e8fd8000 	ldm	sp!, {pc}^

                                                                                                                                                   /*- Write in the IVR to support Protect Mode  */
                                                                                                                                                   /*- No effect in Normal Mode  */
                                                                                                                                                   /*- De-assert the NIRQ and clear the source in Protect Mode */
                                                                                                                                                   /* R14 = LR */
                                                                                                                                                   ldr         r14, =VIC_base_addr
      94:	fffff000 	.word	0xfffff000

00000098 <SoftwareInterrupt>:

.global SoftwareInterrupt
.func   SoftwareInterrupt
SoftwareInterrupt:
SWI_HandlerMT:
STMFD   sp!, {r4, lr}      /* store regs. */
      98:	e92d4010 	push	{r4, lr}
MRS     r4, spsr
      9c:	e14f4000 	mrs	r4, SPSR
TST     r4, #T_Bit             /* test for thumb */
      a0:	e3140020 	tst	r4, #32
LDRNEH  r4, [lr, #-2]          /* NE->thumb - get swi instruction code */
      a4:	115e40b2 	ldrhne	r4, [lr, #-2]
BICNE   r4, r4, #0xff00        /* NE->thumb - clear top 8 bits leaving swi "comment field"=number */
      a8:	13c44cff 	bicne	r4, r4, #65280	; 0xff00
LDREQ   r4, [lr, #-4]          /* EQ->arm - get swi instruction code */
      ac:	051e4004 	ldreq	r4, [lr, #-4]
BICEQ   r4, r4, #0xff000000    /* EQ->arm - clear top 8 bits leaving swi "comment field"=number */
      b0:	03c444ff 	biceq	r4, r4, #-16777216	; 0xff000000
CMP     r4, #MAX_SWI           /* range-check */
      b4:	e3540006 	cmp	r4, #6
LDRLS   pc, [pc, r4, LSL #2]   /* jump to routine if <= MAX (LS) */
      b8:	979ff104 	ldrls	pc, [pc, r4, lsl #2]

000000bc <SWIOutOfRange>:
SWIOutOfRange:
B       SWIOutOfRange
      bc:	eafffffe 	b	bc <SWIOutOfRange>

000000c0 <SwiTableStart>:
      c0:	000000dc 	.word	0x000000dc
      c4:	000000ec 	.word	0x000000ec
      c8:	000000fc 	.word	0x000000fc
      cc:	00000110 	.word	0x00000110
      d0:	00000124 	.word	0x00000124
      d4:	0000012c 	.word	0x0000012c
      d8:	00000148 	.word	0x00000148

000000dc <IRQDisable>:
.word FIQRestore	// 6
SwiTableEnd:
.set MAX_SWI, ((SwiTableEnd-SwiTableStart)/4)-1

IRQDisable:
MRS     r0, SPSR                        /* Get SPSR = return value */
      dc:	e14f0000 	mrs	r0, SPSR
ORR     r4, r0, #I_Bit                  /* I_Bit set */
      e0:	e3804080 	orr	r4, r0, #128	; 0x80
MSR     SPSR_c, r4                      /* Set SPSR */
      e4:	e161f004 	msr	SPSR_c, r4
B       EndofSWI
      e8:	ea00001d 	b	164 <EndofSWI>

000000ec <IRQEnable>:

IRQEnable:
MRS     r0, SPSR                        /* Get SPSR = return value */
      ec:	e14f0000 	mrs	r0, SPSR
BIC     r4, r0, #I_Bit                  /* I_Bit clear */
      f0:	e3c04080 	bic	r4, r0, #128	; 0x80
MSR     SPSR_c, r4                      /* Set SPSR */
      f4:	e161f004 	msr	SPSR_c, r4
B       EndofSWI
      f8:	ea000019 	b	164 <EndofSWI>

000000fc <FIQDisable>:

FIQDisable:
MRS     r0, SPSR
      fc:	e14f0000 	mrs	r0, SPSR
ORR     r4, r0, #F_Bit
     100:	e3804040 	orr	r4, r0, #64	; 0x40
AND     r0, r0, #F_Bit
     104:	e2000040 	and	r0, r0, #64	; 0x40
MSR     SPSR_c, r4
     108:	e161f004 	msr	SPSR_c, r4
B       EndofSWI
     10c:	ea000014 	b	164 <EndofSWI>

00000110 <FIQEnable>:

FIQEnable:
MRS     r0, SPSR
     110:	e14f0000 	mrs	r0, SPSR
BIC     r4, r0, #F_Bit
     114:	e3c04040 	bic	r4, r0, #64	; 0x40
AND     r0, r0, #F_Bit
     118:	e2000040 	and	r0, r0, #64	; 0x40
MSR     SPSR_c, r4
     11c:	e161f004 	msr	SPSR_c, r4
B       EndofSWI
     120:	ea00000f 	b	164 <EndofSWI>

00000124 <CPSRget>:

CPSRget:
// LDR r0, =0xdeadbeef
MRS     r0, SPSR                        /* Get SPSR */
     124:	e14f0000 	mrs	r0, SPSR
B       EndofSWI
     128:	ea00000d 	b	164 <EndofSWI>

0000012c <IRQRestore>:

IRQRestore:
MRS     r4, SPSR                        /* Get SPSR */
     12c:	e14f4000 	mrs	r4, SPSR
AND     r0, r0, #I_Bit
     130:	e2000080 	and	r0, r0, #128	; 0x80
TST     r0, #I_Bit             /* Test input for I_Bit */
     134:	e3100080 	tst	r0, #128	; 0x80
BICEQ   r4, r4, #I_Bit
     138:	03c44080 	biceq	r4, r4, #128	; 0x80
ORRNE   r4, r4, #I_Bit
     13c:	13844080 	orrne	r4, r4, #128	; 0x80
MSR     SPSR_c, r4
     140:	e161f004 	msr	SPSR_c, r4
B       EndofSWI
     144:	ea000006 	b	164 <EndofSWI>

00000148 <FIQRestore>:

FIQRestore:
MRS     r4, SPSR                        /* Get SPSR */
     148:	e14f4000 	mrs	r4, SPSR
AND     r0, r0, #F_Bit
     14c:	e2000040 	and	r0, r0, #64	; 0x40
TST     r0, #F_Bit             /* Test input for F_Bit */
     150:	e3100040 	tst	r0, #64	; 0x40
BICEQ   r4, r4, #F_Bit
     154:	03c44040 	biceq	r4, r4, #64	; 0x40
ORRNE   r4, r4, #F_Bit
     158:	13844040 	orrne	r4, r4, #64	; 0x40
MSR     SPSR_c, r4
     15c:	e161f004 	msr	SPSR_c, r4
B       EndofSWI
     160:	eaffffff 	b	164 <EndofSWI>

00000164 <EndofSWI>:

EndofSWI:
LDMFD   sp!, {r4,pc}^
     164:	e8fd8010 	ldm	sp!, {r4, pc}^

00000168 <__startup>:
__startup:

Reset_Handler:

    .if (VPBDIV_SETUP)
    LDR     R0, =VPBDIV
     168:	e59f0128 	ldr	r0, [pc, #296]	; 298 <__exit_THUMB+0x4>
                 LDR     R1, =VPBDIV_Val
     16c:	e3a01000 	mov	r1, #0
                              STR     R1, [R0]
     170:	e5801000 	str	r1, [r0]
                              .endif


                              .if (PLL_SETUP)
                              LDR     R0, =PLL_BASE
     174:	e59f0120 	ldr	r0, [pc, #288]	; 29c <__exit_THUMB+0x8>
                                           MOV     R1, #0xAA
     178:	e3a010aa 	mov	r1, #170	; 0xaa
                                           MOV     R2, #0x55
     17c:	e3a02055 	mov	r2, #85	; 0x55

// Configure and Enable PLL
                                           MOV     R3, #PLLCFG_Val
     180:	e3a03024 	mov	r3, #36	; 0x24
                                           STR     R3, [R0, #PLLCFG_OFS]
     184:	e5803004 	str	r3, [r0, #4]
                                           MOV     R3, #PLLCON_PLLE
     188:	e3a03001 	mov	r3, #1
                                           STR     R3, [R0, #PLLCON_OFS]
     18c:	e5803000 	str	r3, [r0]
                                           STR     R1, [R0, #PLLFEED_OFS]
     190:	e580100c 	str	r1, [r0, #12]
                                           STR     R2, [R0, #PLLFEED_OFS]
     194:	e580200c 	str	r2, [r0, #12]

00000198 <PLL_Loop>:

// Wait until PLL Locked
                                       PLL_Loop:       LDR     R3, [R0, #PLLSTAT_OFS]
     198:	e5903008 	ldr	r3, [r0, #8]
                                           ANDS    R3, R3, #PLLSTAT_PLOCK
     19c:	e2133b01 	ands	r3, r3, #1024	; 0x400
                                           BEQ     PLL_Loop
     1a0:	0afffffc 	beq	198 <PLL_Loop>

// Switch to PLL Clock
                                           MOV     R3, #(PLLCON_PLLE | PLLCON_PLLC)
     1a4:	e3a03003 	mov	r3, #3
                                           STR     R3, [R0, #PLLCON_OFS]
     1a8:	e5803000 	str	r3, [r0]
                                           STR     R1, [R0, #PLLFEED_OFS]
     1ac:	e580100c 	str	r1, [r0, #12]
                                           STR     R2, [R0, #PLLFEED_OFS]
     1b0:	e580200c 	str	r2, [r0, #12]
                                           .endif


                                           .if (MAM_SETUP)
                                           LDR     R0, =MAM_BASE
     1b4:	e59f00e4 	ldr	r0, [pc, #228]	; 2a0 <__exit_THUMB+0xc>
                                                   MOV     R1, #MAMTIM_Val
     1b8:	e3a01004 	mov	r1, #4
                                                   STR     R1, [R0, #MAMTIM_OFS]
     1bc:	e5801004 	str	r1, [r0, #4]
                                                   MOV     R1, #MAMCR_Val
     1c0:	e3a01002 	mov	r1, #2
                                                   STR     R1, [R0, #MAMCR_OFS]
     1c4:	e5801000 	str	r1, [r0]
                                                           .endif
                                                           STR     R1, [R0]
                                                           .endif

// Setup Stack for each mode
                                                           LDR     R0, =Top_Stack
     1c8:	e59f00d4 	ldr	r0, [pc, #212]	; 2a4 <__exit_THUMB+0x10>

// Enter Undefined Instruction Mode and set its Stack Pointer
                                                                   MSR     CPSR_c, #Mode_UND|I_Bit|F_Bit
     1cc:	e321f0db 	msr	CPSR_c, #219	; 0xdb
                                                                   MOV     SP, R0
     1d0:	e1a0d000 	mov	sp, r0
                                                                   SUB     R0, R0, #UND_Stack_Size
     1d4:	e2400080 	sub	r0, r0, #128	; 0x80

// Enter Abort Mode and set its Stack Pointer
                                                                   MSR     CPSR_c, #Mode_ABT|I_Bit|F_Bit
     1d8:	e321f0d7 	msr	CPSR_c, #215	; 0xd7
                                                                   MOV     SP, R0
     1dc:	e1a0d000 	mov	sp, r0
                                                                   SUB     R0, R0, #ABT_Stack_Size
     1e0:	e2400080 	sub	r0, r0, #128	; 0x80

// Enter FIQ Mode and set its Stack Pointer
                                                                   MSR     CPSR_c, #Mode_FIQ|I_Bit|F_Bit
     1e4:	e321f0d1 	msr	CPSR_c, #209	; 0xd1
                                                                   MOV     SP, R0
     1e8:	e1a0d000 	mov	sp, r0
                                                                   SUB     R0, R0, #FIQ_Stack_Size
     1ec:	e2400080 	sub	r0, r0, #128	; 0x80

// Enter IRQ Mode and set its Stack Pointer
                                                                   MSR     CPSR_c, #Mode_IRQ|I_Bit|F_Bit
     1f0:	e321f0d2 	msr	CPSR_c, #210	; 0xd2
                                                                   MOV     SP, R0
     1f4:	e1a0d000 	mov	sp, r0
                                                                   SUB     R0, R0, #IRQ_Stack_Size
     1f8:	e2400b02 	sub	r0, r0, #2048	; 0x800

// Enter Supervisor Mode and set its Stack Pointer
                                                                   MSR     CPSR_c, #Mode_SVC|I_Bit|F_Bit
     1fc:	e321f0d3 	msr	CPSR_c, #211	; 0xd3
                                                                   MOV     SP, R0
     200:	e1a0d000 	mov	sp, r0
                                                                   SUB     R0, R0, #SVC_Stack_Size
     204:	e2400b02 	sub	r0, r0, #2048	; 0x800

// Enter User Mode and set its Stack Pointer
                                                                   MSR     CPSR_c, #Mode_USR /* Interrupts enabled */
     208:	e321f010 	msr	CPSR_c, #16
//				MSR     CPSR_c, #Mode_USR|I_Bit|F_Bit /* Interrupts disabled */
                                                                   MOV     SP, R0
     20c:	e1a0d000 	mov	sp, r0


                                                                   .if (RAM_MODE==0)
                                                                   /* Relocate .data section (Copy from ROM to RAM) */
                                                                   LDR     R1, =_etext
     210:	e59f1090 	ldr	r1, [pc, #144]	; 2a8 <__exit_THUMB+0x14>
                                                                           LDR     R2, =_data
     214:	e59f2090 	ldr	r2, [pc, #144]	; 2ac <__exit_THUMB+0x18>
                                                                                   LDR     R3, =_edata
     218:	e59f3090 	ldr	r3, [pc, #144]	; 2b0 <__exit_THUMB+0x1c>
                                                                                           CMP     R2, R3
     21c:	e1520003 	cmp	r2, r3
                                                                                           BEQ     DataIsEmpty
     220:	0a000003 	beq	234 <DataIsEmpty>

00000224 <LoopRel>:
                                                                                       LoopRel:        CMP     R2, R3
     224:	e1520003 	cmp	r2, r3
                                                                                           LDRLO   R0, [R1], #4
     228:	34910004 	ldrcc	r0, [r1], #4
                                                                                           STRLO   R0, [R2], #4
     22c:	34820004 	strcc	r0, [r2], #4
                                                                                           BLO     LoopRel
     230:	3afffffb 	bcc	224 <LoopRel>

00000234 <DataIsEmpty>:
                                                                                       DataIsEmpty:
                                                                                           .endif

                                                                                           /* Clear .bss section (Zero init) */
                                                                                           MOV     R0, #0
     234:	e3a00000 	mov	r0, #0
                                                                                           LDR     R1, =__bss_start__
     238:	e59f1074 	ldr	r1, [pc, #116]	; 2b4 <__exit_THUMB+0x20>
                                                                                                   LDR     R2, =__bss_end__
     23c:	e59f2074 	ldr	r2, [pc, #116]	; 2b8 <__exit_THUMB+0x24>
                                                                                                           CMP     R1,R2
     240:	e1510002 	cmp	r1, r2
                                                                                                           BEQ     BSSIsEmpty
     244:	0a000002 	beq	254 <BSSIsEmpty>

00000248 <LoopZI>:
                                                                                                       LoopZI:         CMP     R1, R2
     248:	e1510002 	cmp	r1, r2
                                                                                                           STRLO   R0, [R1], #4
     24c:	34810004 	strcc	r0, [r1], #4
                                                                                                           BLO     LoopZI
     250:	3afffffc 	bcc	248 <LoopZI>

00000254 <BSSIsEmpty>:
                                                                                                       BSSIsEmpty:


// call C++ constructors of global objects
                                                                                                           LDR 	r0, =__ctors_start__
     254:	e59f0060 	ldr	r0, [pc, #96]	; 2bc <__exit_THUMB+0x28>
                                                                                                                   LDR 	r1, =__ctors_end__
     258:	e59f1060 	ldr	r1, [pc, #96]	; 2c0 <__exit_THUMB+0x2c>

0000025c <ctor_loop>:
                                                                                                                       ctor_loop:
                                                                                                                           CMP 	r0, r1
     25c:	e1500001 	cmp	r0, r1
                                                                                                                           BEQ 	ctor_end
     260:	0a000005 	beq	27c <ctor_end>
                                                                                                                           LDR 	r2, [r0], #4
     264:	e4902004 	ldr	r2, [r0], #4
                                                                                                                           STMFD 	sp!, {r0-r1}
     268:	e92d0003 	push	{r0, r1}
                                                                                                                           MOV 	lr, pc
     26c:	e1a0e00f 	mov	lr, pc
                                                                                                                           MOV 	pc, r2
     270:	e1a0f002 	mov	pc, r2
                                                                                                                           LDMFD 	sp!, {r0-r1}
     274:	e8bd0003 	pop	{r0, r1}
                                                                                                                           B 		ctor_loop
     278:	eafffff7 	b	25c <ctor_loop>

0000027c <ctor_end>:
                                                                                                                       ctor_end:

// Enter the C code
                                                                                                                           //LDR     R0,=INIT
                                                                                                                           LDR     R0,=main
     27c:	e59f0040 	ldr	r0, [pc, #64]	; 2c4 <__exit_THUMB+0x30>
                                                                                                                                   TST     R0,#1             // Bit-0 set: main is Thumb
     280:	e3100001 	tst	r0, #1
                                                                                                                                   LDREQ   LR,=__exit_ARM    // ARM Mode
     284:	059fe03c 	ldreq	lr, [pc, #60]	; 2c8 <__exit_THUMB+0x34>
                                                                                                                                           LDRNE   LR,=__exit_THUMB  // Thumb Mode
     288:	159fe03c 	ldrne	lr, [pc, #60]	; 2cc <__exit_THUMB+0x38>
                                                                                                                                                   BX      R0
     28c:	e12fff10 	bx	r0

00000290 <__exit_ARM>:

                                                                                                                                                   .arm
                                                                                                                                                   .global __exit_ARM
                                                                                                                                                   .func __exit_ARM
                                                                                                                                               __exit_ARM:
                                                                                                                                                   B       __exit_ARM
     290:	eafffffe 	b	290 <__exit_ARM>

00000294 <__exit_THUMB>:

                                                                                                                                                   .thumb
                                                                                                                                                   .global __exit_THUMB
                                                                                                                                                   .func __exit_THUMB
                                                                                                                                               __exit_THUMB:
                                                                                                                                                   B       __exit_THUMB
     294:	e7fe      	b.n	294 <__exit_THUMB>
     296:	0000      	.short	0x0000
__startup:

Reset_Handler:

    .if (VPBDIV_SETUP)
    LDR     R0, =VPBDIV
     298:	e01fc100 	.word	0xe01fc100
                              STR     R1, [R0]
                              .endif


                              .if (PLL_SETUP)
                              LDR     R0, =PLL_BASE
     29c:	e01fc080 	.word	0xe01fc080
                                           STR     R2, [R0, #PLLFEED_OFS]
                                           .endif


                                           .if (MAM_SETUP)
                                           LDR     R0, =MAM_BASE
     2a0:	e01fc000 	.word	0xe01fc000
                                                           .endif
                                                           STR     R1, [R0]
                                                           .endif

// Setup Stack for each mode
                                                           LDR     R0, =Top_Stack
     2a4:	40003880 	.word	0x40003880
                                                                   MOV     SP, R0


                                                                   .if (RAM_MODE==0)
                                                                   /* Relocate .data section (Copy from ROM to RAM) */
                                                                   LDR     R1, =_etext
     2a8:	0000dbc8 	.word	0x0000dbc8
                                                                           LDR     R2, =_data
     2ac:	40000000 	.word	0x40000000
                                                                                   LDR     R3, =_edata
     2b0:	40000964 	.word	0x40000964
                                                                                       DataIsEmpty:
                                                                                           .endif

                                                                                           /* Clear .bss section (Zero init) */
                                                                                           MOV     R0, #0
                                                                                           LDR     R1, =__bss_start__
     2b4:	40000964 	.word	0x40000964
                                                                                                   LDR     R2, =__bss_end__
     2b8:	40001ee8 	.word	0x40001ee8
                                                                                                           BLO     LoopZI
                                                                                                       BSSIsEmpty:


// call C++ constructors of global objects
                                                                                                           LDR 	r0, =__ctors_start__
     2bc:	0000dbc8 	.word	0x0000dbc8
                                                                                                                   LDR 	r1, =__ctors_end__
     2c0:	0000dbc8 	.word	0x0000dbc8
                                                                                                                           B 		ctor_loop
                                                                                                                       ctor_end:

// Enter the C code
                                                                                                                           //LDR     R0,=INIT
                                                                                                                           LDR     R0,=main
     2c4:	00002510 	.word	0x00002510
                                                                                                                                   TST     R0,#1             // Bit-0 set: main is Thumb
                                                                                                                                   LDREQ   LR,=__exit_ARM    // ARM Mode
     2c8:	00000290 	.word	0x00000290
                                                                                                                                           LDRNE   LR,=__exit_THUMB  // Thumb Mode
     2cc:	00000294 	.word	0x00000294

000002d0 <IntRestore>:
.text
.section .text, "ax"
.global IntRestore
.func   IntRestore
IntRestore:
SWI     SWI_IRQ_REST
     2d0:	ef000005 	svc	0x00000005
BX      lr
     2d4:	e12fff1e 	bx	lr

000002d8 <FiqRestore>:
.text
.section .text, "ax"
.global FiqRestore
.func   FiqRestore
FiqRestore:
SWI     SWI_FIQ_REST
     2d8:	ef000006 	svc	0x00000006
BX      lr
     2dc:	e12fff1e 	bx	lr

000002e0 <IntGetCPSR>:
.text
.section .text, "ax"
.global IntGetCPSR
.func   IntGetCPSR
IntGetCPSR:
SWI     SWI_GET_CPSR
     2e0:	ef000004 	svc	0x00000004
BX      lr
     2e4:	e12fff1e 	bx	lr

000002e8 <IntEnable>:
.text
.section .text, "ax"
.global IntEnable
.func   IntEnable
IntEnable:
SWI     SWI_IRQ_EN
     2e8:	ef000001 	svc	0x00000001
BX      lr
     2ec:	e12fff1e 	bx	lr

000002f0 <IntDisable>:
.arm
.global IntDisable
.section .text, "ax"
.func   IntDisable
IntDisable:
SWI     SWI_IRQ_DIS
     2f0:	ef000000 	svc	0x00000000
BX      lr
     2f4:	e12fff1e 	bx	lr

000002f8 <FiqEnable>:
.text
.section .text, "ax"
.global FiqEnable
.func   FiqEnable
FiqEnable:
SWI     SWI_FIQ_EN
     2f8:	ef000003 	svc	0x00000003
BX      lr
     2fc:	e12fff1e 	bx	lr

00000300 <FiqDisable>:
.arm
.global FiqDisable
.section .text, "ax"
.func   FiqDisable
FiqDisable:
SWI     SWI_FIQ_DIS
     300:	ef000002 	svc	0x00000002
BX      lr
     304:	e12fff1e 	bx	lr

00000308 <LL_write_ctrl_data>:
	SPIWRData[0] = '>';
	SPIWRData[1] = '*';

	spi_chksum = 0xAAAA;

	if (!page) {
     308:	e31000ff 	tst	r0, #255	; 0xff
		pageselect = 0;
	}
	return (1);
}

void LL_write_ctrl_data(char page) {
     30c:	e92d4030 	push	{r4, r5, lr}

	//initialize syncbytes
	SPIWRData[0] = '>';
	SPIWRData[1] = '*';

	spi_chksum = 0xAAAA;
     310:	e59fc0f8 	ldr	ip, [pc, #248]	; 410 <PLLSTAT_PLOCK+0x10>
	static volatile short spi_chksum;

	dataptr = (unsigned char *) &LL_1khz_control_input;

	//initialize syncbytes
	SPIWRData[0] = '>';
     314:	e59f50f8 	ldr	r5, [pc, #248]	; 414 <PLLSTAT_PLOCK+0x14>
	SPIWRData[1] = '*';

	spi_chksum = 0xAAAA;
     318:	e3e03c55 	mvn	r3, #21760	; 0x5500

	if (!page) {
		for (i = 2; i < 40; i++) {
     31c:	159f00f4 	ldrne	r0, [pc, #244]	; 418 <PLLSTAT_PLOCK+0x18>

	dataptr = (unsigned char *) &LL_1khz_control_input;

	//initialize syncbytes
	SPIWRData[0] = '>';
	SPIWRData[1] = '*';
     320:	e3a0102a 	mov	r1, #42	; 0x2a

	spi_chksum = 0xAAAA;
     324:	e2433055 	sub	r3, r3, #85	; 0x55
	static volatile short spi_chksum;

	dataptr = (unsigned char *) &LL_1khz_control_input;

	//initialize syncbytes
	SPIWRData[0] = '>';
     328:	e3a0203e 	mov	r2, #62	; 0x3e
	SPIWRData[1] = '*';
     32c:	e5c51001 	strb	r1, [r5, #1]
	static volatile short spi_chksum;

	dataptr = (unsigned char *) &LL_1khz_control_input;

	//initialize syncbytes
	SPIWRData[0] = '>';
     330:	e5c52000 	strb	r2, [r5]
	SPIWRData[1] = '*';

	spi_chksum = 0xAAAA;
     334:	e1cc30b0 	strh	r3, [ip]

	if (!page) {
		for (i = 2; i < 40; i++) {
     338:	11a01005 	movne	r1, r5
     33c:	1280e014 	addne	lr, r0, #20
	SPIWRData[0] = '>';
	SPIWRData[1] = '*';

	spi_chksum = 0xAAAA;

	if (!page) {
     340:	1a000019 	bne	3ac <LL_write_ctrl_data+0xa4>
     344:	e59f00cc 	ldr	r0, [pc, #204]	; 418 <PLLSTAT_PLOCK+0x18>
     348:	e1a01005 	mov	r1, r5
     34c:	e280e026 	add	lr, r0, #38	; 0x26
		for (i = 2; i < 40; i++) {
			SPIWRData[i] = *dataptr++;
     350:	e4d02001 	ldrb	r2, [r0], #1
			spi_chksum += SPIWRData[i];
     354:	e1dc30b0 	ldrh	r3, [ip]
     358:	e0833002 	add	r3, r3, r2
     35c:	e1a03803 	lsl	r3, r3, #16
     360:	e1a03823 	lsr	r3, r3, #16
	SPIWRData[1] = '*';

	spi_chksum = 0xAAAA;

	if (!page) {
		for (i = 2; i < 40; i++) {
     364:	e15e0000 	cmp	lr, r0
			SPIWRData[i] = *dataptr++;
     368:	e5c12002 	strb	r2, [r1, #2]
			spi_chksum += SPIWRData[i];
     36c:	e1cc30b0 	strh	r3, [ip]
     370:	e2811001 	add	r1, r1, #1
	SPIWRData[1] = '*';

	spi_chksum = 0xAAAA;

	if (!page) {
		for (i = 2; i < 40; i++) {
     374:	1afffff5 	bne	350 <LL_write_ctrl_data+0x48>
			SPIWRData[i] = *dataptr++;
			spi_chksum += SPIWRData[i];
		}
	}

	SPIWRData[40] = spi_chksum; //chksum LSB
     378:	e1dc00b0 	ldrh	r0, [ip]
	SPIWRData[41] = (spi_chksum >> 8); //chksum MSB
     37c:	e1dc30b0 	ldrh	r3, [ip]
     380:	e1a03423 	lsr	r3, r3, #8
     384:	e5c53029 	strb	r3, [r5, #41]	; 0x29

	SPIWR_num_bytes = 42;
     388:	e59f308c 	ldr	r3, [pc, #140]	; 41c <PLLSTAT_PLOCK+0x1c>
     38c:	e3a0202a 	mov	r2, #42	; 0x2a
     390:	e5832000 	str	r2, [r3]
	data_sent_to_LL = 0;
     394:	e59f3084 	ldr	r3, [pc, #132]	; 420 <PLLSTAT_PLOCK+0x20>
     398:	e3a01000 	mov	r1, #0
     39c:	e5c31000 	strb	r1, [r3]
			SPIWRData[i] = *dataptr++;
			spi_chksum += SPIWRData[i];
		}
	}

	SPIWRData[40] = spi_chksum; //chksum LSB
     3a0:	e5c50028 	strb	r0, [r5, #40]	; 0x28
	SPIWRData[41] = (spi_chksum >> 8); //chksum MSB

	SPIWR_num_bytes = 42;
	data_sent_to_LL = 0;
}
     3a4:	e8bd4030 	pop	{r4, r5, lr}
     3a8:	e12fff1e 	bx	lr
			SPIWRData[i] = *dataptr++;
			spi_chksum += SPIWRData[i];
		}
	} else {
		for (i = 2; i < 22; i++) {
			SPIWRData[i] = *dataptr++;
     3ac:	e4d02001 	ldrb	r2, [r0], #1
			spi_chksum += SPIWRData[i];
     3b0:	e1dc30b0 	ldrh	r3, [ip]
     3b4:	e0833002 	add	r3, r3, r2
     3b8:	e1a03803 	lsl	r3, r3, #16
     3bc:	e1a03823 	lsr	r3, r3, #16
		for (i = 2; i < 40; i++) {
			SPIWRData[i] = *dataptr++;
			spi_chksum += SPIWRData[i];
		}
	} else {
		for (i = 2; i < 22; i++) {
     3c0:	e150000e 	cmp	r0, lr
			SPIWRData[i] = *dataptr++;
     3c4:	e5c12002 	strb	r2, [r1, #2]
			spi_chksum += SPIWRData[i];
     3c8:	e1cc30b0 	strh	r3, [ip]
     3cc:	e2811001 	add	r1, r1, #1
		for (i = 2; i < 40; i++) {
			SPIWRData[i] = *dataptr++;
			spi_chksum += SPIWRData[i];
		}
	} else {
		for (i = 2; i < 22; i++) {
     3d0:	1afffff5 	bne	3ac <LL_write_ctrl_data+0xa4>
     3d4:	e59fe038 	ldr	lr, [pc, #56]	; 414 <PLLSTAT_PLOCK+0x14>
     3d8:	e2804025 	add	r4, r0, #37	; 0x25
     3dc:	e2801013 	add	r1, r0, #19
			SPIWRData[i] = *dataptr++;
			spi_chksum += SPIWRData[i];
		}
		dataptr += 18;
		for (i = 22; i < 40; i++) {
			SPIWRData[i] = *dataptr++;
     3e0:	e5512001 	ldrb	r2, [r1, #-1]
			spi_chksum += SPIWRData[i];
     3e4:	e1dc30b0 	ldrh	r3, [ip]
     3e8:	e0833002 	add	r3, r3, r2
     3ec:	e1a03803 	lsl	r3, r3, #16
     3f0:	e2811001 	add	r1, r1, #1
     3f4:	e1a03823 	lsr	r3, r3, #16
		for (i = 2; i < 22; i++) {
			SPIWRData[i] = *dataptr++;
			spi_chksum += SPIWRData[i];
		}
		dataptr += 18;
		for (i = 22; i < 40; i++) {
     3f8:	e1510004 	cmp	r1, r4
			SPIWRData[i] = *dataptr++;
     3fc:	e5ce2016 	strb	r2, [lr, #22]
			spi_chksum += SPIWRData[i];
     400:	e1cc30b0 	strh	r3, [ip]
     404:	e28ee001 	add	lr, lr, #1
		for (i = 2; i < 22; i++) {
			SPIWRData[i] = *dataptr++;
			spi_chksum += SPIWRData[i];
		}
		dataptr += 18;
		for (i = 22; i < 40; i++) {
     408:	1afffff4 	bne	3e0 <LL_write_ctrl_data+0xd8>
     40c:	eaffffd9 	b	378 <LL_write_ctrl_data+0x70>
     410:	40000976 	.word	0x40000976
     414:	40001c68 	.word	0x40001c68
     418:	40001760 	.word	0x40001760
     41c:	40001c60 	.word	0x40001c60
     420:	4000000e 	.word	0x4000000e

00000424 <HL2LL_write_cycle>:
		}
	}
}

int HL2LL_write_cycle(void) //write data to low-level processor
{
     424:	e92d4ff0 	push	{r4, r5, r6, r7, r8, r9, sl, fp, lr}
	unsigned char i;
	static unsigned char jetiValuePartialSyncPending = 0;
	static unsigned char * transmitPtr;
	static unsigned short transmitCnt = 0;

	if (!data_sent_to_LL)
     428:	e59f38c4 	ldr	r3, [pc, #2244]	; cf4 <IRQ_Stack_Size+0x4f4>
     42c:	e5d30000 	ldrb	r0, [r3]
     430:	e3500000 	cmp	r0, #0
		}
	}
}

int HL2LL_write_cycle(void) //write data to low-level processor
{
     434:	e24dd010 	sub	sp, sp, #16
	unsigned char i;
	static unsigned char jetiValuePartialSyncPending = 0;
	static unsigned char * transmitPtr;
	static unsigned short transmitCnt = 0;

	if (!data_sent_to_LL)
     438:	0a00005c 	beq	5b0 <HL2LL_write_cycle+0x18c>

	//update 1kHz data
	LL_1khz_control_input.system_flags = 0 | pageselect;
	//SSP_ack=0;	//reset ack

	if (gpsDataOkTrigger)
     43c:	e59f38b4 	ldr	r3, [pc, #2228]	; cf8 <IRQ_Stack_Size+0x4f8>

	if (!data_sent_to_LL)
		return (0);

	//update 1kHz data
	LL_1khz_control_input.system_flags = 0 | pageselect;
     440:	e59f88b4 	ldr	r8, [pc, #2228]	; cfc <IRQ_Stack_Size+0x4fc>
	//SSP_ack=0;	//reset ack

	if (gpsDataOkTrigger)
     444:	e5932000 	ldr	r2, [r3]

	if (!data_sent_to_LL)
		return (0);

	//update 1kHz data
	LL_1khz_control_input.system_flags = 0 | pageselect;
     448:	e5d89000 	ldrb	r9, [r8]
     44c:	e59fb8ac 	ldr	fp, [pc, #2220]	; d00 <IRQ_Stack_Size+0x500>
	//SSP_ack=0;	//reset ack

	if (gpsDataOkTrigger)
     450:	e3520000 	cmp	r2, #0
		LL_1khz_control_input.system_flags |= SF_GPS_NEW;

	if (WO_SDK.ctrl_enabled)
     454:	e59f28a8 	ldr	r2, [pc, #2216]	; d04 <IRQ_Stack_Size+0x504>
	//update 1kHz data
	LL_1khz_control_input.system_flags = 0 | pageselect;
	//SSP_ack=0;	//reset ack

	if (gpsDataOkTrigger)
		LL_1khz_control_input.system_flags |= SF_GPS_NEW;
     458:	13893008 	orrne	r3, r9, #8

	if (!data_sent_to_LL)
		return (0);

	//update 1kHz data
	LL_1khz_control_input.system_flags = 0 | pageselect;
     45c:	e1cb90b0 	strh	r9, [fp]
	//SSP_ack=0;	//reset ack

	if (gpsDataOkTrigger)
		LL_1khz_control_input.system_flags |= SF_GPS_NEW;
     460:	11cb30b0 	strhne	r3, [fp]

	if (WO_SDK.ctrl_enabled)
     464:	e5d23001 	ldrb	r3, [r2, #1]
     468:	e3530000 	cmp	r3, #0
		LL_1khz_control_input.system_flags |= SF_HL_CONTROL_ENABLED
     46c:	11db30b0 	ldrhne	r3, [fp]
				| SF_NEW_SDK;
	else
		LL_1khz_control_input.system_flags &= ~(SF_HL_CONTROL_ENABLED
     470:	01db30b0 	ldrheq	r3, [fp]

	if (gpsDataOkTrigger)
		LL_1khz_control_input.system_flags |= SF_GPS_NEW;

	if (WO_SDK.ctrl_enabled)
		LL_1khz_control_input.system_flags |= SF_HL_CONTROL_ENABLED
     474:	13833143 	orrne	r3, r3, #-1073741808	; 0xc0000010
				| SF_NEW_SDK;
	else
		LL_1khz_control_input.system_flags &= ~(SF_HL_CONTROL_ENABLED
     478:	03c33010 	biceq	r3, r3, #16

	if (gpsDataOkTrigger)
		LL_1khz_control_input.system_flags |= SF_GPS_NEW;

	if (WO_SDK.ctrl_enabled)
		LL_1khz_control_input.system_flags |= SF_HL_CONTROL_ENABLED
     47c:	138335ff 	orrne	r3, r3, #1069547520	; 0x3fc00000
				| SF_NEW_SDK;
	else
		LL_1khz_control_input.system_flags &= ~(SF_HL_CONTROL_ENABLED
     480:	01a03883 	lsleq	r3, r3, #17

	if (gpsDataOkTrigger)
		LL_1khz_control_input.system_flags |= SF_GPS_NEW;

	if (WO_SDK.ctrl_enabled)
		LL_1khz_control_input.system_flags |= SF_HL_CONTROL_ENABLED
     484:	138339fe 	orrne	r3, r3, #4161536	; 0x3f8000
				| SF_NEW_SDK;
	else
		LL_1khz_control_input.system_flags &= ~(SF_HL_CONTROL_ENABLED
     488:	01a038a3 	lsreq	r3, r3, #17

	if (gpsDataOkTrigger)
		LL_1khz_control_input.system_flags |= SF_GPS_NEW;

	if (WO_SDK.ctrl_enabled)
		LL_1khz_control_input.system_flags |= SF_HL_CONTROL_ENABLED
     48c:	11cb30b0 	strhne	r3, [fp]
				| SF_NEW_SDK;
	else
		LL_1khz_control_input.system_flags &= ~(SF_HL_CONTROL_ENABLED
     490:	01cb30b0 	strheq	r3, [fp]
				| SF_NEW_SDK);

	if (WO_SDK.disable_motor_onoff_by_stick)
     494:	e5d23002 	ldrb	r3, [r2, #2]
     498:	e3530000 	cmp	r3, #0
		LL_1khz_control_input.system_flags
     49c:	11db30b0 	ldrhne	r3, [fp]
				|= SF_SDK_DISABLE_MOTORONOFF_BY_STICK;
	else
		LL_1khz_control_input.system_flags
     4a0:	01db30b0 	ldrheq	r3, [fp]
	else
		LL_1khz_control_input.system_flags &= ~(SF_HL_CONTROL_ENABLED
				| SF_NEW_SDK);

	if (WO_SDK.disable_motor_onoff_by_stick)
		LL_1khz_control_input.system_flags
     4a4:	13833c01 	orrne	r3, r3, #256	; 0x100
				|= SF_SDK_DISABLE_MOTORONOFF_BY_STICK;
	else
		LL_1khz_control_input.system_flags
     4a8:	03c33c01 	biceq	r3, r3, #256	; 0x100
	else
		LL_1khz_control_input.system_flags &= ~(SF_HL_CONTROL_ENABLED
				| SF_NEW_SDK);

	if (WO_SDK.disable_motor_onoff_by_stick)
		LL_1khz_control_input.system_flags
     4ac:	11cb30b0 	strhne	r3, [fp]
				|= SF_SDK_DISABLE_MOTORONOFF_BY_STICK;
	else
		LL_1khz_control_input.system_flags
     4b0:	01cb30b0 	strheq	r3, [fp]
				&= ~SF_SDK_DISABLE_MOTORONOFF_BY_STICK;

	if (WO_SDK.ctrl_mode == 0x00) //direct individual motor control
     4b4:	e5d23000 	ldrb	r3, [r2]
     4b8:	e3530000 	cmp	r3, #0
     4bc:	0a00003e 	beq	5bc <HL2LL_write_cycle+0x198>
		for (i = 0; i < 8; i++) {
			LL_1khz_control_input.direct_motor_control[i]
					= WO_Direct_Individual_Motor_Control.motor[i];
		LL_1khz_control_input.ctrl_flags=WO_Direct_Individual_Motor_Control.motorReverseMask<<8;
		}
	} else if (WO_SDK.ctrl_mode == 0x01) //direct motor control with standard output mapping
     4c0:	e3530001 	cmp	r3, #1
     4c4:	0a00008e 	beq	704 <HL2LL_write_cycle+0x2e0>
				= WO_Direct_Motor_Control.roll;
		LL_1khz_control_input.direct_motor_control[2]
				= WO_Direct_Motor_Control.yaw;
		LL_1khz_control_input.direct_motor_control[3]
				= WO_Direct_Motor_Control.thrust;
	} else if (WO_SDK.ctrl_mode == 0x02) //attitude control
     4c8:	e3530002 	cmp	r3, #2
     4cc:	0a000075 	beq	6a8 <HL2LL_write_cycle+0x284>
		LL_1khz_control_input.ctrl_flags = WO_CTRL_Input.ctrl;
		LL_1khz_control_input.pitch = WO_CTRL_Input.pitch;
		LL_1khz_control_input.roll = WO_CTRL_Input.roll;
		LL_1khz_control_input.yaw = WO_CTRL_Input.yaw;
		LL_1khz_control_input.thrust = WO_CTRL_Input.thrust;
	} else if (WO_SDK.ctrl_mode == 0x03) //gps waypoint control
     4d0:	e3530003 	cmp	r3, #3
     4d4:	0a00013b 	beq	9c8 <IRQ_Stack_Size+0x1c8>
			}
		} else {
			LL_1khz_control_input.ctrl_flags &= 0x00FF;
		}
	} else
		LL_1khz_control_input.system_flags &= ~(SF_DIRECT_MOTOR_CONTROL
     4d8:	e1db30b0 	ldrh	r3, [fp]
				| SF_DIRECT_MOTOR_CONTROL_INDIVIDUAL | SF_WAYPOINT_MODE);

	if (pageselect == 0) {
     4dc:	e3590000 	cmp	r9, #0
			}
		} else {
			LL_1khz_control_input.ctrl_flags &= 0x00FF;
		}
	} else
		LL_1khz_control_input.system_flags &= ~(SF_DIRECT_MOTOR_CONTROL
     4e0:	e3c330e0 	bic	r3, r3, #224	; 0xe0
     4e4:	e1cb30b0 	strh	r3, [fp]
				| SF_DIRECT_MOTOR_CONTROL_INDIVIDUAL | SF_WAYPOINT_MODE);

	if (pageselect == 0) {
     4e8:	0a000044 	beq	600 <HL2LL_write_cycle+0x1dc>
		LL_1khz_control_input.vert_accuracy = GPS_Data.vertical_accuracy;
		LL_1khz_control_input.speed_accuracy = GPS_Data.speed_accuracy;
		LL_1khz_control_input.numSV = GPS_Data.numSV;
		LL_1khz_control_input.battery_voltage_1 = HL_Status.battery_voltage_1;
		LL_1khz_control_input.battery_voltage_2 = HL_Status.battery_voltage_2;
		if (declinationAvailable == 1) {
     4ec:	e59f1814 	ldr	r1, [pc, #2068]	; d08 <IRQ_Stack_Size+0x508>
     4f0:	e5d13000 	ldrb	r3, [r1]
     4f4:	e20300ff 	and	r0, r3, #255	; 0xff
		//fill struct with 500Hz data
		LL_1khz_control_input.hor_accuracy = GPS_Data.horizontal_accuracy;
		LL_1khz_control_input.vert_accuracy = GPS_Data.vertical_accuracy;
		LL_1khz_control_input.speed_accuracy = GPS_Data.speed_accuracy;
		LL_1khz_control_input.numSV = GPS_Data.numSV;
		LL_1khz_control_input.battery_voltage_1 = HL_Status.battery_voltage_1;
     4f8:	e59f380c 	ldr	r3, [pc, #2060]	; d0c <IRQ_Stack_Size+0x50c>
		//set pageselect to other page for next cycle
		pageselect = 1;
	} else //pageselect=1
	{
		//fill struct with 500Hz data
		LL_1khz_control_input.hor_accuracy = GPS_Data.horizontal_accuracy;
     4fc:	e59f280c 	ldr	r2, [pc, #2060]	; d10 <IRQ_Stack_Size+0x510>
		LL_1khz_control_input.vert_accuracy = GPS_Data.vertical_accuracy;
		LL_1khz_control_input.speed_accuracy = GPS_Data.speed_accuracy;
		LL_1khz_control_input.numSV = GPS_Data.numSV;
		LL_1khz_control_input.battery_voltage_1 = HL_Status.battery_voltage_1;
		LL_1khz_control_input.battery_voltage_2 = HL_Status.battery_voltage_2;
     500:	e1d3c0b2 	ldrh	ip, [r3, #2]
     504:	e1cbc3b2 	strh	ip, [fp, #50]	; 0x32
	{
		//fill struct with 500Hz data
		LL_1khz_control_input.hor_accuracy = GPS_Data.horizontal_accuracy;
		LL_1khz_control_input.vert_accuracy = GPS_Data.vertical_accuracy;
		LL_1khz_control_input.speed_accuracy = GPS_Data.speed_accuracy;
		LL_1khz_control_input.numSV = GPS_Data.numSV;
     508:	e1d2c2b4 	ldrh	ip, [r2, #36]	; 0x24
     50c:	e1cbc2bc 	strh	ip, [fp, #44]	; 0x2c
		//set pageselect to other page for next cycle
		pageselect = 1;
	} else //pageselect=1
	{
		//fill struct with 500Hz data
		LL_1khz_control_input.hor_accuracy = GPS_Data.horizontal_accuracy;
     510:	e1d2c1b8 	ldrh	ip, [r2, #24]
		LL_1khz_control_input.vert_accuracy = GPS_Data.vertical_accuracy;
		LL_1khz_control_input.speed_accuracy = GPS_Data.speed_accuracy;
		LL_1khz_control_input.numSV = GPS_Data.numSV;
		LL_1khz_control_input.battery_voltage_1 = HL_Status.battery_voltage_1;
     514:	e1d330b0 	ldrh	r3, [r3]
		//set pageselect to other page for next cycle
		pageselect = 1;
	} else //pageselect=1
	{
		//fill struct with 500Hz data
		LL_1khz_control_input.hor_accuracy = GPS_Data.horizontal_accuracy;
     518:	e1cbc2b6 	strh	ip, [fp, #38]	; 0x26
		LL_1khz_control_input.vert_accuracy = GPS_Data.vertical_accuracy;
     51c:	e1d2c1bc 	ldrh	ip, [r2, #28]
		LL_1khz_control_input.speed_accuracy = GPS_Data.speed_accuracy;
     520:	e1d222b0 	ldrh	r2, [r2, #32]
		LL_1khz_control_input.numSV = GPS_Data.numSV;
		LL_1khz_control_input.battery_voltage_1 = HL_Status.battery_voltage_1;
		LL_1khz_control_input.battery_voltage_2 = HL_Status.battery_voltage_2;
		if (declinationAvailable == 1) {
     524:	e3500001 	cmp	r0, #1
		pageselect = 1;
	} else //pageselect=1
	{
		//fill struct with 500Hz data
		LL_1khz_control_input.hor_accuracy = GPS_Data.horizontal_accuracy;
		LL_1khz_control_input.vert_accuracy = GPS_Data.vertical_accuracy;
     528:	e1cbc2b8 	strh	ip, [fp, #40]	; 0x28
		LL_1khz_control_input.speed_accuracy = GPS_Data.speed_accuracy;
     52c:	e1cb22ba 	strh	r2, [fp, #42]	; 0x2a
		LL_1khz_control_input.numSV = GPS_Data.numSV;
		LL_1khz_control_input.battery_voltage_1 = HL_Status.battery_voltage_1;
     530:	e1cb33b0 	strh	r3, [fp, #48]	; 0x30
		//set pageselect to other page for next cycle
		pageselect = 1;
	} else //pageselect=1
	{
		//fill struct with 500Hz data
		LL_1khz_control_input.hor_accuracy = GPS_Data.horizontal_accuracy;
     534:	e59fe7c4 	ldr	lr, [pc, #1988]	; d00 <IRQ_Stack_Size+0x500>
		LL_1khz_control_input.vert_accuracy = GPS_Data.vertical_accuracy;
		LL_1khz_control_input.speed_accuracy = GPS_Data.speed_accuracy;
		LL_1khz_control_input.numSV = GPS_Data.numSV;
		LL_1khz_control_input.battery_voltage_1 = HL_Status.battery_voltage_1;
		LL_1khz_control_input.battery_voltage_2 = HL_Status.battery_voltage_2;
		if (declinationAvailable == 1) {
     538:	0a00007e 	beq	738 <HL2LL_write_cycle+0x314>
			declinationAvailable = 2;
			LL_1khz_control_input.slowDataChannelSelect = SDC_DECLINATION;
			LL_1khz_control_input.slowDataChannelDataShort
					= estimatedDeclination;

		} else if (declinationAvailable == 2) {
     53c:	e5d13000 	ldrb	r3, [r1]
     540:	e3530002 	cmp	r3, #2
     544:	0a000066 	beq	6e4 <HL2LL_write_cycle+0x2c0>
			declinationAvailable = 3;
			LL_1khz_control_input.slowDataChannelSelect = SDC_INCLINATION;
			LL_1khz_control_input.slowDataChannelDataShort
					= estimatedInclination;

		} else if (transmitBuildInfoTrigger == 1) {
     548:	e59f47c4 	ldr	r4, [pc, #1988]	; d14 <IRQ_Stack_Size+0x514>
     54c:	e5d43000 	ldrb	r3, [r4]
     550:	e20300ff 	and	r0, r3, #255	; 0xff
     554:	e3500001 	cmp	r0, #1
     558:	0a00012f 	beq	a1c <IRQ_Stack_Size+0x21c>
			LL_1khz_control_input.slowDataChannelDataShort = transmitCnt;
			LL_1khz_control_input.slowDataChannelDataChar = *transmitPtr;
			transmitPtr++;
			transmitCnt++;

		} else if (transmitBuildInfoTrigger == 2) {
     55c:	e5d43000 	ldrb	r3, [r4]
     560:	e3530002 	cmp	r3, #2
     564:	0a00013a 	beq	a54 <IRQ_Stack_Size+0x254>
			transmitPtr++;
			transmitCnt++;

			if (transmitCnt == sizeof(buildInfo))
				transmitBuildInfoTrigger = 3;
		} else if (emergencyModeUpdate) {
     568:	e59f17a8 	ldr	r1, [pc, #1960]	; d18 <IRQ_Stack_Size+0x518>
     56c:	e5d13000 	ldrb	r3, [r1]
     570:	e3530000 	cmp	r3, #0
			LL_1khz_control_input.slowDataChannelSelect = SDC_EM_MODE;
			LL_1khz_control_input.slowDataChannelDataShort = emergencyMode;
     574:	159f37a0 	ldrne	r3, [pc, #1952]	; d1c <IRQ_Stack_Size+0x51c>
     578:	15d32000 	ldrbne	r2, [r3]
			//verify mode
			emergencyModeUpdate = 2;
     57c:	13a03002 	movne	r3, #2

			if (transmitCnt == sizeof(buildInfo))
				transmitBuildInfoTrigger = 3;
		} else if (emergencyModeUpdate) {
			LL_1khz_control_input.slowDataChannelSelect = SDC_EM_MODE;
			LL_1khz_control_input.slowDataChannelDataShort = emergencyMode;
     580:	11ce23b6 	strhne	r2, [lr, #54]	; 0x36
			transmitCnt++;

			if (transmitCnt == sizeof(buildInfo))
				transmitBuildInfoTrigger = 3;
		} else if (emergencyModeUpdate) {
			LL_1khz_control_input.slowDataChannelSelect = SDC_EM_MODE;
     584:	13a02018 	movne	r2, #24
			LL_1khz_control_input.slowDataChannelDataShort = emergencyMode;
			//verify mode
			emergencyModeUpdate = 2;
     588:	15c13000 	strbne	r3, [r1]
			transmitCnt++;

			if (transmitCnt == sizeof(buildInfo))
				transmitBuildInfoTrigger = 3;
		} else if (emergencyModeUpdate) {
			LL_1khz_control_input.slowDataChannelSelect = SDC_EM_MODE;
     58c:	15ce2034 	strbne	r2, [lr, #52]	; 0x34
			//verify mode
			emergencyModeUpdate = 2;
		} else {
			LL_1khz_control_input.slowDataChannelDataShort = 0;
			LL_1khz_control_input.slowDataChannelSelect = 0;
			LL_1khz_control_input.slowDataChannelDataChar = 0;
     590:	05ce3035 	strbeq	r3, [lr, #53]	; 0x35
			LL_1khz_control_input.slowDataChannelSelect = SDC_EM_MODE;
			LL_1khz_control_input.slowDataChannelDataShort = emergencyMode;
			//verify mode
			emergencyModeUpdate = 2;
		} else {
			LL_1khz_control_input.slowDataChannelDataShort = 0;
     594:	01ce33b6 	strheq	r3, [lr, #54]	; 0x36
			LL_1khz_control_input.slowDataChannelSelect = 0;
     598:	05ce3034 	strbeq	r3, [lr, #52]	; 0x34
			LL_1khz_control_input.slowDataChannelDataChar = 0;
		}

		//write data
		LL_write_ctrl_data(pageselect);
     59c:	e1a00009 	mov	r0, r9
     5a0:	ebffff58 	bl	308 <LL_write_ctrl_data>
		//set pageselect to other page for next cycle
		pageselect = 0;
     5a4:	e3a03000 	mov	r3, #0
     5a8:	e5c83000 	strb	r3, [r8]
     5ac:	e3a00001 	mov	r0, #1
	}
	return (1);
}
     5b0:	e28dd010 	add	sp, sp, #16
     5b4:	e8bd4ff0 	pop	{r4, r5, r6, r7, r8, r9, sl, fp, lr}
     5b8:	e12fff1e 	bx	lr
		LL_1khz_control_input.system_flags
				&= ~SF_SDK_DISABLE_MOTORONOFF_BY_STICK;

	if (WO_SDK.ctrl_mode == 0x00) //direct individual motor control
	{
		LL_1khz_control_input.system_flags
     5bc:	e1db30b0 	ldrh	r3, [fp]
				|= SF_DIRECT_MOTOR_CONTROL_INDIVIDUAL;
		for (i = 0; i < 8; i++) {
			LL_1khz_control_input.direct_motor_control[i]
					= WO_Direct_Individual_Motor_Control.motor[i];
		LL_1khz_control_input.ctrl_flags=WO_Direct_Individual_Motor_Control.motorReverseMask<<8;
     5c0:	e59f1758 	ldr	r1, [pc, #1880]	; d20 <IRQ_Stack_Size+0x520>
		LL_1khz_control_input.system_flags
				&= ~SF_SDK_DISABLE_MOTORONOFF_BY_STICK;

	if (WO_SDK.ctrl_mode == 0x00) //direct individual motor control
	{
		LL_1khz_control_input.system_flags
     5c4:	e3833080 	orr	r3, r3, #128	; 0x80
     5c8:	e1cb30b0 	strh	r3, [fp]
				|= SF_DIRECT_MOTOR_CONTROL_INDIVIDUAL;
		for (i = 0; i < 8; i++) {
			LL_1khz_control_input.direct_motor_control[i]
					= WO_Direct_Individual_Motor_Control.motor[i];
		LL_1khz_control_input.ctrl_flags=WO_Direct_Individual_Motor_Control.motorReverseMask<<8;
     5cc:	e5d12008 	ldrb	r2, [r1, #8]
     5d0:	e59fb728 	ldr	fp, [pc, #1832]	; d00 <IRQ_Stack_Size+0x500>
     5d4:	e1a02402 	lsl	r2, r2, #8
     5d8:	e1a0000b 	mov	r0, fp
     5dc:	e281c008 	add	ip, r1, #8
	if (WO_SDK.ctrl_mode == 0x00) //direct individual motor control
	{
		LL_1khz_control_input.system_flags
				|= SF_DIRECT_MOTOR_CONTROL_INDIVIDUAL;
		for (i = 0; i < 8; i++) {
			LL_1khz_control_input.direct_motor_control[i]
     5e0:	e4d13001 	ldrb	r3, [r1], #1

	if (WO_SDK.ctrl_mode == 0x00) //direct individual motor control
	{
		LL_1khz_control_input.system_flags
				|= SF_DIRECT_MOTOR_CONTROL_INDIVIDUAL;
		for (i = 0; i < 8; i++) {
     5e4:	e151000c 	cmp	r1, ip
			LL_1khz_control_input.direct_motor_control[i]
     5e8:	e5c0300c 	strb	r3, [r0, #12]
					= WO_Direct_Individual_Motor_Control.motor[i];
		LL_1khz_control_input.ctrl_flags=WO_Direct_Individual_Motor_Control.motorReverseMask<<8;
     5ec:	e2800001 	add	r0, r0, #1

	if (WO_SDK.ctrl_mode == 0x00) //direct individual motor control
	{
		LL_1khz_control_input.system_flags
				|= SF_DIRECT_MOTOR_CONTROL_INDIVIDUAL;
		for (i = 0; i < 8; i++) {
     5f0:	1afffffa 	bne	5e0 <HL2LL_write_cycle+0x1bc>
     5f4:	e1cb20b2 	strh	r2, [fp, #2]
		}
	} else
		LL_1khz_control_input.system_flags &= ~(SF_DIRECT_MOTOR_CONTROL
				| SF_DIRECT_MOTOR_CONTROL_INDIVIDUAL | SF_WAYPOINT_MODE);

	if (pageselect == 0) {
     5f8:	e3590000 	cmp	r9, #0
     5fc:	1affffba 	bne	4ec <HL2LL_write_cycle+0xc8>
		if (LL_1khz_control_input.system_flags & SF_GPS_NEW) {
     600:	e1db30b0 	ldrh	r3, [fp]
     604:	e3130008 	tst	r3, #8
     608:	e59f56f0 	ldr	r5, [pc, #1776]	; d00 <IRQ_Stack_Size+0x500>
     60c:	1a000010 	bne	654 <HL2LL_write_cycle+0x230>

				//default is no command
				LL_1khz_control_input.status = 0;

				//data fields are used for jeti commands
				if (jetiValuePartialSyncPending == 1) {
     610:	e59f670c 	ldr	r6, [pc, #1804]	; d24 <IRQ_Stack_Size+0x524>
     614:	e5d63000 	ldrb	r3, [r6]
     618:	e3530001 	cmp	r3, #1
			LL_1khz_control_input.speed_y = GPS_Data.speed_y;
			LL_1khz_control_input.heading = GPS_Data.heading;
			LL_1khz_control_input.status = GPS_Data.status;
		} else {
			//default is no command
			LL_1khz_control_input.status = 0;
     61c:	e1c592b4 	strh	r9, [r5, #36]	; 0x24
     620:	e1a07009 	mov	r7, r9

				//default is no command
				LL_1khz_control_input.status = 0;

				//data fields are used for jeti commands
				if (jetiValuePartialSyncPending == 1) {
     624:	0a00011c 	beq	a9c <IRQ_Stack_Size+0x29c>
					jetiSyncState++;
					jetiSensorValCnt = 0;
					jetiSensorValUpdateTimeout = 0;

				} else {
					switch (jetiSyncState) {
     628:	e59fa6f8 	ldr	sl, [pc, #1784]	; d28 <IRQ_Stack_Size+0x528>
     62c:	e5da3000 	ldrb	r3, [sl]
     630:	e3530005 	cmp	r3, #5
     634:	979ff103 	ldrls	pc, [pc, r3, lsl #2]
     638:	ea000014 	b	690 <HL2LL_write_cycle+0x26c>
     63c:	00000754 	.word	0x00000754
     640:	0000079c 	.word	0x0000079c
     644:	000007c8 	.word	0x000007c8
     648:	00000820 	.word	0x00000820
     64c:	00000874 	.word	0x00000874
     650:	000008c8 	.word	0x000008c8
				| SF_DIRECT_MOTOR_CONTROL_INDIVIDUAL | SF_WAYPOINT_MODE);

	if (pageselect == 0) {
		if (LL_1khz_control_input.system_flags & SF_GPS_NEW) {
			//fill struct with 500Hz data
			LL_1khz_control_input.latitude = GPS_Data.latitude;
     654:	e59f36b4 	ldr	r3, [pc, #1716]	; d10 <IRQ_Stack_Size+0x510>
     658:	e5932000 	ldr	r2, [r3]
			LL_1khz_control_input.longitude = GPS_Data.longitude;
     65c:	e5931004 	ldr	r1, [r3, #4]
			LL_1khz_control_input.height = GPS_Data.height;
     660:	e5930008 	ldr	r0, [r3, #8]
			LL_1khz_control_input.speed_x = GPS_Data.speed_x;
			LL_1khz_control_input.speed_y = GPS_Data.speed_y;
			LL_1khz_control_input.heading = GPS_Data.heading;
			LL_1khz_control_input.status = GPS_Data.status;
     664:	e1d3c2b8 	ldrh	ip, [r3, #40]	; 0x28
				| SF_DIRECT_MOTOR_CONTROL_INDIVIDUAL | SF_WAYPOINT_MODE);

	if (pageselect == 0) {
		if (LL_1khz_control_input.system_flags & SF_GPS_NEW) {
			//fill struct with 500Hz data
			LL_1khz_control_input.latitude = GPS_Data.latitude;
     668:	e5852014 	str	r2, [r5, #20]
			LL_1khz_control_input.longitude = GPS_Data.longitude;
     66c:	e5851018 	str	r1, [r5, #24]
			LL_1khz_control_input.height = GPS_Data.height;
			LL_1khz_control_input.speed_x = GPS_Data.speed_x;
			LL_1khz_control_input.speed_y = GPS_Data.speed_y;
     670:	e1d321b0 	ldrh	r2, [r3, #16]
		if (LL_1khz_control_input.system_flags & SF_GPS_NEW) {
			//fill struct with 500Hz data
			LL_1khz_control_input.latitude = GPS_Data.latitude;
			LL_1khz_control_input.longitude = GPS_Data.longitude;
			LL_1khz_control_input.height = GPS_Data.height;
			LL_1khz_control_input.speed_x = GPS_Data.speed_x;
     674:	e1d310bc 	ldrh	r1, [r3, #12]
			LL_1khz_control_input.speed_y = GPS_Data.speed_y;
			LL_1khz_control_input.heading = GPS_Data.heading;
     678:	e1d331b4 	ldrh	r3, [r3, #20]
			LL_1khz_control_input.status = GPS_Data.status;
     67c:	e1c5c2b4 	strh	ip, [r5, #36]	; 0x24
	if (pageselect == 0) {
		if (LL_1khz_control_input.system_flags & SF_GPS_NEW) {
			//fill struct with 500Hz data
			LL_1khz_control_input.latitude = GPS_Data.latitude;
			LL_1khz_control_input.longitude = GPS_Data.longitude;
			LL_1khz_control_input.height = GPS_Data.height;
     680:	e585001c 	str	r0, [r5, #28]
			LL_1khz_control_input.speed_x = GPS_Data.speed_x;
     684:	e1c512b0 	strh	r1, [r5, #32]
			LL_1khz_control_input.speed_y = GPS_Data.speed_y;
     688:	e1c522b2 	strh	r2, [r5, #34]	; 0x22
			LL_1khz_control_input.heading = GPS_Data.heading;
     68c:	e1c532be 	strh	r3, [r5, #46]	; 0x2e
				}
			}
		}

		//write data
		LL_write_ctrl_data(pageselect);
     690:	e5d80000 	ldrb	r0, [r8]
     694:	ebffff1b 	bl	308 <LL_write_ctrl_data>
		//set pageselect to other page for next cycle
		pageselect = 1;
     698:	e3a03001 	mov	r3, #1
     69c:	e1a00003 	mov	r0, r3
     6a0:	e5c83000 	strb	r3, [r8]
     6a4:	eaffffc1 	b	5b0 <HL2LL_write_cycle+0x18c>
				= WO_Direct_Motor_Control.thrust;
	} else if (WO_SDK.ctrl_mode == 0x02) //attitude control
	{
		LL_1khz_control_input.system_flags &= ~(SF_DIRECT_MOTOR_CONTROL
				| SF_DIRECT_MOTOR_CONTROL_INDIVIDUAL | SF_WAYPOINT_MODE); //no additional system flag => attitude control is "standard mode"
		LL_1khz_control_input.ctrl_flags = WO_CTRL_Input.ctrl;
     6a8:	e59f267c 	ldr	r2, [pc, #1660]	; d2c <IRQ_Stack_Size+0x52c>
				= WO_Direct_Motor_Control.yaw;
		LL_1khz_control_input.direct_motor_control[3]
				= WO_Direct_Motor_Control.thrust;
	} else if (WO_SDK.ctrl_mode == 0x02) //attitude control
	{
		LL_1khz_control_input.system_flags &= ~(SF_DIRECT_MOTOR_CONTROL
     6ac:	e1db30b0 	ldrh	r3, [fp]
				| SF_DIRECT_MOTOR_CONTROL_INDIVIDUAL | SF_WAYPOINT_MODE); //no additional system flag => attitude control is "standard mode"
		LL_1khz_control_input.ctrl_flags = WO_CTRL_Input.ctrl;
		LL_1khz_control_input.pitch = WO_CTRL_Input.pitch;
		LL_1khz_control_input.roll = WO_CTRL_Input.roll;
		LL_1khz_control_input.yaw = WO_CTRL_Input.yaw;
		LL_1khz_control_input.thrust = WO_CTRL_Input.thrust;
     6b0:	e1d210b6 	ldrh	r1, [r2, #6]
				= WO_Direct_Motor_Control.yaw;
		LL_1khz_control_input.direct_motor_control[3]
				= WO_Direct_Motor_Control.thrust;
	} else if (WO_SDK.ctrl_mode == 0x02) //attitude control
	{
		LL_1khz_control_input.system_flags &= ~(SF_DIRECT_MOTOR_CONTROL
     6b4:	e3c330e0 	bic	r3, r3, #224	; 0xe0
				| SF_DIRECT_MOTOR_CONTROL_INDIVIDUAL | SF_WAYPOINT_MODE); //no additional system flag => attitude control is "standard mode"
		LL_1khz_control_input.ctrl_flags = WO_CTRL_Input.ctrl;
		LL_1khz_control_input.pitch = WO_CTRL_Input.pitch;
     6b8:	e1d2c0b0 	ldrh	ip, [r2]
				= WO_Direct_Motor_Control.yaw;
		LL_1khz_control_input.direct_motor_control[3]
				= WO_Direct_Motor_Control.thrust;
	} else if (WO_SDK.ctrl_mode == 0x02) //attitude control
	{
		LL_1khz_control_input.system_flags &= ~(SF_DIRECT_MOTOR_CONTROL
     6bc:	e1cb30b0 	strh	r3, [fp]
				| SF_DIRECT_MOTOR_CONTROL_INDIVIDUAL | SF_WAYPOINT_MODE); //no additional system flag => attitude control is "standard mode"
		LL_1khz_control_input.ctrl_flags = WO_CTRL_Input.ctrl;
		LL_1khz_control_input.pitch = WO_CTRL_Input.pitch;
		LL_1khz_control_input.roll = WO_CTRL_Input.roll;
		LL_1khz_control_input.yaw = WO_CTRL_Input.yaw;
		LL_1khz_control_input.thrust = WO_CTRL_Input.thrust;
     6c0:	e1cb10ba 	strh	r1, [fp, #10]
				= WO_Direct_Motor_Control.thrust;
	} else if (WO_SDK.ctrl_mode == 0x02) //attitude control
	{
		LL_1khz_control_input.system_flags &= ~(SF_DIRECT_MOTOR_CONTROL
				| SF_DIRECT_MOTOR_CONTROL_INDIVIDUAL | SF_WAYPOINT_MODE); //no additional system flag => attitude control is "standard mode"
		LL_1khz_control_input.ctrl_flags = WO_CTRL_Input.ctrl;
     6c4:	e1d230b8 	ldrh	r3, [r2, #8]
		LL_1khz_control_input.pitch = WO_CTRL_Input.pitch;
		LL_1khz_control_input.roll = WO_CTRL_Input.roll;
     6c8:	e1d210b2 	ldrh	r1, [r2, #2]
		LL_1khz_control_input.yaw = WO_CTRL_Input.yaw;
     6cc:	e1d220b4 	ldrh	r2, [r2, #4]
				= WO_Direct_Motor_Control.thrust;
	} else if (WO_SDK.ctrl_mode == 0x02) //attitude control
	{
		LL_1khz_control_input.system_flags &= ~(SF_DIRECT_MOTOR_CONTROL
				| SF_DIRECT_MOTOR_CONTROL_INDIVIDUAL | SF_WAYPOINT_MODE); //no additional system flag => attitude control is "standard mode"
		LL_1khz_control_input.ctrl_flags = WO_CTRL_Input.ctrl;
     6d0:	e1cb30b2 	strh	r3, [fp, #2]
		LL_1khz_control_input.pitch = WO_CTRL_Input.pitch;
     6d4:	e1cbc0b4 	strh	ip, [fp, #4]
		LL_1khz_control_input.roll = WO_CTRL_Input.roll;
     6d8:	e1cb10b6 	strh	r1, [fp, #6]
		LL_1khz_control_input.yaw = WO_CTRL_Input.yaw;
     6dc:	e1cb20b8 	strh	r2, [fp, #8]
     6e0:	eaffffc4 	b	5f8 <HL2LL_write_cycle+0x1d4>
			LL_1khz_control_input.slowDataChannelSelect = SDC_DECLINATION;
			LL_1khz_control_input.slowDataChannelDataShort
					= estimatedDeclination;

		} else if (declinationAvailable == 2) {
			declinationAvailable = 3;
     6e4:	e2833001 	add	r3, r3, #1
			LL_1khz_control_input.slowDataChannelSelect = SDC_INCLINATION;
			LL_1khz_control_input.slowDataChannelDataShort
     6e8:	e59f2640 	ldr	r2, [pc, #1600]	; d30 <IRQ_Stack_Size+0x530>
			LL_1khz_control_input.slowDataChannelSelect = SDC_DECLINATION;
			LL_1khz_control_input.slowDataChannelDataShort
					= estimatedDeclination;

		} else if (declinationAvailable == 2) {
			declinationAvailable = 3;
     6ec:	e5c13000 	strb	r3, [r1]
			LL_1khz_control_input.slowDataChannelSelect = SDC_INCLINATION;
			LL_1khz_control_input.slowDataChannelDataShort
     6f0:	e5923000 	ldr	r3, [r2]
			LL_1khz_control_input.slowDataChannelDataShort
					= estimatedDeclination;

		} else if (declinationAvailable == 2) {
			declinationAvailable = 3;
			LL_1khz_control_input.slowDataChannelSelect = SDC_INCLINATION;
     6f4:	e3a02012 	mov	r2, #18
			LL_1khz_control_input.slowDataChannelDataShort
     6f8:	e1ce33b6 	strh	r3, [lr, #54]	; 0x36
			LL_1khz_control_input.slowDataChannelDataShort
					= estimatedDeclination;

		} else if (declinationAvailable == 2) {
			declinationAvailable = 3;
			LL_1khz_control_input.slowDataChannelSelect = SDC_INCLINATION;
     6fc:	e5ce2034 	strb	r2, [lr, #52]	; 0x34
     700:	eaffffa5 	b	59c <HL2LL_write_cycle+0x178>
		LL_1khz_control_input.ctrl_flags=WO_Direct_Individual_Motor_Control.motorReverseMask<<8;
		}
	} else if (WO_SDK.ctrl_mode == 0x01) //direct motor control with standard output mapping
	{
		LL_1khz_control_input.system_flags |= SF_DIRECT_MOTOR_CONTROL;
		LL_1khz_control_input.direct_motor_control[0]
     704:	e59f3628 	ldr	r3, [pc, #1576]	; d34 <IRQ_Stack_Size+0x534>
					= WO_Direct_Individual_Motor_Control.motor[i];
		LL_1khz_control_input.ctrl_flags=WO_Direct_Individual_Motor_Control.motorReverseMask<<8;
		}
	} else if (WO_SDK.ctrl_mode == 0x01) //direct motor control with standard output mapping
	{
		LL_1khz_control_input.system_flags |= SF_DIRECT_MOTOR_CONTROL;
     708:	e1db20b0 	ldrh	r2, [fp]
				= WO_Direct_Motor_Control.pitch;
		LL_1khz_control_input.direct_motor_control[1]
				= WO_Direct_Motor_Control.roll;
		LL_1khz_control_input.direct_motor_control[2]
				= WO_Direct_Motor_Control.yaw;
		LL_1khz_control_input.direct_motor_control[3]
     70c:	e5d3e003 	ldrb	lr, [r3, #3]
		LL_1khz_control_input.ctrl_flags=WO_Direct_Individual_Motor_Control.motorReverseMask<<8;
		}
	} else if (WO_SDK.ctrl_mode == 0x01) //direct motor control with standard output mapping
	{
		LL_1khz_control_input.system_flags |= SF_DIRECT_MOTOR_CONTROL;
		LL_1khz_control_input.direct_motor_control[0]
     710:	e5d31000 	ldrb	r1, [r3]
				= WO_Direct_Motor_Control.pitch;
		LL_1khz_control_input.direct_motor_control[1]
     714:	e5d30001 	ldrb	r0, [r3, #1]
				= WO_Direct_Motor_Control.roll;
		LL_1khz_control_input.direct_motor_control[2]
     718:	e5d3c002 	ldrb	ip, [r3, #2]
					= WO_Direct_Individual_Motor_Control.motor[i];
		LL_1khz_control_input.ctrl_flags=WO_Direct_Individual_Motor_Control.motorReverseMask<<8;
		}
	} else if (WO_SDK.ctrl_mode == 0x01) //direct motor control with standard output mapping
	{
		LL_1khz_control_input.system_flags |= SF_DIRECT_MOTOR_CONTROL;
     71c:	e3822020 	orr	r2, r2, #32
     720:	e1cb20b0 	strh	r2, [fp]
		LL_1khz_control_input.direct_motor_control[0]
     724:	e5cb100c 	strb	r1, [fp, #12]
				= WO_Direct_Motor_Control.pitch;
		LL_1khz_control_input.direct_motor_control[1]
     728:	e5cb000d 	strb	r0, [fp, #13]
				= WO_Direct_Motor_Control.roll;
		LL_1khz_control_input.direct_motor_control[2]
     72c:	e5cbc00e 	strb	ip, [fp, #14]
				= WO_Direct_Motor_Control.yaw;
		LL_1khz_control_input.direct_motor_control[3]
     730:	e5cbe00f 	strb	lr, [fp, #15]
     734:	eaffffaf 	b	5f8 <HL2LL_write_cycle+0x1d4>
		LL_1khz_control_input.speed_accuracy = GPS_Data.speed_accuracy;
		LL_1khz_control_input.numSV = GPS_Data.numSV;
		LL_1khz_control_input.battery_voltage_1 = HL_Status.battery_voltage_1;
		LL_1khz_control_input.battery_voltage_2 = HL_Status.battery_voltage_2;
		if (declinationAvailable == 1) {
			declinationAvailable = 2;
     738:	e3a03002 	mov	r3, #2
     73c:	e5c13000 	strb	r3, [r1]
			LL_1khz_control_input.slowDataChannelSelect = SDC_DECLINATION;
			LL_1khz_control_input.slowDataChannelDataShort
     740:	e59f25f0 	ldr	r2, [pc, #1520]	; d38 <IRQ_Stack_Size+0x538>
     744:	e5923000 	ldr	r3, [r2]
		LL_1khz_control_input.numSV = GPS_Data.numSV;
		LL_1khz_control_input.battery_voltage_1 = HL_Status.battery_voltage_1;
		LL_1khz_control_input.battery_voltage_2 = HL_Status.battery_voltage_2;
		if (declinationAvailable == 1) {
			declinationAvailable = 2;
			LL_1khz_control_input.slowDataChannelSelect = SDC_DECLINATION;
     748:	e5ce0034 	strb	r0, [lr, #52]	; 0x34
			LL_1khz_control_input.slowDataChannelDataShort
     74c:	e1ce33b6 	strh	r3, [lr, #54]	; 0x36
     750:	eaffff91 	b	59c <HL2LL_write_cycle+0x178>

				} else {
					switch (jetiSyncState) {
					case 0:
						//sync name
						LL_1khz_control_input.status = PD_JETI_SETNAME;
     754:	e3a0c0a0 	mov	ip, #160	; 0xa0
						memcpy(&LL_1khz_control_input.latitude, &jetiName[0], 4);
     758:	e59f15dc 	ldr	r1, [pc, #1500]	; d3c <IRQ_Stack_Size+0x53c>
     75c:	e3a02004 	mov	r2, #4

				} else {
					switch (jetiSyncState) {
					case 0:
						//sync name
						LL_1khz_control_input.status = PD_JETI_SETNAME;
     760:	e1cbc2b4 	strh	ip, [fp, #36]	; 0x24
						memcpy(&LL_1khz_control_input.latitude, &jetiName[0], 4);
     764:	e59f05d4 	ldr	r0, [pc, #1492]	; d40 <IRQ_Stack_Size+0x540>
     768:	eb003444 	bl	d880 <__memcpy_from_arm>
						memcpy(&LL_1khz_control_input.longitude, &jetiName[4],
     76c:	e59f15d0 	ldr	r1, [pc, #1488]	; d44 <IRQ_Stack_Size+0x544>
     770:	e3a02004 	mov	r2, #4
     774:	e59f05cc 	ldr	r0, [pc, #1484]	; d48 <IRQ_Stack_Size+0x548>
     778:	eb003440 	bl	d880 <__memcpy_from_arm>
								4);
						memcpy(&LL_1khz_control_input.speed_x, &jetiName[8], 2);
     77c:	e59f05c8 	ldr	r0, [pc, #1480]	; d4c <IRQ_Stack_Size+0x54c>
     780:	e59f15c8 	ldr	r1, [pc, #1480]	; d50 <IRQ_Stack_Size+0x550>
								&jetiDisplayText[4], 4);
						memcpy(&LL_1khz_control_input.height,
								&jetiDisplayText[8], 4);
						memcpy(&LL_1khz_control_input.speed_x,
								&jetiDisplayText[12], 2);
						memcpy(&LL_1khz_control_input.speed_y,
     784:	e3a02002 	mov	r2, #2
     788:	eb00343c 	bl	d880 <__memcpy_from_arm>
								&jetiDisplayText[14], 2);
						jetiSyncState++;
     78c:	e5da3000 	ldrb	r3, [sl]
     790:	e2833001 	add	r3, r3, #1
     794:	e5ca3000 	strb	r3, [sl]
     798:	eaffffbc 	b	690 <HL2LL_write_cycle+0x26c>
						jetiSyncState++;
						break;
					case 1:
						//sync alarm
						LL_1khz_control_input.status = PD_JETI_SETALARM;
						LL_1khz_control_input.speed_x = jetiAlarm;
     79c:	e59f35b0 	ldr	r3, [pc, #1456]	; d54 <IRQ_Stack_Size+0x554>
						LL_1khz_control_input.speed_y = jetiAlarmType;
     7a0:	e59f25b0 	ldr	r2, [pc, #1456]	; d58 <IRQ_Stack_Size+0x558>
						jetiSyncState++;
						break;
					case 1:
						//sync alarm
						LL_1khz_control_input.status = PD_JETI_SETALARM;
						LL_1khz_control_input.speed_x = jetiAlarm;
     7a4:	e5d31000 	ldrb	r1, [r3]
						LL_1khz_control_input.speed_y = jetiAlarmType;
     7a8:	e5d23000 	ldrb	r3, [r2]
						jetiSyncState++;
						break;
					case 1:
						//sync alarm
						LL_1khz_control_input.status = PD_JETI_SETALARM;
						LL_1khz_control_input.speed_x = jetiAlarm;
     7ac:	e1cb12b0 	strh	r1, [fp, #32]
						LL_1khz_control_input.speed_y = jetiAlarmType;
						jetiSyncState++;
     7b0:	e3a02002 	mov	r2, #2

						jetiSyncState++;
						break;
					case 1:
						//sync alarm
						LL_1khz_control_input.status = PD_JETI_SETALARM;
     7b4:	e3a010a3 	mov	r1, #163	; 0xa3
						LL_1khz_control_input.speed_x = jetiAlarm;
						LL_1khz_control_input.speed_y = jetiAlarmType;
     7b8:	e1cb32b2 	strh	r3, [fp, #34]	; 0x22
						jetiSyncState++;
     7bc:	e5ca2000 	strb	r2, [sl]

						jetiSyncState++;
						break;
					case 1:
						//sync alarm
						LL_1khz_control_input.status = PD_JETI_SETALARM;
     7c0:	e1cb12b4 	strh	r1, [fp, #36]	; 0x24
     7c4:	eaffffb1 	b	690 <HL2LL_write_cycle+0x26c>
						LL_1khz_control_input.speed_y = jetiAlarmType;
						jetiSyncState++;
						break;
					case 2:
						//sync complete sensor fields
						if (jetiValues[jetiSensorCnt].active) {
     7c8:	e59f558c 	ldr	r5, [pc, #1420]	; d5c <IRQ_Stack_Size+0x55c>
     7cc:	e5d52000 	ldrb	r2, [r5]
     7d0:	e0823102 	add	r3, r2, r2, lsl #2
     7d4:	e59f4584 	ldr	r4, [pc, #1412]	; d60 <IRQ_Stack_Size+0x560>
     7d8:	e0823083 	add	r3, r2, r3, lsl #1
     7dc:	e1a03083 	lsl	r3, r3, #1
     7e0:	e7d3c004 	ldrb	ip, [r3, r4]
     7e4:	e35c0000 	cmp	ip, #0
     7e8:	e0831004 	add	r1, r3, r4
     7ec:	1a0000f8 	bne	bd4 <IRQ_Stack_Size+0x3d4>
									&jetiValues[jetiSensorCnt].name[8], 2);
							LL_1khz_control_input.speed_y
									= jetiValues[jetiSensorCnt].decPoint;
							jetiValuePartialSyncPending = 1;
						} else {
							jetiSensorCnt++;
     7f0:	e2823001 	add	r3, r2, #1
     7f4:	e20330ff 	and	r3, r3, #255	; 0xff
							if (jetiSensorCnt == 15) {
     7f8:	e353000f 	cmp	r3, #15
									&jetiValues[jetiSensorCnt].name[8], 2);
							LL_1khz_control_input.speed_y
									= jetiValues[jetiSensorCnt].decPoint;
							jetiValuePartialSyncPending = 1;
						} else {
							jetiSensorCnt++;
     7fc:	e5c53000 	strb	r3, [r5]
							if (jetiSensorCnt == 15) {
								jetiSensorCnt = 0;
							}

							jetiSyncState++;
     800:	e3a03003 	mov	r3, #3
     804:	e5ca3000 	strb	r3, [sl]
							jetiSensorValCnt = 0;
							jetiSensorValUpdateTimeout = 0;
     808:	e59f2554 	ldr	r2, [pc, #1364]	; d64 <IRQ_Stack_Size+0x564>
							if (jetiSensorCnt == 15) {
								jetiSensorCnt = 0;
							}

							jetiSyncState++;
							jetiSensorValCnt = 0;
     80c:	e59f3554 	ldr	r3, [pc, #1364]	; d68 <IRQ_Stack_Size+0x568>
									= jetiValues[jetiSensorCnt].decPoint;
							jetiValuePartialSyncPending = 1;
						} else {
							jetiSensorCnt++;
							if (jetiSensorCnt == 15) {
								jetiSensorCnt = 0;
     810:	05c5c000 	strbeq	ip, [r5]
							}

							jetiSyncState++;
							jetiSensorValCnt = 0;
							jetiSensorValUpdateTimeout = 0;
     814:	e5c2c000 	strb	ip, [r2]
							if (jetiSensorCnt == 15) {
								jetiSensorCnt = 0;
							}

							jetiSyncState++;
							jetiSensorValCnt = 0;
     818:	e5c3c000 	strb	ip, [r3]
     81c:	eaffff9b 	b	690 <HL2LL_write_cycle+0x26c>
						}
						break;

					case 3:
						//sync text
						LL_1khz_control_input.status = PD_JETI_SETTEXT;
     820:	e3a0c0a4 	mov	ip, #164	; 0xa4
     824:	e1cbc2b4 	strh	ip, [fp, #36]	; 0x24
						memcpy(&LL_1khz_control_input.latitude,
     828:	e59f153c 	ldr	r1, [pc, #1340]	; d6c <IRQ_Stack_Size+0x56c>
     82c:	e3a02004 	mov	r2, #4
     830:	e59f0508 	ldr	r0, [pc, #1288]	; d40 <IRQ_Stack_Size+0x540>
     834:	eb003411 	bl	d880 <__memcpy_from_arm>
								&jetiDisplayText[0], 4);
						memcpy(&LL_1khz_control_input.longitude,
     838:	e59f1530 	ldr	r1, [pc, #1328]	; d70 <IRQ_Stack_Size+0x570>
     83c:	e3a02004 	mov	r2, #4
     840:	e59f0500 	ldr	r0, [pc, #1280]	; d48 <IRQ_Stack_Size+0x548>
     844:	eb00340d 	bl	d880 <__memcpy_from_arm>
								&jetiDisplayText[4], 4);
						memcpy(&LL_1khz_control_input.height,
     848:	e59f1524 	ldr	r1, [pc, #1316]	; d74 <IRQ_Stack_Size+0x574>
     84c:	e3a02004 	mov	r2, #4
     850:	e59f0520 	ldr	r0, [pc, #1312]	; d78 <IRQ_Stack_Size+0x578>
     854:	eb003409 	bl	d880 <__memcpy_from_arm>
								&jetiDisplayText[8], 4);
						memcpy(&LL_1khz_control_input.speed_x,
     858:	e59f151c 	ldr	r1, [pc, #1308]	; d7c <IRQ_Stack_Size+0x57c>
     85c:	e3a02002 	mov	r2, #2
     860:	e59f04e4 	ldr	r0, [pc, #1252]	; d4c <IRQ_Stack_Size+0x54c>
     864:	eb003405 	bl	d880 <__memcpy_from_arm>
								&jetiDisplayText[12], 2);
						memcpy(&LL_1khz_control_input.speed_y,
     868:	e59f0510 	ldr	r0, [pc, #1296]	; d80 <IRQ_Stack_Size+0x580>
     86c:	e59f1510 	ldr	r1, [pc, #1296]	; d84 <IRQ_Stack_Size+0x584>
     870:	eaffffc3 	b	784 <HL2LL_write_cycle+0x360>
						jetiSyncState++;
						break;

					case 4:
						//sync text2
						LL_1khz_control_input.status = PD_JETI_SETTEXT2;
     874:	e3a030a7 	mov	r3, #167	; 0xa7
     878:	e1cb32b4 	strh	r3, [fp, #36]	; 0x24

						memcpy(&LL_1khz_control_input.latitude,
     87c:	e59f1504 	ldr	r1, [pc, #1284]	; d88 <IRQ_Stack_Size+0x588>
     880:	e3a02004 	mov	r2, #4
     884:	e59f04b4 	ldr	r0, [pc, #1204]	; d40 <IRQ_Stack_Size+0x540>
     888:	eb0033fc 	bl	d880 <__memcpy_from_arm>
								&jetiDisplayText[16], 4);
						memcpy(&LL_1khz_control_input.longitude,
     88c:	e59f14f8 	ldr	r1, [pc, #1272]	; d8c <IRQ_Stack_Size+0x58c>
     890:	e3a02004 	mov	r2, #4
     894:	e59f04ac 	ldr	r0, [pc, #1196]	; d48 <IRQ_Stack_Size+0x548>
     898:	eb0033f8 	bl	d880 <__memcpy_from_arm>
								&jetiDisplayText[20], 4);
						memcpy(&LL_1khz_control_input.height,
     89c:	e59f14ec 	ldr	r1, [pc, #1260]	; d90 <IRQ_Stack_Size+0x590>
     8a0:	e3a02004 	mov	r2, #4
     8a4:	e59f04cc 	ldr	r0, [pc, #1228]	; d78 <IRQ_Stack_Size+0x578>
     8a8:	eb0033f4 	bl	d880 <__memcpy_from_arm>
								&jetiDisplayText[24], 4);
						memcpy(&LL_1khz_control_input.speed_x,
     8ac:	e59f14e0 	ldr	r1, [pc, #1248]	; d94 <IRQ_Stack_Size+0x594>
     8b0:	e3a02002 	mov	r2, #2
     8b4:	e59f0490 	ldr	r0, [pc, #1168]	; d4c <IRQ_Stack_Size+0x54c>
     8b8:	eb0033f0 	bl	d880 <__memcpy_from_arm>
								&jetiDisplayText[28], 2);
						memcpy(&LL_1khz_control_input.speed_y,
     8bc:	e59f04bc 	ldr	r0, [pc, #1212]	; d80 <IRQ_Stack_Size+0x580>
     8c0:	e59f14d0 	ldr	r1, [pc, #1232]	; d98 <IRQ_Stack_Size+0x598>
     8c4:	eaffffae 	b	784 <HL2LL_write_cycle+0x360>

					case 5:
						//sync all sensor values for 75ms

						LL_1khz_control_input.status = PD_JETI_UPDATESDATA;
						LL_1khz_control_input.height = jetiSensorValCnt;
     8c8:	e59f9498 	ldr	r9, [pc, #1176]	; d68 <IRQ_Stack_Size+0x568>
     8cc:	e5d9c000 	ldrb	ip, [r9]
						LL_1khz_control_input.latitude = jetiValues[3
     8d0:	e08c108c 	add	r1, ip, ip, lsl #1
     8d4:	e0813101 	add	r3, r1, r1, lsl #2
     8d8:	e59f5480 	ldr	r5, [pc, #1152]	; d60 <IRQ_Stack_Size+0x560>
     8dc:	e0811083 	add	r1, r1, r3, lsl #1
     8e0:	e1a01081 	lsl	r1, r1, #1

					case 5:
						//sync all sensor values for 75ms

						LL_1khz_control_input.status = PD_JETI_UPDATESDATA;
						LL_1khz_control_input.height = jetiSensorValCnt;
     8e4:	e58bc01c 	str	ip, [fp, #28]
						LL_1khz_control_input.latitude = jetiValues[3
     8e8:	e0813005 	add	r3, r1, r5
								* jetiSensorValCnt].value;
						LL_1khz_control_input.longitude = jetiValues[3
     8ec:	e2832026 	add	r2, r3, #38	; 0x26
					case 5:
						//sync all sensor values for 75ms

						LL_1khz_control_input.status = PD_JETI_UPDATESDATA;
						LL_1khz_control_input.height = jetiSensorValCnt;
						LL_1khz_control_input.latitude = jetiValues[3
     8f0:	e2833010 	add	r3, r3, #16
     8f4:	e5d34003 	ldrb	r4, [r3, #3]
								* jetiSensorValCnt].value;
						LL_1khz_control_input.longitude = jetiValues[3
     8f8:	e5d20003 	ldrb	r0, [r2, #3]
					case 5:
						//sync all sensor values for 75ms

						LL_1khz_control_input.status = PD_JETI_UPDATESDATA;
						LL_1khz_control_input.height = jetiSensorValCnt;
						LL_1khz_control_input.latitude = jetiValues[3
     8fc:	e5d3e002 	ldrb	lr, [r3, #2]
								* jetiSensorValCnt].value;
						LL_1khz_control_input.longitude = jetiValues[3
     900:	e5d2c002 	ldrb	ip, [r2, #2]
					case 5:
						//sync all sensor values for 75ms

						LL_1khz_control_input.status = PD_JETI_UPDATESDATA;
						LL_1khz_control_input.height = jetiSensorValCnt;
						LL_1khz_control_input.latitude = jetiValues[3
     904:	e5d36004 	ldrb	r6, [r3, #4]
								* jetiSensorValCnt].value;
						LL_1khz_control_input.longitude = jetiValues[3
     908:	e5d27004 	ldrb	r7, [r2, #4]
					case 5:
						//sync all sensor values for 75ms

						LL_1khz_control_input.status = PD_JETI_UPDATESDATA;
						LL_1khz_control_input.height = jetiSensorValCnt;
						LL_1khz_control_input.latitude = jetiValues[3
     90c:	e18ee404 	orr	lr, lr, r4, lsl #8
								* jetiSensorValCnt].value;
						LL_1khz_control_input.longitude = jetiValues[3
     910:	e18cc400 	orr	ip, ip, r0, lsl #8
					case 5:
						//sync all sensor values for 75ms

						LL_1khz_control_input.status = PD_JETI_UPDATESDATA;
						LL_1khz_control_input.height = jetiSensorValCnt;
						LL_1khz_control_input.latitude = jetiValues[3
     914:	e5d34005 	ldrb	r4, [r3, #5]
								* jetiSensorValCnt].value;
						LL_1khz_control_input.longitude = jetiValues[3
     918:	e5d20005 	ldrb	r0, [r2, #5]
					case 5:
						//sync all sensor values for 75ms

						LL_1khz_control_input.status = PD_JETI_UPDATESDATA;
						LL_1khz_control_input.height = jetiSensorValCnt;
						LL_1khz_control_input.latitude = jetiValues[3
     91c:	e18ee806 	orr	lr, lr, r6, lsl #16
								* jetiSensorValCnt].value;
						LL_1khz_control_input.longitude = jetiValues[3
     920:	e18cc807 	orr	ip, ip, r7, lsl #16
     924:	e18ccc00 	orr	ip, ip, r0, lsl #24
					case 5:
						//sync all sensor values for 75ms

						LL_1khz_control_input.status = PD_JETI_UPDATESDATA;
						LL_1khz_control_input.height = jetiSensorValCnt;
						LL_1khz_control_input.latitude = jetiValues[3
     928:	e18eec04 	orr	lr, lr, r4, lsl #24
						break;

					case 5:
						//sync all sensor values for 75ms

						LL_1khz_control_input.status = PD_JETI_UPDATESDATA;
     92c:	e3a030a2 	mov	r3, #162	; 0xa2
						LL_1khz_control_input.height = jetiSensorValCnt;
						LL_1khz_control_input.latitude = jetiValues[3
								* jetiSensorValCnt].value;
						LL_1khz_control_input.longitude = jetiValues[3
								* jetiSensorValCnt + 1].value;
						memcpy(&LL_1khz_control_input.speed_y,
     930:	e0811005 	add	r1, r1, r5
     934:	e2811040 	add	r1, r1, #64	; 0x40
     938:	e3a02002 	mov	r2, #2

						LL_1khz_control_input.status = PD_JETI_UPDATESDATA;
						LL_1khz_control_input.height = jetiSensorValCnt;
						LL_1khz_control_input.latitude = jetiValues[3
								* jetiSensorValCnt].value;
						LL_1khz_control_input.longitude = jetiValues[3
     93c:	e58bc018 	str	ip, [fp, #24]
					case 5:
						//sync all sensor values for 75ms

						LL_1khz_control_input.status = PD_JETI_UPDATESDATA;
						LL_1khz_control_input.height = jetiSensorValCnt;
						LL_1khz_control_input.latitude = jetiValues[3
     940:	e58be014 	str	lr, [fp, #20]
						break;

					case 5:
						//sync all sensor values for 75ms

						LL_1khz_control_input.status = PD_JETI_UPDATESDATA;
     944:	e1cb32b4 	strh	r3, [fp, #36]	; 0x24
						LL_1khz_control_input.height = jetiSensorValCnt;
						LL_1khz_control_input.latitude = jetiValues[3
								* jetiSensorValCnt].value;
						LL_1khz_control_input.longitude = jetiValues[3
								* jetiSensorValCnt + 1].value;
						memcpy(&LL_1khz_control_input.speed_y,
     948:	e59f0430 	ldr	r0, [pc, #1072]	; d80 <IRQ_Stack_Size+0x580>
     94c:	eb0033cb 	bl	d880 <__memcpy_from_arm>
								(void *) (((unsigned char *) (&jetiValues[3
										* jetiSensorValCnt + 2].value)) + 2), 2);
						memcpy(&LL_1khz_control_input.speed_x, &jetiValues[3
     950:	e5d93000 	ldrb	r3, [r9]
     954:	e0833283 	add	r3, r3, r3, lsl #5
     958:	e0855083 	add	r5, r5, r3, lsl #1
     95c:	e3a02002 	mov	r2, #2
     960:	e285103e 	add	r1, r5, #62	; 0x3e
     964:	e59f03e0 	ldr	r0, [pc, #992]	; d4c <IRQ_Stack_Size+0x54c>
     968:	eb0033c4 	bl	d880 <__memcpy_from_arm>
								* jetiSensorValCnt + 2].value, 2);

						jetiSensorValCnt++;
     96c:	e5d93000 	ldrb	r3, [r9]
     970:	e2833001 	add	r3, r3, #1
     974:	e20330ff 	and	r3, r3, #255	; 0xff
						if (jetiSensorValCnt == 5)
							jetiSensorValCnt = 0;

						if (jetiTriggerTextSync) {
     978:	e59f241c 	ldr	r2, [pc, #1052]	; d9c <IRQ_Stack_Size+0x59c>
										* jetiSensorValCnt + 2].value)) + 2), 2);
						memcpy(&LL_1khz_control_input.speed_x, &jetiValues[3
								* jetiSensorValCnt + 2].value, 2);

						jetiSensorValCnt++;
						if (jetiSensorValCnt == 5)
     97c:	e3530005 	cmp	r3, #5
								(void *) (((unsigned char *) (&jetiValues[3
										* jetiSensorValCnt + 2].value)) + 2), 2);
						memcpy(&LL_1khz_control_input.speed_x, &jetiValues[3
								* jetiSensorValCnt + 2].value, 2);

						jetiSensorValCnt++;
     980:	e5c93000 	strb	r3, [r9]
						if (jetiSensorValCnt == 5)
							jetiSensorValCnt = 0;
     984:	02433005 	subeq	r3, r3, #5
     988:	05c93000 	strbeq	r3, [r9]

						if (jetiTriggerTextSync) {
     98c:	e5d23000 	ldrb	r3, [r2]
     990:	e3530000 	cmp	r3, #0
							jetiSyncState = 3; //trigger text resync
							jetiTriggerTextSync = 0;
     994:	13a03000 	movne	r3, #0
     998:	15c23000 	strbne	r3, [r2]
						jetiSensorValCnt++;
						if (jetiSensorValCnt == 5)
							jetiSensorValCnt = 0;

						if (jetiTriggerTextSync) {
							jetiSyncState = 3; //trigger text resync
     99c:	13a02003 	movne	r2, #3
     9a0:	15ca2000 	strbne	r2, [sl]
							jetiTriggerTextSync = 0;
						}

						jetiSensorValUpdateTimeout++;
     9a4:	e59f23b8 	ldr	r2, [pc, #952]	; d64 <IRQ_Stack_Size+0x564>
     9a8:	e5d23000 	ldrb	r3, [r2]
     9ac:	e2833001 	add	r3, r3, #1
     9b0:	e20330ff 	and	r3, r3, #255	; 0xff
						if (jetiSensorValUpdateTimeout == 75) {
     9b4:	e353004b 	cmp	r3, #75	; 0x4b
						if (jetiTriggerTextSync) {
							jetiSyncState = 3; //trigger text resync
							jetiTriggerTextSync = 0;
						}

						jetiSensorValUpdateTimeout++;
     9b8:	e5c23000 	strb	r3, [r2]
						if (jetiSensorValUpdateTimeout == 75) {
							jetiSyncState = 0;
     9bc:	0243304b 	subeq	r3, r3, #75	; 0x4b
     9c0:	05ca3000 	strbeq	r3, [sl]
     9c4:	eaffff31 	b	690 <HL2LL_write_cycle+0x26c>
	{
		LL_1khz_control_input.system_flags |= SF_WAYPOINT_MODE;

		//check if new command should be send

		if (wpCtrlWpCmdUpdated) {
     9c8:	e59fc3d0 	ldr	ip, [pc, #976]	; da0 <IRQ_Stack_Size+0x5a0>
		LL_1khz_control_input.roll = WO_CTRL_Input.roll;
		LL_1khz_control_input.yaw = WO_CTRL_Input.yaw;
		LL_1khz_control_input.thrust = WO_CTRL_Input.thrust;
	} else if (WO_SDK.ctrl_mode == 0x03) //gps waypoint control
	{
		LL_1khz_control_input.system_flags |= SF_WAYPOINT_MODE;
     9cc:	e1db30b0 	ldrh	r3, [fp]

		//check if new command should be send

		if (wpCtrlWpCmdUpdated) {
     9d0:	e5dc2000 	ldrb	r2, [ip]
		LL_1khz_control_input.roll = WO_CTRL_Input.roll;
		LL_1khz_control_input.yaw = WO_CTRL_Input.yaw;
		LL_1khz_control_input.thrust = WO_CTRL_Input.thrust;
	} else if (WO_SDK.ctrl_mode == 0x03) //gps waypoint control
	{
		LL_1khz_control_input.system_flags |= SF_WAYPOINT_MODE;
     9d4:	e59fa324 	ldr	sl, [pc, #804]	; d00 <IRQ_Stack_Size+0x500>
     9d8:	e3833040 	orr	r3, r3, #64	; 0x40

		//check if new command should be send

		if (wpCtrlWpCmdUpdated) {
     9dc:	e3520000 	cmp	r2, #0
		LL_1khz_control_input.roll = WO_CTRL_Input.roll;
		LL_1khz_control_input.yaw = WO_CTRL_Input.yaw;
		LL_1khz_control_input.thrust = WO_CTRL_Input.thrust;
	} else if (WO_SDK.ctrl_mode == 0x03) //gps waypoint control
	{
		LL_1khz_control_input.system_flags |= SF_WAYPOINT_MODE;
     9e0:	e1cb30b0 	strh	r3, [fp]
				LL_1khz_control_input.ctrl_flags &= 0x00FF;
				LL_1khz_control_input.ctrl_flags |= wpCtrlWpCmd << 8;
				wpCtrlWpCmdUpdated = 0;
			}
		} else {
			LL_1khz_control_input.ctrl_flags &= 0x00FF;
     9e4:	05da3002 	ldrbeq	r3, [sl, #2]
     9e8:	01ca30b2 	strheq	r3, [sl, #2]
	{
		LL_1khz_control_input.system_flags |= SF_WAYPOINT_MODE;

		//check if new command should be send

		if (wpCtrlWpCmdUpdated) {
     9ec:	0affff01 	beq	5f8 <HL2LL_write_cycle+0x1d4>

			if (wpCtrlWpCmd == WP_CMD_SINGLE_WP) {
     9f0:	e59f33ac 	ldr	r3, [pc, #940]	; da4 <IRQ_Stack_Size+0x5a4>
     9f4:	e5d31000 	ldrb	r1, [r3]
     9f8:	e3510001 	cmp	r1, #1
     9fc:	0a000054 	beq	b54 <IRQ_Stack_Size+0x354>
					LL_1khz_control_input.direct_motor_control[7] = 0;
					wpCtrlWpCmdUpdated = 0;
					wpCtrlNavStatus = 0;
				}
			} else {
				LL_1khz_control_input.ctrl_flags &= 0x00FF;
     a00:	e5da3002 	ldrb	r3, [sl, #2]
				LL_1khz_control_input.ctrl_flags |= wpCtrlWpCmd << 8;
				wpCtrlWpCmdUpdated = 0;
     a04:	e59fc394 	ldr	ip, [pc, #916]	; da0 <IRQ_Stack_Size+0x5a0>
					wpCtrlWpCmdUpdated = 0;
					wpCtrlNavStatus = 0;
				}
			} else {
				LL_1khz_control_input.ctrl_flags &= 0x00FF;
				LL_1khz_control_input.ctrl_flags |= wpCtrlWpCmd << 8;
     a08:	e1833401 	orr	r3, r3, r1, lsl #8
				wpCtrlWpCmdUpdated = 0;
     a0c:	e3a02000 	mov	r2, #0
					wpCtrlWpCmdUpdated = 0;
					wpCtrlNavStatus = 0;
				}
			} else {
				LL_1khz_control_input.ctrl_flags &= 0x00FF;
				LL_1khz_control_input.ctrl_flags |= wpCtrlWpCmd << 8;
     a10:	e1ca30b2 	strh	r3, [sl, #2]
				wpCtrlWpCmdUpdated = 0;
     a14:	e5cc2000 	strb	r2, [ip]
     a18:	eafffef6 	b	5f8 <HL2LL_write_cycle+0x1d4>
					= estimatedInclination;

		} else if (transmitBuildInfoTrigger == 1) {
			transmitBuildInfoTrigger = 2;
			transmitCnt = 0;
			transmitPtr = (unsigned char *) &buildInfo.version_major;
     a1c:	e59f1384 	ldr	r1, [pc, #900]	; da8 <IRQ_Stack_Size+0x5a8>
			LL_1khz_control_input.slowDataChannelSelect = SDC_INCLINATION;
			LL_1khz_control_input.slowDataChannelDataShort
					= estimatedInclination;

		} else if (transmitBuildInfoTrigger == 1) {
			transmitBuildInfoTrigger = 2;
     a20:	e3a03002 	mov	r3, #2
			transmitCnt = 0;
			transmitPtr = (unsigned char *) &buildInfo.version_major;
			LL_1khz_control_input.slowDataChannelSelect = SDC_BUILDINFO;
			LL_1khz_control_input.slowDataChannelDataShort = transmitCnt;
			LL_1khz_control_input.slowDataChannelDataChar = *transmitPtr;
     a24:	e4d12001 	ldrb	r2, [r1], #1
			LL_1khz_control_input.slowDataChannelSelect = SDC_INCLINATION;
			LL_1khz_control_input.slowDataChannelDataShort
					= estimatedInclination;

		} else if (transmitBuildInfoTrigger == 1) {
			transmitBuildInfoTrigger = 2;
     a28:	e5c43000 	strb	r3, [r4]
			transmitCnt = 0;
			transmitPtr = (unsigned char *) &buildInfo.version_major;
			LL_1khz_control_input.slowDataChannelSelect = SDC_BUILDINFO;
			LL_1khz_control_input.slowDataChannelDataShort = transmitCnt;
			LL_1khz_control_input.slowDataChannelDataChar = *transmitPtr;
			transmitPtr++;
     a2c:	e59f3378 	ldr	r3, [pc, #888]	; dac <IRQ_Stack_Size+0x5ac>
			transmitBuildInfoTrigger = 2;
			transmitCnt = 0;
			transmitPtr = (unsigned char *) &buildInfo.version_major;
			LL_1khz_control_input.slowDataChannelSelect = SDC_BUILDINFO;
			LL_1khz_control_input.slowDataChannelDataShort = transmitCnt;
			LL_1khz_control_input.slowDataChannelDataChar = *transmitPtr;
     a30:	e5ce2035 	strb	r2, [lr, #53]	; 0x35
			transmitPtr++;
			transmitCnt++;
     a34:	e59f2374 	ldr	r2, [pc, #884]	; db0 <IRQ_Stack_Size+0x5b0>
			transmitCnt = 0;
			transmitPtr = (unsigned char *) &buildInfo.version_major;
			LL_1khz_control_input.slowDataChannelSelect = SDC_BUILDINFO;
			LL_1khz_control_input.slowDataChannelDataShort = transmitCnt;
			LL_1khz_control_input.slowDataChannelDataChar = *transmitPtr;
			transmitPtr++;
     a38:	e5831000 	str	r1, [r3]

		} else if (transmitBuildInfoTrigger == 1) {
			transmitBuildInfoTrigger = 2;
			transmitCnt = 0;
			transmitPtr = (unsigned char *) &buildInfo.version_major;
			LL_1khz_control_input.slowDataChannelSelect = SDC_BUILDINFO;
     a3c:	e3a03005 	mov	r3, #5
			LL_1khz_control_input.slowDataChannelDataShort = transmitCnt;
     a40:	e3a01000 	mov	r1, #0
			LL_1khz_control_input.slowDataChannelDataChar = *transmitPtr;
			transmitPtr++;
			transmitCnt++;
     a44:	e1c200b0 	strh	r0, [r2]

		} else if (transmitBuildInfoTrigger == 1) {
			transmitBuildInfoTrigger = 2;
			transmitCnt = 0;
			transmitPtr = (unsigned char *) &buildInfo.version_major;
			LL_1khz_control_input.slowDataChannelSelect = SDC_BUILDINFO;
     a48:	e5ce3034 	strb	r3, [lr, #52]	; 0x34
			LL_1khz_control_input.slowDataChannelDataShort = transmitCnt;
     a4c:	e1ce13b6 	strh	r1, [lr, #54]	; 0x36
     a50:	eafffed1 	b	59c <HL2LL_write_cycle+0x178>
			transmitPtr++;
			transmitCnt++;

		} else if (transmitBuildInfoTrigger == 2) {
			LL_1khz_control_input.slowDataChannelSelect = SDC_BUILDINFO;
			LL_1khz_control_input.slowDataChannelDataShort = transmitCnt;
     a54:	e59fc354 	ldr	ip, [pc, #852]	; db0 <IRQ_Stack_Size+0x5b0>
     a58:	e1dc30b0 	ldrh	r3, [ip]
			LL_1khz_control_input.slowDataChannelDataChar = *transmitPtr;
     a5c:	e59f0348 	ldr	r0, [pc, #840]	; dac <IRQ_Stack_Size+0x5ac>
			LL_1khz_control_input.slowDataChannelDataChar = *transmitPtr;
			transmitPtr++;
			transmitCnt++;

		} else if (transmitBuildInfoTrigger == 2) {
			LL_1khz_control_input.slowDataChannelSelect = SDC_BUILDINFO;
     a60:	e3a02005 	mov	r2, #5
			LL_1khz_control_input.slowDataChannelDataShort = transmitCnt;
     a64:	e1ce33b6 	strh	r3, [lr, #54]	; 0x36
			LL_1khz_control_input.slowDataChannelDataChar = *transmitPtr;
			transmitPtr++;
			transmitCnt++;
     a68:	e2833001 	add	r3, r3, #1
			LL_1khz_control_input.slowDataChannelDataChar = *transmitPtr;
			transmitPtr++;
			transmitCnt++;

		} else if (transmitBuildInfoTrigger == 2) {
			LL_1khz_control_input.slowDataChannelSelect = SDC_BUILDINFO;
     a6c:	e5ce2034 	strb	r2, [lr, #52]	; 0x34
			LL_1khz_control_input.slowDataChannelDataShort = transmitCnt;
			LL_1khz_control_input.slowDataChannelDataChar = *transmitPtr;
			transmitPtr++;
			transmitCnt++;
     a70:	e1a03803 	lsl	r3, r3, #16
			transmitCnt++;

		} else if (transmitBuildInfoTrigger == 2) {
			LL_1khz_control_input.slowDataChannelSelect = SDC_BUILDINFO;
			LL_1khz_control_input.slowDataChannelDataShort = transmitCnt;
			LL_1khz_control_input.slowDataChannelDataChar = *transmitPtr;
     a74:	e5902000 	ldr	r2, [r0]
			transmitPtr++;
			transmitCnt++;
     a78:	e1a03823 	lsr	r3, r3, #16
			transmitCnt++;

		} else if (transmitBuildInfoTrigger == 2) {
			LL_1khz_control_input.slowDataChannelSelect = SDC_BUILDINFO;
			LL_1khz_control_input.slowDataChannelDataShort = transmitCnt;
			LL_1khz_control_input.slowDataChannelDataChar = *transmitPtr;
     a7c:	e4d21001 	ldrb	r1, [r2], #1
			transmitPtr++;
			transmitCnt++;

			if (transmitCnt == sizeof(buildInfo))
     a80:	e3530053 	cmp	r3, #83	; 0x53
		} else if (transmitBuildInfoTrigger == 2) {
			LL_1khz_control_input.slowDataChannelSelect = SDC_BUILDINFO;
			LL_1khz_control_input.slowDataChannelDataShort = transmitCnt;
			LL_1khz_control_input.slowDataChannelDataChar = *transmitPtr;
			transmitPtr++;
			transmitCnt++;
     a84:	e1cc30b0 	strh	r3, [ip]

			if (transmitCnt == sizeof(buildInfo))
				transmitBuildInfoTrigger = 3;
     a88:	02433050 	subeq	r3, r3, #80	; 0x50
			transmitCnt++;

		} else if (transmitBuildInfoTrigger == 2) {
			LL_1khz_control_input.slowDataChannelSelect = SDC_BUILDINFO;
			LL_1khz_control_input.slowDataChannelDataShort = transmitCnt;
			LL_1khz_control_input.slowDataChannelDataChar = *transmitPtr;
     a8c:	e5ce1035 	strb	r1, [lr, #53]	; 0x35
			transmitPtr++;
     a90:	e5802000 	str	r2, [r0]
			transmitCnt++;

			if (transmitCnt == sizeof(buildInfo))
				transmitBuildInfoTrigger = 3;
     a94:	05c43000 	strbeq	r3, [r4]
     a98:	eafffebf 	b	59c <HL2LL_write_cycle+0x178>
				//data fields are used for jeti commands
				if (jetiValuePartialSyncPending == 1) {
					jetiValuePartialSyncPending = 0;
					LL_1khz_control_input.status = PD_JETI_SETSENSOR2;

					LL_1khz_control_input.height
     a9c:	e59fa2b8 	ldr	sl, [pc, #696]	; d5c <IRQ_Stack_Size+0x55c>
     aa0:	e5da3000 	ldrb	r3, [sl]
     aa4:	e59f42b4 	ldr	r4, [pc, #692]	; d60 <IRQ_Stack_Size+0x560>
     aa8:	e0832103 	add	r2, r3, r3, lsl #2
     aac:	e0833082 	add	r3, r3, r2, lsl #1
     ab0:	e7d4c083 	ldrb	ip, [r4, r3, lsl #1]
							= jetiValues[jetiSensorCnt].active;
					memcpy(&LL_1khz_control_input.latitude,
     ab4:	e0841083 	add	r1, r4, r3, lsl #1
				LL_1khz_control_input.status = 0;

				//data fields are used for jeti commands
				if (jetiValuePartialSyncPending == 1) {
					jetiValuePartialSyncPending = 0;
					LL_1khz_control_input.status = PD_JETI_SETSENSOR2;
     ab8:	e3a030a6 	mov	r3, #166	; 0xa6

					LL_1khz_control_input.height
							= jetiValues[jetiSensorCnt].active;
					memcpy(&LL_1khz_control_input.latitude,
     abc:	e281100b 	add	r1, r1, #11
     ac0:	e3a02004 	mov	r2, #4
				//data fields are used for jeti commands
				if (jetiValuePartialSyncPending == 1) {
					jetiValuePartialSyncPending = 0;
					LL_1khz_control_input.status = PD_JETI_SETSENSOR2;

					LL_1khz_control_input.height
     ac4:	e585c01c 	str	ip, [r5, #28]
				LL_1khz_control_input.status = 0;

				//data fields are used for jeti commands
				if (jetiValuePartialSyncPending == 1) {
					jetiValuePartialSyncPending = 0;
					LL_1khz_control_input.status = PD_JETI_SETSENSOR2;
     ac8:	e1c532b4 	strh	r3, [r5, #36]	; 0x24

					LL_1khz_control_input.height
							= jetiValues[jetiSensorCnt].active;
					memcpy(&LL_1khz_control_input.latitude,
     acc:	e2850014 	add	r0, r5, #20
				//default is no command
				LL_1khz_control_input.status = 0;

				//data fields are used for jeti commands
				if (jetiValuePartialSyncPending == 1) {
					jetiValuePartialSyncPending = 0;
     ad0:	e5c69000 	strb	r9, [r6]
					LL_1khz_control_input.status = PD_JETI_SETSENSOR2;

					LL_1khz_control_input.height
							= jetiValues[jetiSensorCnt].active;
					memcpy(&LL_1khz_control_input.latitude,
     ad4:	eb003369 	bl	d880 <__memcpy_from_arm>
							&jetiValues[jetiSensorCnt].unit[0], 4);
					LL_1khz_control_input.speed_x
     ad8:	e5da1000 	ldrb	r1, [sl]
     adc:	e0813101 	add	r3, r1, r1, lsl #2
     ae0:	e0813083 	add	r3, r1, r3, lsl #1
     ae4:	e0844083 	add	r4, r4, r3, lsl #1
							= jetiValues[jetiSensorCnt].unit[4];
					LL_1khz_control_input.speed_y
     ae8:	e2842010 	add	r2, r4, #16
							= jetiValues[jetiSensorCnt].varType;
					LL_1khz_control_input.longitude
     aec:	e5d20003 	ldrb	r0, [r2, #3]
     af0:	e5d23002 	ldrb	r3, [r2, #2]
     af4:	e5d2c004 	ldrb	ip, [r2, #4]
							= jetiValues[jetiSensorCnt].value;
					jetiSensorCnt++;
     af8:	e2811001 	add	r1, r1, #1
							&jetiValues[jetiSensorCnt].unit[0], 4);
					LL_1khz_control_input.speed_x
							= jetiValues[jetiSensorCnt].unit[4];
					LL_1khz_control_input.speed_y
							= jetiValues[jetiSensorCnt].varType;
					LL_1khz_control_input.longitude
     afc:	e5d2e005 	ldrb	lr, [r2, #5]
							= jetiValues[jetiSensorCnt].value;
					jetiSensorCnt++;
     b00:	e20110ff 	and	r1, r1, #255	; 0xff
							&jetiValues[jetiSensorCnt].unit[0], 4);
					LL_1khz_control_input.speed_x
							= jetiValues[jetiSensorCnt].unit[4];
					LL_1khz_control_input.speed_y
							= jetiValues[jetiSensorCnt].varType;
					LL_1khz_control_input.longitude
     b04:	e1833400 	orr	r3, r3, r0, lsl #8

					LL_1khz_control_input.height
							= jetiValues[jetiSensorCnt].active;
					memcpy(&LL_1khz_control_input.latitude,
							&jetiValues[jetiSensorCnt].unit[0], 4);
					LL_1khz_control_input.speed_x
     b08:	e5d4200f 	ldrb	r2, [r4, #15]
							= jetiValues[jetiSensorCnt].unit[4];
					LL_1khz_control_input.speed_y
     b0c:	e5d40010 	ldrb	r0, [r4, #16]
							= jetiValues[jetiSensorCnt].varType;
					LL_1khz_control_input.longitude
							= jetiValues[jetiSensorCnt].value;
					jetiSensorCnt++;
					if (jetiSensorCnt == 15) {
     b10:	e351000f 	cmp	r1, #15
							= jetiValues[jetiSensorCnt].unit[4];
					LL_1khz_control_input.speed_y
							= jetiValues[jetiSensorCnt].varType;
					LL_1khz_control_input.longitude
							= jetiValues[jetiSensorCnt].value;
					jetiSensorCnt++;
     b14:	e5ca1000 	strb	r1, [sl]
							&jetiValues[jetiSensorCnt].unit[0], 4);
					LL_1khz_control_input.speed_x
							= jetiValues[jetiSensorCnt].unit[4];
					LL_1khz_control_input.speed_y
							= jetiValues[jetiSensorCnt].varType;
					LL_1khz_control_input.longitude
     b18:	e183380c 	orr	r3, r3, ip, lsl #16
							= jetiValues[jetiSensorCnt].value;
					jetiSensorCnt++;
					if (jetiSensorCnt == 15) {
						jetiSensorCnt = 0;
					}
					jetiSyncState++;
     b1c:	e59f1204 	ldr	r1, [pc, #516]	; d28 <IRQ_Stack_Size+0x528>
							&jetiValues[jetiSensorCnt].unit[0], 4);
					LL_1khz_control_input.speed_x
							= jetiValues[jetiSensorCnt].unit[4];
					LL_1khz_control_input.speed_y
							= jetiValues[jetiSensorCnt].varType;
					LL_1khz_control_input.longitude
     b20:	e1833c0e 	orr	r3, r3, lr, lsl #24
     b24:	e5853018 	str	r3, [r5, #24]
							= jetiValues[jetiSensorCnt].value;
					jetiSensorCnt++;
					if (jetiSensorCnt == 15) {
						jetiSensorCnt = 0;
					}
					jetiSyncState++;
     b28:	e5d13000 	ldrb	r3, [r1]
     b2c:	e2833001 	add	r3, r3, #1

					LL_1khz_control_input.height
							= jetiValues[jetiSensorCnt].active;
					memcpy(&LL_1khz_control_input.latitude,
							&jetiValues[jetiSensorCnt].unit[0], 4);
					LL_1khz_control_input.speed_x
     b30:	e1c522b0 	strh	r2, [r5, #32]
							= jetiValues[jetiSensorCnt].value;
					jetiSensorCnt++;
					if (jetiSensorCnt == 15) {
						jetiSensorCnt = 0;
					}
					jetiSyncState++;
     b34:	e5c13000 	strb	r3, [r1]
					jetiSensorValCnt = 0;
					jetiSensorValUpdateTimeout = 0;
     b38:	e59f2224 	ldr	r2, [pc, #548]	; d64 <IRQ_Stack_Size+0x564>
					jetiSensorCnt++;
					if (jetiSensorCnt == 15) {
						jetiSensorCnt = 0;
					}
					jetiSyncState++;
					jetiSensorValCnt = 0;
     b3c:	e59f3224 	ldr	r3, [pc, #548]	; d68 <IRQ_Stack_Size+0x568>
							= jetiValues[jetiSensorCnt].active;
					memcpy(&LL_1khz_control_input.latitude,
							&jetiValues[jetiSensorCnt].unit[0], 4);
					LL_1khz_control_input.speed_x
							= jetiValues[jetiSensorCnt].unit[4];
					LL_1khz_control_input.speed_y
     b40:	e1c502b2 	strh	r0, [r5, #34]	; 0x22
							= jetiValues[jetiSensorCnt].varType;
					LL_1khz_control_input.longitude
							= jetiValues[jetiSensorCnt].value;
					jetiSensorCnt++;
					if (jetiSensorCnt == 15) {
						jetiSensorCnt = 0;
     b44:	05ca9000 	strbeq	r9, [sl]
					}
					jetiSyncState++;
					jetiSensorValCnt = 0;
					jetiSensorValUpdateTimeout = 0;
     b48:	e5c29000 	strb	r9, [r2]
					jetiSensorCnt++;
					if (jetiSensorCnt == 15) {
						jetiSensorCnt = 0;
					}
					jetiSyncState++;
					jetiSensorValCnt = 0;
     b4c:	e5c39000 	strb	r9, [r3]
     b50:	eafffece 	b	690 <HL2LL_write_cycle+0x26c>
		//check if new command should be send

		if (wpCtrlWpCmdUpdated) {

			if (wpCtrlWpCmd == WP_CMD_SINGLE_WP) {
				if (wpCtrlWpCmdUpdated == 1) {
     b54:	e3520001 	cmp	r2, #1
     b58:	0a00003d 	beq	c54 <IRQ_Stack_Size+0x454>
							>> 16;
					LL_1khz_control_input.direct_motor_control[7] = wpToLL.yaw
							>> 24;

					wpCtrlWpCmdUpdated++;
				} else if (wpCtrlWpCmdUpdated == 2) {
     b5c:	e3520002 	cmp	r2, #2
     b60:	1afffea4 	bne	5f8 <HL2LL_write_cycle+0x1d4>
							= wpToLL.wp_activated;
					LL_1khz_control_input.direct_motor_control[4] = 0;
					LL_1khz_control_input.direct_motor_control[5] = 0;
					LL_1khz_control_input.direct_motor_control[6] = 0;
					LL_1khz_control_input.direct_motor_control[7] = 0;
					wpCtrlWpCmdUpdated = 0;
     b64:	e59f3234 	ldr	r3, [pc, #564]	; da0 <IRQ_Stack_Size+0x5a0>
					LL_1khz_control_input.ctrl_flags &= 0x00FF;
					LL_1khz_control_input.ctrl_flags |= WP_CMD_SINGLE_WP_PART2
							<< 8;

					LL_1khz_control_input.pitch = wpToLL.time;
					LL_1khz_control_input.roll = 0; //wpToLL.cam_angle_pitch;
     b68:	e3a0c000 	mov	ip, #0
							>> 24;

					wpCtrlWpCmdUpdated++;
				} else if (wpCtrlWpCmdUpdated == 2) {
					LL_1khz_control_input.ctrl_flags &= 0x00FF;
					LL_1khz_control_input.ctrl_flags |= WP_CMD_SINGLE_WP_PART2
     b6c:	e5da2002 	ldrb	r2, [sl, #2]
							<< 8;

					LL_1khz_control_input.pitch = wpToLL.time;
     b70:	e59f123c 	ldr	r1, [pc, #572]	; db4 <IRQ_Stack_Size+0x5b4>
							= wpToLL.wp_activated;
					LL_1khz_control_input.direct_motor_control[4] = 0;
					LL_1khz_control_input.direct_motor_control[5] = 0;
					LL_1khz_control_input.direct_motor_control[6] = 0;
					LL_1khz_control_input.direct_motor_control[7] = 0;
					wpCtrlWpCmdUpdated = 0;
     b74:	e5c3c000 	strb	ip, [r3]
					wpCtrlNavStatus = 0;
     b78:	e59f3238 	ldr	r3, [pc, #568]	; db8 <IRQ_Stack_Size+0x5b8>
							>> 24;

					wpCtrlWpCmdUpdated++;
				} else if (wpCtrlWpCmdUpdated == 2) {
					LL_1khz_control_input.ctrl_flags &= 0x00FF;
					LL_1khz_control_input.ctrl_flags |= WP_CMD_SINGLE_WP_PART2
     b7c:	e3822c82 	orr	r2, r2, #33280	; 0x8200
					LL_1khz_control_input.direct_motor_control[0] = 0; //wpToLL.cam_angle_roll;
					LL_1khz_control_input.direct_motor_control[1]
							= wpToLL.max_speed;
					LL_1khz_control_input.direct_motor_control[2]
							= wpToLL.properties;
					LL_1khz_control_input.direct_motor_control[3]
     b80:	e5915000 	ldr	r5, [r1]
					LL_1khz_control_input.pitch = wpToLL.time;
					LL_1khz_control_input.roll = 0; //wpToLL.cam_angle_pitch;
					LL_1khz_control_input.thrust = wpToLL.pos_acc;
					LL_1khz_control_input.yaw = wpToLL.chksum;
					LL_1khz_control_input.direct_motor_control[0] = 0; //wpToLL.cam_angle_roll;
					LL_1khz_control_input.direct_motor_control[1]
     b84:	e5d1e005 	ldrb	lr, [r1, #5]
							= wpToLL.max_speed;
					LL_1khz_control_input.direct_motor_control[2]
     b88:	e5d14004 	ldrb	r4, [r1, #4]
					LL_1khz_control_input.direct_motor_control[4] = 0;
					LL_1khz_control_input.direct_motor_control[5] = 0;
					LL_1khz_control_input.direct_motor_control[6] = 0;
					LL_1khz_control_input.direct_motor_control[7] = 0;
					wpCtrlWpCmdUpdated = 0;
					wpCtrlNavStatus = 0;
     b8c:	e1c3c0b0 	strh	ip, [r3]
							>> 24;

					wpCtrlWpCmdUpdated++;
				} else if (wpCtrlWpCmdUpdated == 2) {
					LL_1khz_control_input.ctrl_flags &= 0x00FF;
					LL_1khz_control_input.ctrl_flags |= WP_CMD_SINGLE_WP_PART2
     b90:	e1ca20b2 	strh	r2, [sl, #2]
							<< 8;

					LL_1khz_control_input.pitch = wpToLL.time;
					LL_1khz_control_input.roll = 0; //wpToLL.cam_angle_pitch;
					LL_1khz_control_input.thrust = wpToLL.pos_acc;
     b94:	e1d130b8 	ldrh	r3, [r1, #8]
				} else if (wpCtrlWpCmdUpdated == 2) {
					LL_1khz_control_input.ctrl_flags &= 0x00FF;
					LL_1khz_control_input.ctrl_flags |= WP_CMD_SINGLE_WP_PART2
							<< 8;

					LL_1khz_control_input.pitch = wpToLL.time;
     b98:	e1d120b6 	ldrh	r2, [r1, #6]
					LL_1khz_control_input.roll = 0; //wpToLL.cam_angle_pitch;
					LL_1khz_control_input.thrust = wpToLL.pos_acc;
					LL_1khz_control_input.yaw = wpToLL.chksum;
     b9c:	e1d110ba 	ldrh	r1, [r1, #10]
					LL_1khz_control_input.direct_motor_control[0] = 0; //wpToLL.cam_angle_roll;
					LL_1khz_control_input.direct_motor_control[1]
     ba0:	e5cae00d 	strb	lr, [sl, #13]
							= wpToLL.max_speed;
					LL_1khz_control_input.direct_motor_control[2]
     ba4:	e5ca400e 	strb	r4, [sl, #14]
							= wpToLL.properties;
					LL_1khz_control_input.direct_motor_control[3]
     ba8:	e5ca500f 	strb	r5, [sl, #15]
							= wpToLL.wp_activated;
					LL_1khz_control_input.direct_motor_control[4] = 0;
					LL_1khz_control_input.direct_motor_control[5] = 0;
					LL_1khz_control_input.direct_motor_control[6] = 0;
					LL_1khz_control_input.direct_motor_control[7] = 0;
     bac:	e5cac013 	strb	ip, [sl, #19]
				} else if (wpCtrlWpCmdUpdated == 2) {
					LL_1khz_control_input.ctrl_flags &= 0x00FF;
					LL_1khz_control_input.ctrl_flags |= WP_CMD_SINGLE_WP_PART2
							<< 8;

					LL_1khz_control_input.pitch = wpToLL.time;
     bb0:	e1ca20b4 	strh	r2, [sl, #4]
					LL_1khz_control_input.roll = 0; //wpToLL.cam_angle_pitch;
     bb4:	e1cac0b6 	strh	ip, [sl, #6]
					LL_1khz_control_input.thrust = wpToLL.pos_acc;
     bb8:	e1ca30ba 	strh	r3, [sl, #10]
					LL_1khz_control_input.yaw = wpToLL.chksum;
     bbc:	e1ca10b8 	strh	r1, [sl, #8]
					LL_1khz_control_input.direct_motor_control[0] = 0; //wpToLL.cam_angle_roll;
     bc0:	e5cac00c 	strb	ip, [sl, #12]
							= wpToLL.max_speed;
					LL_1khz_control_input.direct_motor_control[2]
							= wpToLL.properties;
					LL_1khz_control_input.direct_motor_control[3]
							= wpToLL.wp_activated;
					LL_1khz_control_input.direct_motor_control[4] = 0;
     bc4:	e5cac010 	strb	ip, [sl, #16]
					LL_1khz_control_input.direct_motor_control[5] = 0;
     bc8:	e5cac011 	strb	ip, [sl, #17]
					LL_1khz_control_input.direct_motor_control[6] = 0;
     bcc:	e5cac012 	strb	ip, [sl, #18]
     bd0:	eafffe88 	b	5f8 <HL2LL_write_cycle+0x1d4>
						jetiSyncState++;
						break;
					case 2:
						//sync complete sensor fields
						if (jetiValues[jetiSensorCnt].active) {
							LL_1khz_control_input.status = PD_JETI_SETSENSOR;
     bd4:	e3a030a1 	mov	r3, #161	; 0xa1
							LL_1khz_control_input.height
     bd8:	e58bc01c 	str	ip, [fp, #28]
									= jetiValues[jetiSensorCnt].active;
							memcpy(&LL_1khz_control_input.latitude,
     bdc:	e2811001 	add	r1, r1, #1
     be0:	e3a02004 	mov	r2, #4
						jetiSyncState++;
						break;
					case 2:
						//sync complete sensor fields
						if (jetiValues[jetiSensorCnt].active) {
							LL_1khz_control_input.status = PD_JETI_SETSENSOR;
     be4:	e1cb32b4 	strh	r3, [fp, #36]	; 0x24
							LL_1khz_control_input.height
									= jetiValues[jetiSensorCnt].active;
							memcpy(&LL_1khz_control_input.latitude,
     be8:	e59f0150 	ldr	r0, [pc, #336]	; d40 <IRQ_Stack_Size+0x540>
     bec:	eb003323 	bl	d880 <__memcpy_from_arm>
									&jetiValues[jetiSensorCnt].name[0], 4);
							memcpy(&LL_1khz_control_input.longitude,
     bf0:	e5d51000 	ldrb	r1, [r5]
     bf4:	e0813101 	add	r3, r1, r1, lsl #2
     bf8:	e0811083 	add	r1, r1, r3, lsl #1
     bfc:	e0841081 	add	r1, r4, r1, lsl #1
     c00:	e2811005 	add	r1, r1, #5
     c04:	e3a02004 	mov	r2, #4
     c08:	e59f0138 	ldr	r0, [pc, #312]	; d48 <IRQ_Stack_Size+0x548>
     c0c:	eb00331b 	bl	d880 <__memcpy_from_arm>
									&jetiValues[jetiSensorCnt].name[4], 4);
							memcpy(&LL_1khz_control_input.speed_x,
     c10:	e5d51000 	ldrb	r1, [r5]
     c14:	e0813101 	add	r3, r1, r1, lsl #2
     c18:	e0811083 	add	r1, r1, r3, lsl #1
     c1c:	e0841081 	add	r1, r4, r1, lsl #1
     c20:	e3a02002 	mov	r2, #2
     c24:	e2811009 	add	r1, r1, #9
     c28:	e59f011c 	ldr	r0, [pc, #284]	; d4c <IRQ_Stack_Size+0x54c>
     c2c:	eb003313 	bl	d880 <__memcpy_from_arm>
									&jetiValues[jetiSensorCnt].name[8], 2);
							LL_1khz_control_input.speed_y
     c30:	e5d53000 	ldrb	r3, [r5]
     c34:	e0832103 	add	r2, r3, r3, lsl #2
     c38:	e0833082 	add	r3, r3, r2, lsl #1
     c3c:	e0843083 	add	r3, r4, r3, lsl #1
     c40:	e5d32011 	ldrb	r2, [r3, #17]
									= jetiValues[jetiSensorCnt].decPoint;
							jetiValuePartialSyncPending = 1;
     c44:	e3a03001 	mov	r3, #1
									&jetiValues[jetiSensorCnt].name[0], 4);
							memcpy(&LL_1khz_control_input.longitude,
									&jetiValues[jetiSensorCnt].name[4], 4);
							memcpy(&LL_1khz_control_input.speed_x,
									&jetiValues[jetiSensorCnt].name[8], 2);
							LL_1khz_control_input.speed_y
     c48:	e1cb22b2 	strh	r2, [fp, #34]	; 0x22
									= jetiValues[jetiSensorCnt].decPoint;
							jetiValuePartialSyncPending = 1;
     c4c:	e5c63000 	strb	r3, [r6]
     c50:	eafffe8e 	b	690 <HL2LL_write_cycle+0x26c>
				if (wpCtrlWpCmdUpdated == 1) {
					LL_1khz_control_input.ctrl_flags &= 0x00FF;
					LL_1khz_control_input.ctrl_flags |= WP_CMD_SINGLE_WP_PART1
							<< 8;

					LL_1khz_control_input.pitch = wpToLL.X & 0xFFFF;
     c54:	e59f3158 	ldr	r3, [pc, #344]	; db4 <IRQ_Stack_Size+0x5b4>
					LL_1khz_control_input.roll = wpToLL.X >> 16;
					LL_1khz_control_input.thrust = wpToLL.Y & 0xFFFF;
					LL_1khz_control_input.yaw = wpToLL.Y >> 16;
					LL_1khz_control_input.direct_motor_control[0]
     c58:	e2830014 	add	r0, r3, #20
     c5c:	e8901001 	ldm	r0, {r0, ip}
					LL_1khz_control_input.ctrl_flags |= WP_CMD_SINGLE_WP_PART1
							<< 8;

					LL_1khz_control_input.pitch = wpToLL.X & 0xFFFF;
					LL_1khz_control_input.roll = wpToLL.X >> 16;
					LL_1khz_control_input.thrust = wpToLL.Y & 0xFFFF;
     c60:	e283500c 	add	r5, r3, #12
     c64:	e8950060 	ldm	r5, {r5, r6}
							= wpToLL.height;
					LL_1khz_control_input.direct_motor_control[1]
							= wpToLL.height >> 8;
					LL_1khz_control_input.direct_motor_control[2]
							= wpToLL.height >> 16;
					LL_1khz_control_input.direct_motor_control[3]
     c68:	e1a03c4c 	asr	r3, ip, #24
     c6c:	e58d3008 	str	r3, [sp, #8]
							<< 8;

					LL_1khz_control_input.pitch = wpToLL.X & 0xFFFF;
					LL_1khz_control_input.roll = wpToLL.X >> 16;
					LL_1khz_control_input.thrust = wpToLL.Y & 0xFFFF;
					LL_1khz_control_input.yaw = wpToLL.Y >> 16;
     c70:	e1a01846 	asr	r1, r6, #16
					LL_1khz_control_input.direct_motor_control[2]
							= wpToLL.height >> 16;
					LL_1khz_control_input.direct_motor_control[3]
							= wpToLL.height >> 24;
					LL_1khz_control_input.direct_motor_control[4] = wpToLL.yaw;
					LL_1khz_control_input.direct_motor_control[5] = wpToLL.yaw
     c74:	e1a03440 	asr	r3, r0, #8
							<< 8;

					LL_1khz_control_input.pitch = wpToLL.X & 0xFFFF;
					LL_1khz_control_input.roll = wpToLL.X >> 16;
					LL_1khz_control_input.thrust = wpToLL.Y & 0xFFFF;
					LL_1khz_control_input.yaw = wpToLL.Y >> 16;
     c78:	e58d100c 	str	r1, [sp, #12]
					LL_1khz_control_input.direct_motor_control[2]
							= wpToLL.height >> 16;
					LL_1khz_control_input.direct_motor_control[3]
							= wpToLL.height >> 24;
					LL_1khz_control_input.direct_motor_control[4] = wpToLL.yaw;
					LL_1khz_control_input.direct_motor_control[5] = wpToLL.yaw
     c7c:	e58d3004 	str	r3, [sp, #4]
							>> 8;
					LL_1khz_control_input.direct_motor_control[6] = wpToLL.yaw
							>> 16;
					LL_1khz_control_input.direct_motor_control[7] = wpToLL.yaw
     c80:	e1a01c40 	asr	r1, r0, #24
					LL_1khz_control_input.direct_motor_control[3]
							= wpToLL.height >> 24;
					LL_1khz_control_input.direct_motor_control[4] = wpToLL.yaw;
					LL_1khz_control_input.direct_motor_control[5] = wpToLL.yaw
							>> 8;
					LL_1khz_control_input.direct_motor_control[6] = wpToLL.yaw
     c84:	e1a03840 	asr	r3, r0, #16
     c88:	e58d3000 	str	r3, [sp]
		if (wpCtrlWpCmdUpdated) {

			if (wpCtrlWpCmd == WP_CMD_SINGLE_WP) {
				if (wpCtrlWpCmdUpdated == 1) {
					LL_1khz_control_input.ctrl_flags &= 0x00FF;
					LL_1khz_control_input.ctrl_flags |= WP_CMD_SINGLE_WP_PART1
     c8c:	e5da2002 	ldrb	r2, [sl, #2]
					LL_1khz_control_input.direct_motor_control[4] = wpToLL.yaw;
					LL_1khz_control_input.direct_motor_control[5] = wpToLL.yaw
							>> 8;
					LL_1khz_control_input.direct_motor_control[6] = wpToLL.yaw
							>> 16;
					LL_1khz_control_input.direct_motor_control[7] = wpToLL.yaw
     c90:	e5ca1013 	strb	r1, [sl, #19]
							>> 24;

					wpCtrlWpCmdUpdated++;
     c94:	e59f1104 	ldr	r1, [pc, #260]	; da0 <IRQ_Stack_Size+0x5a0>
     c98:	e3a03002 	mov	r3, #2
     c9c:	e5c13000 	strb	r3, [r1]
		if (wpCtrlWpCmdUpdated) {

			if (wpCtrlWpCmd == WP_CMD_SINGLE_WP) {
				if (wpCtrlWpCmdUpdated == 1) {
					LL_1khz_control_input.ctrl_flags &= 0x00FF;
					LL_1khz_control_input.ctrl_flags |= WP_CMD_SINGLE_WP_PART1
     ca0:	e3822c81 	orr	r2, r2, #33024	; 0x8100
					LL_1khz_control_input.roll = wpToLL.X >> 16;
					LL_1khz_control_input.thrust = wpToLL.Y & 0xFFFF;
					LL_1khz_control_input.yaw = wpToLL.Y >> 16;
					LL_1khz_control_input.direct_motor_control[0]
							= wpToLL.height;
					LL_1khz_control_input.direct_motor_control[1]
     ca4:	e1a0e44c 	asr	lr, ip, #8
							= wpToLL.height >> 8;
					LL_1khz_control_input.direct_motor_control[2]
     ca8:	e1a0484c 	asr	r4, ip, #16
		if (wpCtrlWpCmdUpdated) {

			if (wpCtrlWpCmd == WP_CMD_SINGLE_WP) {
				if (wpCtrlWpCmdUpdated == 1) {
					LL_1khz_control_input.ctrl_flags &= 0x00FF;
					LL_1khz_control_input.ctrl_flags |= WP_CMD_SINGLE_WP_PART1
     cac:	e1ca20b2 	strh	r2, [sl, #2]
							<< 8;

					LL_1khz_control_input.pitch = wpToLL.X & 0xFFFF;
					LL_1khz_control_input.roll = wpToLL.X >> 16;
					LL_1khz_control_input.thrust = wpToLL.Y & 0xFFFF;
					LL_1khz_control_input.yaw = wpToLL.Y >> 16;
     cb0:	e59d200c 	ldr	r2, [sp, #12]
					LL_1khz_control_input.direct_motor_control[0]
							= wpToLL.height;
					LL_1khz_control_input.direct_motor_control[1]
     cb4:	e5cae00d 	strb	lr, [sl, #13]
							= wpToLL.height >> 8;
					LL_1khz_control_input.direct_motor_control[2]
     cb8:	e5ca400e 	strb	r4, [sl, #14]
							= wpToLL.height >> 16;
					LL_1khz_control_input.direct_motor_control[3]
     cbc:	e59d3008 	ldr	r3, [sp, #8]
     cc0:	e5ca300f 	strb	r3, [sl, #15]
							= wpToLL.height >> 24;
					LL_1khz_control_input.direct_motor_control[4] = wpToLL.yaw;
					LL_1khz_control_input.direct_motor_control[5] = wpToLL.yaw
     cc4:	e59d1004 	ldr	r1, [sp, #4]
     cc8:	e5ca1011 	strb	r1, [sl, #17]
							<< 8;

					LL_1khz_control_input.pitch = wpToLL.X & 0xFFFF;
					LL_1khz_control_input.roll = wpToLL.X >> 16;
					LL_1khz_control_input.thrust = wpToLL.Y & 0xFFFF;
					LL_1khz_control_input.yaw = wpToLL.Y >> 16;
     ccc:	e1ca20b8 	strh	r2, [sl, #8]
					LL_1khz_control_input.direct_motor_control[3]
							= wpToLL.height >> 24;
					LL_1khz_control_input.direct_motor_control[4] = wpToLL.yaw;
					LL_1khz_control_input.direct_motor_control[5] = wpToLL.yaw
							>> 8;
					LL_1khz_control_input.direct_motor_control[6] = wpToLL.yaw
     cd0:	e59d2000 	ldr	r2, [sp]
					LL_1khz_control_input.ctrl_flags &= 0x00FF;
					LL_1khz_control_input.ctrl_flags |= WP_CMD_SINGLE_WP_PART1
							<< 8;

					LL_1khz_control_input.pitch = wpToLL.X & 0xFFFF;
					LL_1khz_control_input.roll = wpToLL.X >> 16;
     cd4:	e1a07845 	asr	r7, r5, #16
     cd8:	e1ca70b6 	strh	r7, [sl, #6]
					LL_1khz_control_input.direct_motor_control[3]
							= wpToLL.height >> 24;
					LL_1khz_control_input.direct_motor_control[4] = wpToLL.yaw;
					LL_1khz_control_input.direct_motor_control[5] = wpToLL.yaw
							>> 8;
					LL_1khz_control_input.direct_motor_control[6] = wpToLL.yaw
     cdc:	e5ca2012 	strb	r2, [sl, #18]
				if (wpCtrlWpCmdUpdated == 1) {
					LL_1khz_control_input.ctrl_flags &= 0x00FF;
					LL_1khz_control_input.ctrl_flags |= WP_CMD_SINGLE_WP_PART1
							<< 8;

					LL_1khz_control_input.pitch = wpToLL.X & 0xFFFF;
     ce0:	e1ca50b4 	strh	r5, [sl, #4]
					LL_1khz_control_input.roll = wpToLL.X >> 16;
					LL_1khz_control_input.thrust = wpToLL.Y & 0xFFFF;
     ce4:	e1ca60ba 	strh	r6, [sl, #10]
					LL_1khz_control_input.yaw = wpToLL.Y >> 16;
					LL_1khz_control_input.direct_motor_control[0]
     ce8:	e5cac00c 	strb	ip, [sl, #12]
							= wpToLL.height >> 8;
					LL_1khz_control_input.direct_motor_control[2]
							= wpToLL.height >> 16;
					LL_1khz_control_input.direct_motor_control[3]
							= wpToLL.height >> 24;
					LL_1khz_control_input.direct_motor_control[4] = wpToLL.yaw;
     cec:	e5ca0010 	strb	r0, [sl, #16]
     cf0:	eafffe40 	b	5f8 <HL2LL_write_cycle+0x1d4>
     cf4:	4000000e 	.word	0x4000000e
     cf8:	40000988 	.word	0x40000988
     cfc:	40000985 	.word	0x40000985
     d00:	40001760 	.word	0x40001760
     d04:	40001828 	.word	0x40001828
     d08:	40000a44 	.word	0x40000a44
     d0c:	40001984 	.word	0x40001984
     d10:	400017b4 	.word	0x400017b4
     d14:	4000096e 	.word	0x4000096e
     d18:	4000098c 	.word	0x4000098c
     d1c:	400018d4 	.word	0x400018d4
     d20:	4000181c 	.word	0x4000181c
     d24:	40000984 	.word	0x40000984
     d28:	4000097b 	.word	0x4000097b
     d2c:	4000180c 	.word	0x4000180c
     d30:	40000a40 	.word	0x40000a40
     d34:	40001818 	.word	0x40001818
     d38:	40000a3c 	.word	0x40000a3c
     d3c:	40001ed2 	.word	0x40001ed2
     d40:	40001774 	.word	0x40001774
     d44:	40001ed6 	.word	0x40001ed6
     d48:	40001778 	.word	0x40001778
     d4c:	40001780 	.word	0x40001780
     d50:	40001eda 	.word	0x40001eda
     d54:	40000a34 	.word	0x40000a34
     d58:	40000a35 	.word	0x40000a35
     d5c:	4000097a 	.word	0x4000097a
     d60:	40001d88 	.word	0x40001d88
     d64:	40000978 	.word	0x40000978
     d68:	40000979 	.word	0x40000979
     d6c:	40001d68 	.word	0x40001d68
     d70:	40001d6c 	.word	0x40001d6c
     d74:	40001d70 	.word	0x40001d70
     d78:	4000177c 	.word	0x4000177c
     d7c:	40001d74 	.word	0x40001d74
     d80:	40001782 	.word	0x40001782
     d84:	40001d76 	.word	0x40001d76
     d88:	40001d78 	.word	0x40001d78
     d8c:	40001d7c 	.word	0x40001d7c
     d90:	40001d80 	.word	0x40001d80
     d94:	40001d84 	.word	0x40001d84
     d98:	40001d86 	.word	0x40001d86
     d9c:	40000a36 	.word	0x40000a36
     da0:	40000967 	.word	0x40000967
     da4:	40000966 	.word	0x40000966
     da8:	400018d5 	.word	0x400018d5
     dac:	40000980 	.word	0x40000980
     db0:	4000097c 	.word	0x4000097c
     db4:	40001798 	.word	0x40001798
     db8:	4000096a 	.word	0x4000096a

00000dbc <SSP_data_distribution_HL>:

struct WAYPOINT wpToLL;

volatile unsigned char transmitBuildInfoTrigger = 0;

void SSP_data_distribution_HL(void) {
     dbc:	e92d45f0 	push	{r4, r5, r6, r7, r8, sl, lr}
	unsigned char i;
	unsigned char current_page = LL_1khz_attitude_data.system_flags & 0x03;
     dc0:	e59f630c 	ldr	r6, [pc, #780]	; 10d4 <SSP_data_distribution_HL+0x318>
     dc4:	e1d630b0 	ldrh	r3, [r6]
	static unsigned char oldKey = 0;

	if (LL_1khz_attitude_data.system_flags & SF_GPS_NEW)
     dc8:	e3130008 	tst	r3, #8

volatile unsigned char transmitBuildInfoTrigger = 0;

void SSP_data_distribution_HL(void) {
	unsigned char i;
	unsigned char current_page = LL_1khz_attitude_data.system_flags & 0x03;
     dcc:	e2037003 	and	r7, r3, #3
	static unsigned char oldKey = 0;

	if (LL_1khz_attitude_data.system_flags & SF_GPS_NEW)
		gpsDataOkTrigger = 0;
     dd0:	159f3300 	ldrne	r3, [pc, #768]	; 10d8 <SSP_data_distribution_HL+0x31c>
     dd4:	13a02000 	movne	r2, #0
     dd8:	15832000 	strne	r2, [r3]

	IMU_CalcData.angle_nick = LL_1khz_attitude_data.angle_pitch * 10;
	IMU_CalcData.angle_roll = LL_1khz_attitude_data.angle_roll * 10;
	IMU_CalcData.angle_yaw = LL_1khz_attitude_data.angle_yaw * 10;
     ddc:	e1d610b6 	ldrh	r1, [r6, #6]
	static unsigned char oldKey = 0;

	if (LL_1khz_attitude_data.system_flags & SF_GPS_NEW)
		gpsDataOkTrigger = 0;

	IMU_CalcData.angle_nick = LL_1khz_attitude_data.angle_pitch * 10;
     de0:	e1d630f2 	ldrsh	r3, [r6, #2]
	IMU_CalcData.angle_roll = LL_1khz_attitude_data.angle_roll * 10;
     de4:	e1d620f4 	ldrsh	r2, [r6, #4]
	static unsigned char oldKey = 0;

	if (LL_1khz_attitude_data.system_flags & SF_GPS_NEW)
		gpsDataOkTrigger = 0;

	IMU_CalcData.angle_nick = LL_1khz_attitude_data.angle_pitch * 10;
     de8:	e59f52ec 	ldr	r5, [pc, #748]	; 10dc <SSP_data_distribution_HL+0x320>

	IMU_CalcData.angvel_nick = LL_1khz_attitude_data.angvel_pitch;
	IMU_CalcData.angvel_roll = LL_1khz_attitude_data.angvel_roll;
	IMU_CalcData.angvel_yaw = LL_1khz_attitude_data.angvel_yaw;

	RO_ALL_Data.angle_pitch = IMU_CalcData.angle_nick;
     dec:	e59f42ec 	ldr	r4, [pc, #748]	; 10e0 <SSP_data_distribution_HL+0x324>

	IMU_CalcData.angle_nick = LL_1khz_attitude_data.angle_pitch * 10;
	IMU_CalcData.angle_roll = LL_1khz_attitude_data.angle_roll * 10;
	IMU_CalcData.angle_yaw = LL_1khz_attitude_data.angle_yaw * 10;

	IMU_CalcData.angvel_nick = LL_1khz_attitude_data.angvel_pitch;
     df0:	e1d600f8 	ldrsh	r0, [r6, #8]
	IMU_CalcData.angvel_roll = LL_1khz_attitude_data.angvel_roll;
     df4:	e1d6c0fa 	ldrsh	ip, [r6, #10]
	IMU_CalcData.angvel_yaw = LL_1khz_attitude_data.angvel_yaw;
     df8:	e1d6e0fc 	ldrsh	lr, [r6, #12]
	static unsigned char oldKey = 0;

	if (LL_1khz_attitude_data.system_flags & SF_GPS_NEW)
		gpsDataOkTrigger = 0;

	IMU_CalcData.angle_nick = LL_1khz_attitude_data.angle_pitch * 10;
     dfc:	e0833103 	add	r3, r3, r3, lsl #2
	IMU_CalcData.angle_roll = LL_1khz_attitude_data.angle_roll * 10;
     e00:	e0822102 	add	r2, r2, r2, lsl #2
	IMU_CalcData.angle_yaw = LL_1khz_attitude_data.angle_yaw * 10;
     e04:	e0811101 	add	r1, r1, r1, lsl #2
	static unsigned char oldKey = 0;

	if (LL_1khz_attitude_data.system_flags & SF_GPS_NEW)
		gpsDataOkTrigger = 0;

	IMU_CalcData.angle_nick = LL_1khz_attitude_data.angle_pitch * 10;
     e08:	e1a03083 	lsl	r3, r3, #1
	IMU_CalcData.angle_roll = LL_1khz_attitude_data.angle_roll * 10;
     e0c:	e1a02082 	lsl	r2, r2, #1
	IMU_CalcData.angle_yaw = LL_1khz_attitude_data.angle_yaw * 10;
     e10:	e1a01081 	lsl	r1, r1, #1

	RO_ALL_Data.angvel_pitch = LL_1khz_attitude_data.angvel_pitch;
	RO_ALL_Data.angvel_roll = LL_1khz_attitude_data.angvel_roll;
	RO_ALL_Data.angvel_yaw = LL_1khz_attitude_data.angvel_yaw;

	if (!current_page) //page 0
     e14:	e3570000 	cmp	r7, #0

	IMU_CalcData.angvel_nick = LL_1khz_attitude_data.angvel_pitch;
	IMU_CalcData.angvel_roll = LL_1khz_attitude_data.angvel_roll;
	IMU_CalcData.angvel_yaw = LL_1khz_attitude_data.angvel_yaw;

	RO_ALL_Data.angle_pitch = IMU_CalcData.angle_nick;
     e18:	e584301c 	str	r3, [r4, #28]
	RO_ALL_Data.angle_roll = IMU_CalcData.angle_roll;
     e1c:	e5842020 	str	r2, [r4, #32]
	RO_ALL_Data.angle_yaw = IMU_CalcData.angle_yaw;
     e20:	e5841024 	str	r1, [r4, #36]	; 0x24

	RO_ALL_Data.angvel_pitch = LL_1khz_attitude_data.angvel_pitch;
     e24:	e5840028 	str	r0, [r4, #40]	; 0x28
	RO_ALL_Data.angvel_roll = LL_1khz_attitude_data.angvel_roll;
     e28:	e584c02c 	str	ip, [r4, #44]	; 0x2c
	RO_ALL_Data.angvel_yaw = LL_1khz_attitude_data.angvel_yaw;
     e2c:	e584e030 	str	lr, [r4, #48]	; 0x30
	static unsigned char oldKey = 0;

	if (LL_1khz_attitude_data.system_flags & SF_GPS_NEW)
		gpsDataOkTrigger = 0;

	IMU_CalcData.angle_nick = LL_1khz_attitude_data.angle_pitch * 10;
     e30:	e5853000 	str	r3, [r5]
	IMU_CalcData.angle_roll = LL_1khz_attitude_data.angle_roll * 10;
     e34:	e5852004 	str	r2, [r5, #4]
	IMU_CalcData.angle_yaw = LL_1khz_attitude_data.angle_yaw * 10;
     e38:	e5851008 	str	r1, [r5, #8]

	IMU_CalcData.angvel_nick = LL_1khz_attitude_data.angvel_pitch;
     e3c:	e585000c 	str	r0, [r5, #12]
	IMU_CalcData.angvel_roll = LL_1khz_attitude_data.angvel_roll;
     e40:	e585c010 	str	ip, [r5, #16]
	IMU_CalcData.angvel_yaw = LL_1khz_attitude_data.angvel_yaw;
     e44:	e585e014 	str	lr, [r5, #20]
	static unsigned char oldKey = 0;

	if (LL_1khz_attitude_data.system_flags & SF_GPS_NEW)
		gpsDataOkTrigger = 0;

	IMU_CalcData.angle_nick = LL_1khz_attitude_data.angle_pitch * 10;
     e48:	e1a08005 	mov	r8, r5

	IMU_CalcData.angvel_nick = LL_1khz_attitude_data.angvel_pitch;
	IMU_CalcData.angvel_roll = LL_1khz_attitude_data.angvel_roll;
	IMU_CalcData.angvel_yaw = LL_1khz_attitude_data.angvel_yaw;

	RO_ALL_Data.angle_pitch = IMU_CalcData.angle_nick;
     e4c:	e1a0a004 	mov	sl, r4

	RO_ALL_Data.angvel_pitch = LL_1khz_attitude_data.angvel_pitch;
	RO_ALL_Data.angvel_roll = LL_1khz_attitude_data.angvel_roll;
	RO_ALL_Data.angvel_yaw = LL_1khz_attitude_data.angvel_yaw;

	if (!current_page) //page 0
     e50:	1a000026 	bne	ef0 <SSP_data_distribution_HL+0x134>
     e54:	e59f0288 	ldr	r0, [pc, #648]	; 10e4 <SSP_data_distribution_HL+0x328>
     e58:	e1a01004 	mov	r1, r4
     e5c:	e1a02006 	mov	r2, r6
     e60:	e286c008 	add	ip, r6, #8
     e64:	e1a0e006 	mov	lr, r6
	{
		for (i = 0; i < 8; i++) {
			RO_RC_Data.channel[i] = LL_1khz_attitude_data.RC_data[i] * 16;
     e68:	e5d2300e 	ldrb	r3, [r2, #14]
			RO_ALL_Data.channel[i] = RO_RC_Data.channel[i];
     e6c:	e2822001 	add	r2, r2, #1
	RO_ALL_Data.angvel_yaw = LL_1khz_attitude_data.angvel_yaw;

	if (!current_page) //page 0
	{
		for (i = 0; i < 8; i++) {
			RO_RC_Data.channel[i] = LL_1khz_attitude_data.RC_data[i] * 16;
     e70:	e1a03203 	lsl	r3, r3, #4
	RO_ALL_Data.angvel_roll = LL_1khz_attitude_data.angvel_roll;
	RO_ALL_Data.angvel_yaw = LL_1khz_attitude_data.angvel_yaw;

	if (!current_page) //page 0
	{
		for (i = 0; i < 8; i++) {
     e74:	e152000c 	cmp	r2, ip
			RO_RC_Data.channel[i] = LL_1khz_attitude_data.RC_data[i] * 16;
			RO_ALL_Data.channel[i] = RO_RC_Data.channel[i];
     e78:	e1c130bc 	strh	r3, [r1, #12]
	RO_ALL_Data.angvel_yaw = LL_1khz_attitude_data.angvel_yaw;

	if (!current_page) //page 0
	{
		for (i = 0; i < 8; i++) {
			RO_RC_Data.channel[i] = LL_1khz_attitude_data.RC_data[i] * 16;
     e7c:	e0c030b2 	strh	r3, [r0], #2
			RO_ALL_Data.channel[i] = RO_RC_Data.channel[i];
     e80:	e2811002 	add	r1, r1, #2
	RO_ALL_Data.angvel_roll = LL_1khz_attitude_data.angvel_roll;
	RO_ALL_Data.angvel_yaw = LL_1khz_attitude_data.angvel_yaw;

	if (!current_page) //page 0
	{
		for (i = 0; i < 8; i++) {
     e84:	1afffff7 	bne	e68 <SSP_data_distribution_HL+0xac>
			RO_RC_Data.channel[i] = LL_1khz_attitude_data.RC_data[i] * 16;
			RO_ALL_Data.channel[i] = RO_RC_Data.channel[i];
		}
		IMU_CalcData.acc_x_calib = LL_1khz_attitude_data.acc_x * 10;
		IMU_CalcData.acc_y_calib = LL_1khz_attitude_data.acc_y * 10;
		IMU_CalcData.acc_z_calib = LL_1khz_attitude_data.acc_z * 10;
     e88:	e1de32f4 	ldrsh	r3, [lr, #36]	; 0x24
	{
		for (i = 0; i < 8; i++) {
			RO_RC_Data.channel[i] = LL_1khz_attitude_data.RC_data[i] * 16;
			RO_ALL_Data.channel[i] = RO_RC_Data.channel[i];
		}
		IMU_CalcData.acc_x_calib = LL_1khz_attitude_data.acc_x * 10;
     e8c:	e1de22f0 	ldrsh	r2, [lr, #32]
		IMU_CalcData.acc_y_calib = LL_1khz_attitude_data.acc_y * 10;
     e90:	e1de12f2 	ldrsh	r1, [lr, #34]	; 0x22
		IMU_CalcData.acc_z_calib = LL_1khz_attitude_data.acc_z * 10;
     e94:	e0833103 	add	r3, r3, r3, lsl #2
	{
		for (i = 0; i < 8; i++) {
			RO_RC_Data.channel[i] = LL_1khz_attitude_data.RC_data[i] * 16;
			RO_ALL_Data.channel[i] = RO_RC_Data.channel[i];
		}
		IMU_CalcData.acc_x_calib = LL_1khz_attitude_data.acc_x * 10;
     e98:	e0822102 	add	r2, r2, r2, lsl #2
		IMU_CalcData.acc_y_calib = LL_1khz_attitude_data.acc_y * 10;
     e9c:	e0811101 	add	r1, r1, r1, lsl #2
		IMU_CalcData.acc_z_calib = LL_1khz_attitude_data.acc_z * 10;
     ea0:	e1a03883 	lsl	r3, r3, #17
     ea4:	e1a00823 	lsr	r0, r3, #16
	{
		for (i = 0; i < 8; i++) {
			RO_RC_Data.channel[i] = LL_1khz_attitude_data.RC_data[i] * 16;
			RO_ALL_Data.channel[i] = RO_RC_Data.channel[i];
		}
		IMU_CalcData.acc_x_calib = LL_1khz_attitude_data.acc_x * 10;
     ea8:	e1a02882 	lsl	r2, r2, #17
		IMU_CalcData.acc_y_calib = LL_1khz_attitude_data.acc_y * 10;
     eac:	e1a01881 	lsl	r1, r1, #17
	{
		for (i = 0; i < 8; i++) {
			RO_RC_Data.channel[i] = LL_1khz_attitude_data.RC_data[i] * 16;
			RO_ALL_Data.channel[i] = RO_RC_Data.channel[i];
		}
		IMU_CalcData.acc_x_calib = LL_1khz_attitude_data.acc_x * 10;
     eb0:	e1a0c822 	lsr	ip, r2, #16
		IMU_CalcData.acc_y_calib = LL_1khz_attitude_data.acc_y * 10;
     eb4:	e1a01821 	lsr	r1, r1, #16
		IMU_CalcData.acc_z_calib = LL_1khz_attitude_data.acc_z * 10;

		//system is initialized as soon as values differ from 0
		if (IMU_CalcData.acc_z_calib && (SYSTEM_initialized < 10))
     eb8:	e3500000 	cmp	r0, #0
			RO_RC_Data.channel[i] = LL_1khz_attitude_data.RC_data[i] * 16;
			RO_ALL_Data.channel[i] = RO_RC_Data.channel[i];
		}
		IMU_CalcData.acc_x_calib = LL_1khz_attitude_data.acc_x * 10;
		IMU_CalcData.acc_y_calib = LL_1khz_attitude_data.acc_y * 10;
		IMU_CalcData.acc_z_calib = LL_1khz_attitude_data.acc_z * 10;
     ebc:	e1c801bc 	strh	r0, [r8, #28]
	{
		for (i = 0; i < 8; i++) {
			RO_RC_Data.channel[i] = LL_1khz_attitude_data.RC_data[i] * 16;
			RO_ALL_Data.channel[i] = RO_RC_Data.channel[i];
		}
		IMU_CalcData.acc_x_calib = LL_1khz_attitude_data.acc_x * 10;
     ec0:	e1c8c1b8 	strh	ip, [r8, #24]
		IMU_CalcData.acc_y_calib = LL_1khz_attitude_data.acc_y * 10;
     ec4:	e1c811ba 	strh	r1, [r8, #26]
		IMU_CalcData.acc_z_calib = LL_1khz_attitude_data.acc_z * 10;

		//system is initialized as soon as values differ from 0
		if (IMU_CalcData.acc_z_calib && (SYSTEM_initialized < 10))
     ec8:	1a00003a 	bne	fb8 <SSP_data_distribution_HL+0x1fc>
		RO_ALL_Data.acc_y = IMU_CalcData.acc_y_calib;
		RO_ALL_Data.acc_z = IMU_CalcData.acc_z_calib;

		RO_ALL_Data.fusion_latitude
				= LL_1khz_attitude_data.latitude_best_estimate;
		RO_ALL_Data.fusion_longitude
     ecc:	e2862018 	add	r2, r6, #24
     ed0:	e892000c 	ldm	r2, {r2, r3}
     ed4:	e58a3090 	str	r3, [sl, #144]	; 0x90

		//system is initialized as soon as values differ from 0
		if (IMU_CalcData.acc_z_calib && (SYSTEM_initialized < 10))
			SYSTEM_initialized++;

		RO_ALL_Data.acc_x = IMU_CalcData.acc_x_calib;
     ed8:	e1cac3b4 	strh	ip, [sl, #52]	; 0x34
		RO_ALL_Data.acc_y = IMU_CalcData.acc_y_calib;
     edc:	e1ca13b6 	strh	r1, [sl, #54]	; 0x36
		RO_ALL_Data.acc_z = IMU_CalcData.acc_z_calib;
     ee0:	e1ca03b8 	strh	r0, [sl, #56]	; 0x38

		RO_ALL_Data.fusion_latitude
     ee4:	e58a208c 	str	r2, [sl, #140]	; 0x8c
						= LL_1khz_attitude_data.slowDataUpChannelDataShort;
			break;

		}
	}
}
     ee8:	e8bd45f0 	pop	{r4, r5, r6, r7, r8, sl, lr}
     eec:	e12fff1e 	bx	lr
		RO_ALL_Data.fusion_latitude
				= LL_1khz_attitude_data.latitude_best_estimate;
		RO_ALL_Data.fusion_longitude
				= LL_1khz_attitude_data.longitude_best_estimate;

	} else if (current_page == 1) //page 1
     ef0:	e3570001 	cmp	r7, #1
     ef4:	0a000037 	beq	fd8 <SSP_data_distribution_HL+0x21c>
		RO_ALL_Data.fusion_speed_y
				= LL_1khz_attitude_data.speed_y_best_estimate;
		for (i = 0; i < 6; i++) {
			RO_ALL_Data.motor_rpm[i] = LL_1khz_attitude_data.motor_data[i + 8];
		}
	} else if (current_page == 2) {
     ef8:	e3570002 	cmp	r7, #2
     efc:	1afffff9 	bne	ee8 <SSP_data_distribution_HL+0x12c>
		IMU_CalcData.Hx = LL_1khz_attitude_data.mag_x;
		IMU_CalcData.Hy = LL_1khz_attitude_data.mag_y;
		IMU_CalcData.Hz = LL_1khz_attitude_data.mag_z;
     f00:	e1d634f6 	ldrsh	r3, [r6, #70]	; 0x46
		RO_ALL_Data.Hx = LL_1khz_attitude_data.mag_x;
		RO_ALL_Data.Hy = LL_1khz_attitude_data.mag_y;
		RO_ALL_Data.Hz = LL_1khz_attitude_data.mag_z;

		RO_ALL_Data.UAV_status = LL_1khz_attitude_data.flightMode;
		RO_ALL_Data.battery_voltage = HL_Status.battery_voltage_1;
     f04:	e59fc1dc 	ldr	ip, [pc, #476]	; 10e8 <SSP_data_distribution_HL+0x32c>
			RO_ALL_Data.motor_rpm[i] = LL_1khz_attitude_data.motor_data[i + 8];
		}
	} else if (current_page == 2) {
		IMU_CalcData.Hx = LL_1khz_attitude_data.mag_x;
		IMU_CalcData.Hy = LL_1khz_attitude_data.mag_y;
		IMU_CalcData.Hz = LL_1khz_attitude_data.mag_z;
     f08:	e5853038 	str	r3, [r5, #56]	; 0x38

		RO_ALL_Data.Hx = LL_1khz_attitude_data.mag_x;
		RO_ALL_Data.Hy = LL_1khz_attitude_data.mag_y;
		RO_ALL_Data.Hz = LL_1khz_attitude_data.mag_z;
     f0c:	e5843044 	str	r3, [r4, #68]	; 0x44

		RO_ALL_Data.UAV_status = LL_1khz_attitude_data.flightMode;
     f10:	e1d635b2 	ldrh	r3, [r6, #82]	; 0x52
     f14:	e1c430b0 	strh	r3, [r4]
		RO_ALL_Data.battery_voltage = HL_Status.battery_voltage_1;
     f18:	e1dc30b0 	ldrh	r3, [ip]
     f1c:	e1c430b6 	strh	r3, [r4, #6]
		RO_ALL_Data.flight_time = HL_Status.flight_time;
     f20:	e1dc30b6 	ldrh	r3, [ip, #6]
     f24:	e1c430b4 	strh	r3, [r4, #4]
		RO_ALL_Data.HL_cpu_load = HL_Status.cpu_load;
     f28:	e1dc31b2 	ldrh	r3, [ip, #18]
		RO_ALL_Data.HL_up_time = HL_Status.up_time;

		if (LL_1khz_attitude_data.status2 & 0x01)
     f2c:	e1d625ba 	ldrh	r2, [r6, #90]	; 0x5a
		RO_ALL_Data.Hz = LL_1khz_attitude_data.mag_z;

		RO_ALL_Data.UAV_status = LL_1khz_attitude_data.flightMode;
		RO_ALL_Data.battery_voltage = HL_Status.battery_voltage_1;
		RO_ALL_Data.flight_time = HL_Status.flight_time;
		RO_ALL_Data.HL_cpu_load = HL_Status.cpu_load;
     f30:	e1c430b8 	strh	r3, [r4, #8]
		RO_ALL_Data.HL_up_time = HL_Status.up_time;
     f34:	e1dc30b4 	ldrh	r3, [ip, #4]

		if (LL_1khz_attitude_data.status2 & 0x01)
     f38:	e212e001 	ands	lr, r2, #1

		RO_ALL_Data.UAV_status = LL_1khz_attitude_data.flightMode;
		RO_ALL_Data.battery_voltage = HL_Status.battery_voltage_1;
		RO_ALL_Data.flight_time = HL_Status.flight_time;
		RO_ALL_Data.HL_cpu_load = HL_Status.cpu_load;
		RO_ALL_Data.HL_up_time = HL_Status.up_time;
     f3c:	e1c430ba 	strh	r3, [r4, #10]

		if (LL_1khz_attitude_data.status2 & 0x01)
     f40:	e1a02802 	lsl	r2, r2, #16
			RO_ALL_Data.flying = 1;
     f44:	13a03001 	movne	r3, #1
     f48:	15c43002 	strbne	r3, [r4, #2]
		else
			RO_ALL_Data.flying = 0;

		unsigned char slowDataUpChannelSelect = (LL_1khz_attitude_data.status2
				>> 1) & 0x7F;
		switch (slowDataUpChannelSelect) {
     f4c:	e1a038c2 	asr	r3, r2, #17
				= LL_1khz_attitude_data.speed_y_best_estimate;
		for (i = 0; i < 6; i++) {
			RO_ALL_Data.motor_rpm[i] = LL_1khz_attitude_data.motor_data[i + 8];
		}
	} else if (current_page == 2) {
		IMU_CalcData.Hx = LL_1khz_attitude_data.mag_x;
     f50:	e1d614f2 	ldrsh	r1, [r6, #66]	; 0x42
		IMU_CalcData.Hy = LL_1khz_attitude_data.mag_y;
     f54:	e1d604f4 	ldrsh	r0, [r6, #68]	; 0x44
		else
			RO_ALL_Data.flying = 0;

		unsigned char slowDataUpChannelSelect = (LL_1khz_attitude_data.status2
				>> 1) & 0x7F;
		switch (slowDataUpChannelSelect) {
     f58:	e203307f 	and	r3, r3, #127	; 0x7f
     f5c:	e2433001 	sub	r3, r3, #1
	} else if (current_page == 2) {
		IMU_CalcData.Hx = LL_1khz_attitude_data.mag_x;
		IMU_CalcData.Hy = LL_1khz_attitude_data.mag_y;
		IMU_CalcData.Hz = LL_1khz_attitude_data.mag_z;

		RO_ALL_Data.Hx = LL_1khz_attitude_data.mag_x;
     f60:	e584103c 	str	r1, [r4, #60]	; 0x3c
		RO_ALL_Data.Hy = LL_1khz_attitude_data.mag_y;
     f64:	e5840040 	str	r0, [r4, #64]	; 0x40
				= LL_1khz_attitude_data.speed_y_best_estimate;
		for (i = 0; i < 6; i++) {
			RO_ALL_Data.motor_rpm[i] = LL_1khz_attitude_data.motor_data[i + 8];
		}
	} else if (current_page == 2) {
		IMU_CalcData.Hx = LL_1khz_attitude_data.mag_x;
     f68:	e5851030 	str	r1, [r5, #48]	; 0x30
		IMU_CalcData.Hy = LL_1khz_attitude_data.mag_y;
     f6c:	e5850034 	str	r0, [r5, #52]	; 0x34
		RO_ALL_Data.HL_up_time = HL_Status.up_time;

		if (LL_1khz_attitude_data.status2 & 0x01)
			RO_ALL_Data.flying = 1;
		else
			RO_ALL_Data.flying = 0;
     f70:	05c4e002 	strbeq	lr, [r4, #2]

		unsigned char slowDataUpChannelSelect = (LL_1khz_attitude_data.status2
				>> 1) & 0x7F;
		switch (slowDataUpChannelSelect) {
     f74:	e353000d 	cmp	r3, #13
     f78:	979ff103 	ldrls	pc, [pc, r3, lsl #2]
     f7c:	eaffffd9 	b	ee8 <SSP_data_distribution_HL+0x12c>
     f80:	00001028 	.word	0x00001028
     f84:	00000ee8 	.word	0x00000ee8
     f88:	00000ee8 	.word	0x00000ee8
     f8c:	00000ee8 	.word	0x00000ee8
     f90:	00000ee8 	.word	0x00000ee8
     f94:	00001034 	.word	0x00001034
     f98:	00001044 	.word	0x00001044
     f9c:	00001054 	.word	0x00001054
     fa0:	00000ee8 	.word	0x00000ee8
     fa4:	00000ee8 	.word	0x00000ee8
     fa8:	00000ee8 	.word	0x00000ee8
     fac:	00000ee8 	.word	0x00000ee8
     fb0:	00001064 	.word	0x00001064
     fb4:	00001094 	.word	0x00001094
		IMU_CalcData.acc_x_calib = LL_1khz_attitude_data.acc_x * 10;
		IMU_CalcData.acc_y_calib = LL_1khz_attitude_data.acc_y * 10;
		IMU_CalcData.acc_z_calib = LL_1khz_attitude_data.acc_z * 10;

		//system is initialized as soon as values differ from 0
		if (IMU_CalcData.acc_z_calib && (SYSTEM_initialized < 10))
     fb8:	e59f212c 	ldr	r2, [pc, #300]	; 10ec <SSP_data_distribution_HL+0x330>
     fbc:	e5d23000 	ldrb	r3, [r2]
     fc0:	e3530009 	cmp	r3, #9
			SYSTEM_initialized++;
     fc4:	95d23000 	ldrbls	r3, [r2]
     fc8:	92833001 	addls	r3, r3, #1
     fcc:	920330ff 	andls	r3, r3, #255	; 0xff
     fd0:	95c23000 	strbls	r3, [r2]
     fd4:	eaffffbc 	b	ecc <SSP_data_distribution_HL+0x110>
				= LL_1khz_attitude_data.longitude_best_estimate;

	} else if (current_page == 1) //page 1
	{
		IMU_CalcData.height = LL_1khz_attitude_data.height;
		IMU_CalcData.dheight = LL_1khz_attitude_data.dheight;
     fd8:	e1d634f0 	ldrsh	r3, [r6, #64]	; 0x40
     fdc:	e5853050 	str	r3, [r5, #80]	; 0x50

		RO_ALL_Data.fusion_height = LL_1khz_attitude_data.height;
		RO_ALL_Data.fusion_dheight = LL_1khz_attitude_data.dheight;
     fe0:	e5843088 	str	r3, [r4, #136]	; 0x88

		RO_ALL_Data.fusion_speed_x
     fe4:	e1d633b8 	ldrh	r3, [r6, #56]	; 0x38
		RO_ALL_Data.fusion_longitude
				= LL_1khz_attitude_data.longitude_best_estimate;

	} else if (current_page == 1) //page 1
	{
		IMU_CalcData.height = LL_1khz_attitude_data.height;
     fe8:	e596203c 	ldr	r2, [r6, #60]	; 0x3c
		IMU_CalcData.dheight = LL_1khz_attitude_data.dheight;

		RO_ALL_Data.fusion_height = LL_1khz_attitude_data.height;
		RO_ALL_Data.fusion_dheight = LL_1khz_attitude_data.dheight;

		RO_ALL_Data.fusion_speed_x
     fec:	e1c439b4 	strh	r3, [r4, #148]	; 0x94
				= LL_1khz_attitude_data.speed_x_best_estimate;
		RO_ALL_Data.fusion_speed_y
     ff0:	e1d633ba 	ldrh	r3, [r6, #58]	; 0x3a
	} else if (current_page == 1) //page 1
	{
		IMU_CalcData.height = LL_1khz_attitude_data.height;
		IMU_CalcData.dheight = LL_1khz_attitude_data.dheight;

		RO_ALL_Data.fusion_height = LL_1khz_attitude_data.height;
     ff4:	e5842084 	str	r2, [r4, #132]	; 0x84
		RO_ALL_Data.fusion_longitude
				= LL_1khz_attitude_data.longitude_best_estimate;

	} else if (current_page == 1) //page 1
	{
		IMU_CalcData.height = LL_1khz_attitude_data.height;
     ff8:	e585204c 	str	r2, [r5, #76]	; 0x4c
		RO_ALL_Data.fusion_height = LL_1khz_attitude_data.height;
		RO_ALL_Data.fusion_dheight = LL_1khz_attitude_data.dheight;

		RO_ALL_Data.fusion_speed_x
				= LL_1khz_attitude_data.speed_x_best_estimate;
		RO_ALL_Data.fusion_speed_y
     ffc:	e1c439b6 	strh	r3, [r4, #150]	; 0x96
    1000:	e1a00004 	mov	r0, r4
    1004:	e3a01000 	mov	r1, #0
				= LL_1khz_attitude_data.speed_y_best_estimate;
		for (i = 0; i < 6; i++) {
			RO_ALL_Data.motor_rpm[i] = LL_1khz_attitude_data.motor_data[i + 8];
    1008:	e0813006 	add	r3, r1, r6
    100c:	e5d32030 	ldrb	r2, [r3, #48]	; 0x30
    1010:	e2811001 	add	r1, r1, #1

		RO_ALL_Data.fusion_speed_x
				= LL_1khz_attitude_data.speed_x_best_estimate;
		RO_ALL_Data.fusion_speed_y
				= LL_1khz_attitude_data.speed_y_best_estimate;
		for (i = 0; i < 6; i++) {
    1014:	e3510006 	cmp	r1, #6
			RO_ALL_Data.motor_rpm[i] = LL_1khz_attitude_data.motor_data[i + 8];
    1018:	e5c02048 	strb	r2, [r0, #72]	; 0x48
    101c:	e2800001 	add	r0, r0, #1

		RO_ALL_Data.fusion_speed_x
				= LL_1khz_attitude_data.speed_x_best_estimate;
		RO_ALL_Data.fusion_speed_y
				= LL_1khz_attitude_data.speed_y_best_estimate;
		for (i = 0; i < 6; i++) {
    1020:	1afffff8 	bne	1008 <SSP_data_distribution_HL+0x24c>
    1024:	eaffffaf 	b	ee8 <SSP_data_distribution_HL+0x12c>
		unsigned char slowDataUpChannelSelect = (LL_1khz_attitude_data.status2
				>> 1) & 0x7F;
		switch (slowDataUpChannelSelect) {
		case SUDC_FLIGHTTIME:

			HL_Status.flight_time
    1028:	e1d665b4 	ldrh	r6, [r6, #84]	; 0x54
    102c:	e1cc60b6 	strh	r6, [ip, #6]
    1030:	eaffffac 	b	ee8 <SSP_data_distribution_HL+0x12c>
					= LL_1khz_attitude_data.slowDataUpChannelDataShort;
			break;
		case SUDC_NAVSTATUS:
			wpCtrlNavStatus = LL_1khz_attitude_data.slowDataUpChannelDataShort;
    1034:	e59f30b4 	ldr	r3, [pc, #180]	; 10f0 <SSP_data_distribution_HL+0x334>
    1038:	e1d665b4 	ldrh	r6, [r6, #84]	; 0x54
    103c:	e1c360b0 	strh	r6, [r3]
    1040:	eaffffa8 	b	ee8 <SSP_data_distribution_HL+0x12c>
			break;
		case SUDC_DISTTOWP:
			wpCtrlDistToWp = LL_1khz_attitude_data.slowDataUpChannelDataShort;
    1044:	e59f30a8 	ldr	r3, [pc, #168]	; 10f4 <SSP_data_distribution_HL+0x338>
    1048:	e1d665b4 	ldrh	r6, [r6, #84]	; 0x54
    104c:	e1c360b0 	strh	r6, [r3]
    1050:	eaffffa4 	b	ee8 <SSP_data_distribution_HL+0x12c>
			break;
		case SUDC_WPACKTRIGGER:
			wpCtrlAckTrigger = LL_1khz_attitude_data.slowDataUpChannelDataShort;
    1054:	e1d625b4 	ldrh	r2, [r6, #84]	; 0x54
    1058:	e59f3098 	ldr	r3, [pc, #152]	; 10f8 <SSP_data_distribution_HL+0x33c>
    105c:	e5c32000 	strb	r2, [r3]
    1060:	eaffffa0 	b	ee8 <SSP_data_distribution_HL+0x12c>
			//if ((LL_1khz_attitude_data.slowDataUpChannelDataShort == OM_HEX)
			//		&& (fireflyLedEnabled == 0))
			//	fireflyLedEnabled = 1;
			break;
		case SUDC_JETIKEYVAL:
			if (oldKey != LL_1khz_attitude_data.slowDataUpChannelDataShort)
    1064:	e59f4090 	ldr	r4, [pc, #144]	; 10fc <SSP_data_distribution_HL+0x340>
    1068:	e1d605b4 	ldrh	r0, [r6, #84]	; 0x54
    106c:	e5d42000 	ldrb	r2, [r4]
    1070:	e1a03800 	lsl	r3, r0, #16
    1074:	e1520843 	cmp	r2, r3, asr #16
    1078:	0a000003 	beq	108c <SSP_data_distribution_HL+0x2d0>
				jetiSetKeyChanged(
    107c:	e20000ff 	and	r0, r0, #255	; 0xff
    1080:	eb0012b8 	bl	5b68 <jetiSetKeyChanged>
    1084:	e59f3048 	ldr	r3, [pc, #72]	; 10d4 <SSP_data_distribution_HL+0x318>
    1088:	e1d305b4 	ldrh	r0, [r3, #84]	; 0x54
						LL_1khz_attitude_data.slowDataUpChannelDataShort);
			oldKey = LL_1khz_attitude_data.slowDataUpChannelDataShort;
    108c:	e5c40000 	strb	r0, [r4]
    1090:	eaffff94 	b	ee8 <SSP_data_distribution_HL+0x12c>
			break;
		case SUDC_EM_MODE:
			if (emergencyModeUpdate == 2) {
    1094:	e59fc064 	ldr	ip, [pc, #100]	; 1100 <SSP_data_distribution_HL+0x344>
    1098:	e5dc3000 	ldrb	r3, [ip]
    109c:	e3530002 	cmp	r3, #2
						!= emergencyMode)
					emergencyModeUpdate = 1;
				else
					emergencyModeUpdate = 0;
			} else
				emergencyMode
    10a0:	11d625b4 	ldrhne	r2, [r6, #84]	; 0x54
    10a4:	159f3058 	ldrne	r3, [pc, #88]	; 1104 <SSP_data_distribution_HL+0x348>
    10a8:	15c32000 	strbne	r2, [r3]
    10ac:	1affff8d 	bne	ee8 <SSP_data_distribution_HL+0x12c>
						LL_1khz_attitude_data.slowDataUpChannelDataShort);
			oldKey = LL_1khz_attitude_data.slowDataUpChannelDataShort;
			break;
		case SUDC_EM_MODE:
			if (emergencyModeUpdate == 2) {
				if (LL_1khz_attitude_data.slowDataUpChannelDataShort
    10b0:	e59f204c 	ldr	r2, [pc, #76]	; 1104 <SSP_data_distribution_HL+0x348>
    10b4:	e1d635f4 	ldrsh	r3, [r6, #84]	; 0x54
    10b8:	e5d21000 	ldrb	r1, [r2]
    10bc:	e1530001 	cmp	r3, r1
						!= emergencyMode)
					emergencyModeUpdate = 1;
    10c0:	13a03001 	movne	r3, #1
				else
					emergencyModeUpdate = 0;
    10c4:	03a03000 	moveq	r3, #0
			break;
		case SUDC_EM_MODE:
			if (emergencyModeUpdate == 2) {
				if (LL_1khz_attitude_data.slowDataUpChannelDataShort
						!= emergencyMode)
					emergencyModeUpdate = 1;
    10c8:	15cc3000 	strbne	r3, [ip]
				else
					emergencyModeUpdate = 0;
    10cc:	05cc3000 	strbeq	r3, [ip]
    10d0:	eaffff84 	b	ee8 <SSP_data_distribution_HL+0x12c>
    10d4:	40001700 	.word	0x40001700
    10d8:	40000988 	.word	0x40000988
    10dc:	40001928 	.word	0x40001928
    10e0:	4000183c 	.word	0x4000183c
    10e4:	4000182c 	.word	0x4000182c
    10e8:	40001984 	.word	0x40001984
    10ec:	400009e0 	.word	0x400009e0
    10f0:	4000096a 	.word	0x4000096a
    10f4:	4000096c 	.word	0x4000096c
    10f8:	40000968 	.word	0x40000968
    10fc:	40000986 	.word	0x40000986
    1100:	4000098c 	.word	0x4000098c
    1104:	400018d4 	.word	0x400018d4

00001108 <SSP_rx_handler_HL>:
	SPIWR_num_bytes = 42;
	data_sent_to_LL = 0;
}

inline void SSP_rx_handler_HL(unsigned char SPI_rxdata) //rx_handler @ high-level processor
{
    1108:	e92d47f0 	push	{r4, r5, r6, r7, r8, r9, sl, lr}
	static volatile unsigned char SPI_rxcount = 0;
	static volatile unsigned char *SPI_rxptr;
	static volatile unsigned char incoming_page;

	//receive handler
	if (SPI_syncstate == 0) {
    110c:	e59f2464 	ldr	r2, [pc, #1124]	; 1578 <SSP_rx_handler_HL+0x470>
    1110:	e5d23000 	ldrb	r3, [r2]
    1114:	e20330ff 	and	r3, r3, #255	; 0xff
    1118:	e3530000 	cmp	r3, #0
	SPIWR_num_bytes = 42;
	data_sent_to_LL = 0;
}

inline void SSP_rx_handler_HL(unsigned char SPI_rxdata) //rx_handler @ high-level processor
{
    111c:	e20000ff 	and	r0, r0, #255	; 0xff
	static volatile unsigned char SPI_rxcount = 0;
	static volatile unsigned char *SPI_rxptr;
	static volatile unsigned char incoming_page;

	//receive handler
	if (SPI_syncstate == 0) {
    1120:	e1a06002 	mov	r6, r2
    1124:	1a000004 	bne	113c <SSP_rx_handler_HL+0x34>
		if (SPI_rxdata == '>')
    1128:	e350003e 	cmp	r0, #62	; 0x3e
    112c:	0a000011 	beq	1178 <SSP_rx_handler_HL+0x70>
			SSP_data_distribution_HL(); //only distribute data to other structs, if it was received correctly
			//ack data receiption
		}
		SPI_syncstate = 0;
	} else
		SPI_syncstate = 0;
    1130:	e5c23000 	strb	r3, [r2]
}
    1134:	e8bd47f0 	pop	{r4, r5, r6, r7, r8, r9, sl, lr}
    1138:	e12fff1e 	bx	lr
	if (SPI_syncstate == 0) {
		if (SPI_rxdata == '>')
			SPI_syncstate++;
		else
			SPI_syncstate = 0;
	} else if (SPI_syncstate == 1) {
    113c:	e5d23000 	ldrb	r3, [r2]
    1140:	e3530001 	cmp	r3, #1
    1144:	0a000010 	beq	118c <SSP_rx_handler_HL+0x84>
			SPI_syncstate++;
			SPI_rxptr = (unsigned char *) &LL_1khz_attitude_data;
			SPI_rxcount = 40;
		} else
			SPI_syncstate = 0;
	} else if (SPI_syncstate == 2) {
    1148:	e5d23000 	ldrb	r3, [r2]
    114c:	e3530002 	cmp	r3, #2
    1150:	0a00001c 	beq	11c8 <SSP_rx_handler_HL+0xc0>
		*SPI_rxptr = SPI_rxdata;
		SPI_rxptr++;
		if (SPI_rxcount == 0) {
			SPI_syncstate++;
		}
	} else if (SPI_syncstate == 3) {
    1154:	e5d23000 	ldrb	r3, [r2]
    1158:	e3530003 	cmp	r3, #3
			SSP_data_distribution_HL(); //only distribute data to other structs, if it was received correctly
			//ack data receiption
		}
		SPI_syncstate = 0;
	} else
		SPI_syncstate = 0;
    115c:	13a03000 	movne	r3, #0
		*SPI_rxptr = SPI_rxdata;
		SPI_rxptr++;
		if (SPI_rxcount == 0) {
			SPI_syncstate++;
		}
	} else if (SPI_syncstate == 3) {
    1160:	1afffff2 	bne	1130 <SSP_rx_handler_HL+0x28>
		if (SPI_rxdata == '<') //last byte ok => data should be valid
    1164:	e350003c 	cmp	r0, #60	; 0x3c
    1168:	0a000039 	beq	1254 <SSP_rx_handler_HL+0x14c>
		{
			SSP_data_distribution_HL(); //only distribute data to other structs, if it was received correctly
			//ack data receiption
		}
		SPI_syncstate = 0;
    116c:	e3a03000 	mov	r3, #0
    1170:	e5c63000 	strb	r3, [r6]
    1174:	eaffffee 	b	1134 <SSP_rx_handler_HL+0x2c>
	static volatile unsigned char incoming_page;

	//receive handler
	if (SPI_syncstate == 0) {
		if (SPI_rxdata == '>')
			SPI_syncstate++;
    1178:	e5d23000 	ldrb	r3, [r2]
    117c:	e2833001 	add	r3, r3, #1
    1180:	e20330ff 	and	r3, r3, #255	; 0xff
    1184:	e5c23000 	strb	r3, [r2]
    1188:	eaffffe9 	b	1134 <SSP_rx_handler_HL+0x2c>
		else
			SPI_syncstate = 0;
	} else if (SPI_syncstate == 1) {
		if (SPI_rxdata == '*') {
    118c:	e350002a 	cmp	r0, #42	; 0x2a
			SPI_syncstate++;
			SPI_rxptr = (unsigned char *) &LL_1khz_attitude_data;
			SPI_rxcount = 40;
		} else
			SPI_syncstate = 0;
    1190:	13a03000 	movne	r3, #0
    1194:	15c23000 	strbne	r3, [r2]
		if (SPI_rxdata == '>')
			SPI_syncstate++;
		else
			SPI_syncstate = 0;
	} else if (SPI_syncstate == 1) {
		if (SPI_rxdata == '*') {
    1198:	1affffe5 	bne	1134 <SSP_rx_handler_HL+0x2c>
			SPI_syncstate++;
    119c:	e5d23000 	ldrb	r3, [r2]
    11a0:	e2833001 	add	r3, r3, #1
    11a4:	e20330ff 	and	r3, r3, #255	; 0xff
    11a8:	e5c23000 	strb	r3, [r2]
			SPI_rxptr = (unsigned char *) &LL_1khz_attitude_data;
    11ac:	e59f33c8 	ldr	r3, [pc, #968]	; 157c <SSP_rx_handler_HL+0x474>
    11b0:	e59f23c8 	ldr	r2, [pc, #968]	; 1580 <SSP_rx_handler_HL+0x478>
    11b4:	e5832000 	str	r2, [r3]
			SPI_rxcount = 40;
    11b8:	e59f33c4 	ldr	r3, [pc, #964]	; 1584 <SSP_rx_handler_HL+0x47c>
    11bc:	e3a01028 	mov	r1, #40	; 0x28
    11c0:	e5c31000 	strb	r1, [r3]
    11c4:	eaffffda 	b	1134 <SSP_rx_handler_HL+0x2c>
		} else
			SPI_syncstate = 0;
	} else if (SPI_syncstate == 2) {
		if (SPI_rxcount == 26) //14 bytes transmitted => select 500Hz page
    11c8:	e59fc3b4 	ldr	ip, [pc, #948]	; 1584 <SSP_rx_handler_HL+0x47c>
    11cc:	e5dc3000 	ldrb	r3, [ip]
    11d0:	e353001a 	cmp	r3, #26
    11d4:	0a00000e 	beq	1214 <SSP_rx_handler_HL+0x10c>
    11d8:	e59f139c 	ldr	r1, [pc, #924]	; 157c <SSP_rx_handler_HL+0x474>
			if (incoming_page == 1)
				SPI_rxptr += 26;
			else if (incoming_page == 2)
				SPI_rxptr += 52;
		}
		SPI_rxcount--;
    11dc:	e5dc3000 	ldrb	r3, [ip]
		*SPI_rxptr = SPI_rxdata;
    11e0:	e5912000 	ldr	r2, [r1]
			if (incoming_page == 1)
				SPI_rxptr += 26;
			else if (incoming_page == 2)
				SPI_rxptr += 52;
		}
		SPI_rxcount--;
    11e4:	e2433001 	sub	r3, r3, #1
    11e8:	e20330ff 	and	r3, r3, #255	; 0xff
    11ec:	e5cc3000 	strb	r3, [ip]
		*SPI_rxptr = SPI_rxdata;
    11f0:	e4c20001 	strb	r0, [r2], #1
		SPI_rxptr++;
		if (SPI_rxcount == 0) {
    11f4:	e5dc3000 	ldrb	r3, [ip]
    11f8:	e3530000 	cmp	r3, #0
			else if (incoming_page == 2)
				SPI_rxptr += 52;
		}
		SPI_rxcount--;
		*SPI_rxptr = SPI_rxdata;
		SPI_rxptr++;
    11fc:	e5812000 	str	r2, [r1]
		if (SPI_rxcount == 0) {
			SPI_syncstate++;
    1200:	05d63000 	ldrbeq	r3, [r6]
    1204:	02833001 	addeq	r3, r3, #1
    1208:	020330ff 	andeq	r3, r3, #255	; 0xff
    120c:	05c63000 	strbeq	r3, [r6]
    1210:	eaffffc7 	b	1134 <SSP_rx_handler_HL+0x2c>
		} else
			SPI_syncstate = 0;
	} else if (SPI_syncstate == 2) {
		if (SPI_rxcount == 26) //14 bytes transmitted => select 500Hz page
		{
			incoming_page = LL_1khz_attitude_data.system_flags & 0x03; //system flags were already received
    1214:	e59f3364 	ldr	r3, [pc, #868]	; 1580 <SSP_rx_handler_HL+0x478>
    1218:	e1d320b0 	ldrh	r2, [r3]
    121c:	e59f1364 	ldr	r1, [pc, #868]	; 1588 <SSP_rx_handler_HL+0x480>
    1220:	e2022003 	and	r2, r2, #3
    1224:	e5c12000 	strb	r2, [r1]
			if (incoming_page == 1)
    1228:	e5d13000 	ldrb	r3, [r1]
    122c:	e3530001 	cmp	r3, #1
    1230:	0a0000ae 	beq	14f0 <SSP_rx_handler_HL+0x3e8>
				SPI_rxptr += 26;
			else if (incoming_page == 2)
    1234:	e5d13000 	ldrb	r3, [r1]
    1238:	e3530002 	cmp	r3, #2
    123c:	1affffe5 	bne	11d8 <SSP_rx_handler_HL+0xd0>
				SPI_rxptr += 52;
    1240:	e59f1334 	ldr	r1, [pc, #820]	; 157c <SSP_rx_handler_HL+0x474>
    1244:	e5913000 	ldr	r3, [r1]
    1248:	e2833034 	add	r3, r3, #52	; 0x34
    124c:	e5813000 	str	r3, [r1]
    1250:	eaffffe1 	b	11dc <SSP_rx_handler_HL+0xd4>

volatile unsigned char transmitBuildInfoTrigger = 0;

void SSP_data_distribution_HL(void) {
	unsigned char i;
	unsigned char current_page = LL_1khz_attitude_data.system_flags & 0x03;
    1254:	e59f7324 	ldr	r7, [pc, #804]	; 1580 <SSP_rx_handler_HL+0x478>
    1258:	e1d730b0 	ldrh	r3, [r7]
	static unsigned char oldKey = 0;

	if (LL_1khz_attitude_data.system_flags & SF_GPS_NEW)
    125c:	e3130008 	tst	r3, #8

volatile unsigned char transmitBuildInfoTrigger = 0;

void SSP_data_distribution_HL(void) {
	unsigned char i;
	unsigned char current_page = LL_1khz_attitude_data.system_flags & 0x03;
    1260:	e2038003 	and	r8, r3, #3
	static unsigned char oldKey = 0;

	if (LL_1khz_attitude_data.system_flags & SF_GPS_NEW)
		gpsDataOkTrigger = 0;
    1264:	159f3320 	ldrne	r3, [pc, #800]	; 158c <SSP_rx_handler_HL+0x484>
    1268:	13a02000 	movne	r2, #0
    126c:	15832000 	strne	r2, [r3]

	IMU_CalcData.angle_nick = LL_1khz_attitude_data.angle_pitch * 10;
	IMU_CalcData.angle_roll = LL_1khz_attitude_data.angle_roll * 10;
	IMU_CalcData.angle_yaw = LL_1khz_attitude_data.angle_yaw * 10;
    1270:	e1d710b6 	ldrh	r1, [r7, #6]
	static unsigned char oldKey = 0;

	if (LL_1khz_attitude_data.system_flags & SF_GPS_NEW)
		gpsDataOkTrigger = 0;

	IMU_CalcData.angle_nick = LL_1khz_attitude_data.angle_pitch * 10;
    1274:	e1d730f2 	ldrsh	r3, [r7, #2]
	IMU_CalcData.angle_roll = LL_1khz_attitude_data.angle_roll * 10;
    1278:	e1d720f4 	ldrsh	r2, [r7, #4]
	static unsigned char oldKey = 0;

	if (LL_1khz_attitude_data.system_flags & SF_GPS_NEW)
		gpsDataOkTrigger = 0;

	IMU_CalcData.angle_nick = LL_1khz_attitude_data.angle_pitch * 10;
    127c:	e59f530c 	ldr	r5, [pc, #780]	; 1590 <SSP_rx_handler_HL+0x488>

	IMU_CalcData.angvel_nick = LL_1khz_attitude_data.angvel_pitch;
	IMU_CalcData.angvel_roll = LL_1khz_attitude_data.angvel_roll;
	IMU_CalcData.angvel_yaw = LL_1khz_attitude_data.angvel_yaw;

	RO_ALL_Data.angle_pitch = IMU_CalcData.angle_nick;
    1280:	e59f430c 	ldr	r4, [pc, #780]	; 1594 <SSP_rx_handler_HL+0x48c>

	IMU_CalcData.angle_nick = LL_1khz_attitude_data.angle_pitch * 10;
	IMU_CalcData.angle_roll = LL_1khz_attitude_data.angle_roll * 10;
	IMU_CalcData.angle_yaw = LL_1khz_attitude_data.angle_yaw * 10;

	IMU_CalcData.angvel_nick = LL_1khz_attitude_data.angvel_pitch;
    1284:	e1d700f8 	ldrsh	r0, [r7, #8]
	IMU_CalcData.angvel_roll = LL_1khz_attitude_data.angvel_roll;
    1288:	e1d7c0fa 	ldrsh	ip, [r7, #10]
	IMU_CalcData.angvel_yaw = LL_1khz_attitude_data.angvel_yaw;
    128c:	e1d7e0fc 	ldrsh	lr, [r7, #12]
	static unsigned char oldKey = 0;

	if (LL_1khz_attitude_data.system_flags & SF_GPS_NEW)
		gpsDataOkTrigger = 0;

	IMU_CalcData.angle_nick = LL_1khz_attitude_data.angle_pitch * 10;
    1290:	e0833103 	add	r3, r3, r3, lsl #2
	IMU_CalcData.angle_roll = LL_1khz_attitude_data.angle_roll * 10;
    1294:	e0822102 	add	r2, r2, r2, lsl #2
	IMU_CalcData.angle_yaw = LL_1khz_attitude_data.angle_yaw * 10;
    1298:	e0811101 	add	r1, r1, r1, lsl #2
	static unsigned char oldKey = 0;

	if (LL_1khz_attitude_data.system_flags & SF_GPS_NEW)
		gpsDataOkTrigger = 0;

	IMU_CalcData.angle_nick = LL_1khz_attitude_data.angle_pitch * 10;
    129c:	e1a03083 	lsl	r3, r3, #1
	IMU_CalcData.angle_roll = LL_1khz_attitude_data.angle_roll * 10;
    12a0:	e1a02082 	lsl	r2, r2, #1
	IMU_CalcData.angle_yaw = LL_1khz_attitude_data.angle_yaw * 10;
    12a4:	e1a01081 	lsl	r1, r1, #1

	RO_ALL_Data.angvel_pitch = LL_1khz_attitude_data.angvel_pitch;
	RO_ALL_Data.angvel_roll = LL_1khz_attitude_data.angvel_roll;
	RO_ALL_Data.angvel_yaw = LL_1khz_attitude_data.angvel_yaw;

	if (!current_page) //page 0
    12a8:	e3580000 	cmp	r8, #0

	IMU_CalcData.angvel_nick = LL_1khz_attitude_data.angvel_pitch;
	IMU_CalcData.angvel_roll = LL_1khz_attitude_data.angvel_roll;
	IMU_CalcData.angvel_yaw = LL_1khz_attitude_data.angvel_yaw;

	RO_ALL_Data.angle_pitch = IMU_CalcData.angle_nick;
    12ac:	e584301c 	str	r3, [r4, #28]
	RO_ALL_Data.angle_roll = IMU_CalcData.angle_roll;
    12b0:	e5842020 	str	r2, [r4, #32]
	RO_ALL_Data.angle_yaw = IMU_CalcData.angle_yaw;
    12b4:	e5841024 	str	r1, [r4, #36]	; 0x24

	RO_ALL_Data.angvel_pitch = LL_1khz_attitude_data.angvel_pitch;
    12b8:	e5840028 	str	r0, [r4, #40]	; 0x28
	RO_ALL_Data.angvel_roll = LL_1khz_attitude_data.angvel_roll;
    12bc:	e584c02c 	str	ip, [r4, #44]	; 0x2c
	RO_ALL_Data.angvel_yaw = LL_1khz_attitude_data.angvel_yaw;
    12c0:	e584e030 	str	lr, [r4, #48]	; 0x30
	static unsigned char oldKey = 0;

	if (LL_1khz_attitude_data.system_flags & SF_GPS_NEW)
		gpsDataOkTrigger = 0;

	IMU_CalcData.angle_nick = LL_1khz_attitude_data.angle_pitch * 10;
    12c4:	e5853000 	str	r3, [r5]
	IMU_CalcData.angle_roll = LL_1khz_attitude_data.angle_roll * 10;
    12c8:	e5852004 	str	r2, [r5, #4]
	IMU_CalcData.angle_yaw = LL_1khz_attitude_data.angle_yaw * 10;
    12cc:	e5851008 	str	r1, [r5, #8]

	IMU_CalcData.angvel_nick = LL_1khz_attitude_data.angvel_pitch;
    12d0:	e585000c 	str	r0, [r5, #12]
	IMU_CalcData.angvel_roll = LL_1khz_attitude_data.angvel_roll;
    12d4:	e585c010 	str	ip, [r5, #16]
	IMU_CalcData.angvel_yaw = LL_1khz_attitude_data.angvel_yaw;
    12d8:	e585e014 	str	lr, [r5, #20]
	static unsigned char oldKey = 0;

	if (LL_1khz_attitude_data.system_flags & SF_GPS_NEW)
		gpsDataOkTrigger = 0;

	IMU_CalcData.angle_nick = LL_1khz_attitude_data.angle_pitch * 10;
    12dc:	e1a09005 	mov	r9, r5

	IMU_CalcData.angvel_nick = LL_1khz_attitude_data.angvel_pitch;
	IMU_CalcData.angvel_roll = LL_1khz_attitude_data.angvel_roll;
	IMU_CalcData.angvel_yaw = LL_1khz_attitude_data.angvel_yaw;

	RO_ALL_Data.angle_pitch = IMU_CalcData.angle_nick;
    12e0:	e1a0a004 	mov	sl, r4

	RO_ALL_Data.angvel_pitch = LL_1khz_attitude_data.angvel_pitch;
	RO_ALL_Data.angvel_roll = LL_1khz_attitude_data.angvel_roll;
	RO_ALL_Data.angvel_yaw = LL_1khz_attitude_data.angvel_yaw;

	if (!current_page) //page 0
    12e4:	1a00002c 	bne	139c <SSP_rx_handler_HL+0x294>
    12e8:	e59f02a8 	ldr	r0, [pc, #680]	; 1598 <SSP_rx_handler_HL+0x490>
    12ec:	e1a01004 	mov	r1, r4
    12f0:	e1a02007 	mov	r2, r7
    12f4:	e287c008 	add	ip, r7, #8
    12f8:	e1a0e007 	mov	lr, r7
	{
		for (i = 0; i < 8; i++) {
			RO_RC_Data.channel[i] = LL_1khz_attitude_data.RC_data[i] * 16;
    12fc:	e5d2300e 	ldrb	r3, [r2, #14]
			RO_ALL_Data.channel[i] = RO_RC_Data.channel[i];
    1300:	e2822001 	add	r2, r2, #1
	RO_ALL_Data.angvel_yaw = LL_1khz_attitude_data.angvel_yaw;

	if (!current_page) //page 0
	{
		for (i = 0; i < 8; i++) {
			RO_RC_Data.channel[i] = LL_1khz_attitude_data.RC_data[i] * 16;
    1304:	e1a03203 	lsl	r3, r3, #4
	RO_ALL_Data.angvel_roll = LL_1khz_attitude_data.angvel_roll;
	RO_ALL_Data.angvel_yaw = LL_1khz_attitude_data.angvel_yaw;

	if (!current_page) //page 0
	{
		for (i = 0; i < 8; i++) {
    1308:	e15c0002 	cmp	ip, r2
			RO_RC_Data.channel[i] = LL_1khz_attitude_data.RC_data[i] * 16;
			RO_ALL_Data.channel[i] = RO_RC_Data.channel[i];
    130c:	e1c130bc 	strh	r3, [r1, #12]
	RO_ALL_Data.angvel_yaw = LL_1khz_attitude_data.angvel_yaw;

	if (!current_page) //page 0
	{
		for (i = 0; i < 8; i++) {
			RO_RC_Data.channel[i] = LL_1khz_attitude_data.RC_data[i] * 16;
    1310:	e0c030b2 	strh	r3, [r0], #2
			RO_ALL_Data.channel[i] = RO_RC_Data.channel[i];
    1314:	e2811002 	add	r1, r1, #2
	RO_ALL_Data.angvel_roll = LL_1khz_attitude_data.angvel_roll;
	RO_ALL_Data.angvel_yaw = LL_1khz_attitude_data.angvel_yaw;

	if (!current_page) //page 0
	{
		for (i = 0; i < 8; i++) {
    1318:	1afffff7 	bne	12fc <SSP_rx_handler_HL+0x1f4>
			RO_RC_Data.channel[i] = LL_1khz_attitude_data.RC_data[i] * 16;
			RO_ALL_Data.channel[i] = RO_RC_Data.channel[i];
		}
		IMU_CalcData.acc_x_calib = LL_1khz_attitude_data.acc_x * 10;
		IMU_CalcData.acc_y_calib = LL_1khz_attitude_data.acc_y * 10;
		IMU_CalcData.acc_z_calib = LL_1khz_attitude_data.acc_z * 10;
    131c:	e1de32f4 	ldrsh	r3, [lr, #36]	; 0x24
	{
		for (i = 0; i < 8; i++) {
			RO_RC_Data.channel[i] = LL_1khz_attitude_data.RC_data[i] * 16;
			RO_ALL_Data.channel[i] = RO_RC_Data.channel[i];
		}
		IMU_CalcData.acc_x_calib = LL_1khz_attitude_data.acc_x * 10;
    1320:	e1de22f0 	ldrsh	r2, [lr, #32]
		IMU_CalcData.acc_y_calib = LL_1khz_attitude_data.acc_y * 10;
    1324:	e1de12f2 	ldrsh	r1, [lr, #34]	; 0x22
		IMU_CalcData.acc_z_calib = LL_1khz_attitude_data.acc_z * 10;
    1328:	e0833103 	add	r3, r3, r3, lsl #2
	{
		for (i = 0; i < 8; i++) {
			RO_RC_Data.channel[i] = LL_1khz_attitude_data.RC_data[i] * 16;
			RO_ALL_Data.channel[i] = RO_RC_Data.channel[i];
		}
		IMU_CalcData.acc_x_calib = LL_1khz_attitude_data.acc_x * 10;
    132c:	e0822102 	add	r2, r2, r2, lsl #2
		IMU_CalcData.acc_y_calib = LL_1khz_attitude_data.acc_y * 10;
    1330:	e0811101 	add	r1, r1, r1, lsl #2
		IMU_CalcData.acc_z_calib = LL_1khz_attitude_data.acc_z * 10;
    1334:	e1a03883 	lsl	r3, r3, #17
    1338:	e1a00823 	lsr	r0, r3, #16
	{
		for (i = 0; i < 8; i++) {
			RO_RC_Data.channel[i] = LL_1khz_attitude_data.RC_data[i] * 16;
			RO_ALL_Data.channel[i] = RO_RC_Data.channel[i];
		}
		IMU_CalcData.acc_x_calib = LL_1khz_attitude_data.acc_x * 10;
    133c:	e1a02882 	lsl	r2, r2, #17
		IMU_CalcData.acc_y_calib = LL_1khz_attitude_data.acc_y * 10;
    1340:	e1a01881 	lsl	r1, r1, #17
	{
		for (i = 0; i < 8; i++) {
			RO_RC_Data.channel[i] = LL_1khz_attitude_data.RC_data[i] * 16;
			RO_ALL_Data.channel[i] = RO_RC_Data.channel[i];
		}
		IMU_CalcData.acc_x_calib = LL_1khz_attitude_data.acc_x * 10;
    1344:	e1a0c822 	lsr	ip, r2, #16
		IMU_CalcData.acc_y_calib = LL_1khz_attitude_data.acc_y * 10;
    1348:	e1a01821 	lsr	r1, r1, #16
		IMU_CalcData.acc_z_calib = LL_1khz_attitude_data.acc_z * 10;

		//system is initialized as soon as values differ from 0
		if (IMU_CalcData.acc_z_calib && (SYSTEM_initialized < 10))
    134c:	e3500000 	cmp	r0, #0
			RO_RC_Data.channel[i] = LL_1khz_attitude_data.RC_data[i] * 16;
			RO_ALL_Data.channel[i] = RO_RC_Data.channel[i];
		}
		IMU_CalcData.acc_x_calib = LL_1khz_attitude_data.acc_x * 10;
		IMU_CalcData.acc_y_calib = LL_1khz_attitude_data.acc_y * 10;
		IMU_CalcData.acc_z_calib = LL_1khz_attitude_data.acc_z * 10;
    1350:	e1c901bc 	strh	r0, [r9, #28]
	{
		for (i = 0; i < 8; i++) {
			RO_RC_Data.channel[i] = LL_1khz_attitude_data.RC_data[i] * 16;
			RO_ALL_Data.channel[i] = RO_RC_Data.channel[i];
		}
		IMU_CalcData.acc_x_calib = LL_1khz_attitude_data.acc_x * 10;
    1354:	e1c9c1b8 	strh	ip, [r9, #24]
		IMU_CalcData.acc_y_calib = LL_1khz_attitude_data.acc_y * 10;
    1358:	e1c911ba 	strh	r1, [r9, #26]
		IMU_CalcData.acc_z_calib = LL_1khz_attitude_data.acc_z * 10;

		//system is initialized as soon as values differ from 0
		if (IMU_CalcData.acc_z_calib && (SYSTEM_initialized < 10))
    135c:	0a000006 	beq	137c <SSP_rx_handler_HL+0x274>
    1360:	e59f2234 	ldr	r2, [pc, #564]	; 159c <SSP_rx_handler_HL+0x494>
    1364:	e5d23000 	ldrb	r3, [r2]
    1368:	e3530009 	cmp	r3, #9
			SYSTEM_initialized++;
    136c:	95d23000 	ldrbls	r3, [r2]
    1370:	92833001 	addls	r3, r3, #1
    1374:	920330ff 	andls	r3, r3, #255	; 0xff
    1378:	95c23000 	strbls	r3, [r2]
		RO_ALL_Data.acc_y = IMU_CalcData.acc_y_calib;
		RO_ALL_Data.acc_z = IMU_CalcData.acc_z_calib;

		RO_ALL_Data.fusion_latitude
				= LL_1khz_attitude_data.latitude_best_estimate;
		RO_ALL_Data.fusion_longitude
    137c:	e2872018 	add	r2, r7, #24
    1380:	e892000c 	ldm	r2, {r2, r3}
    1384:	e58a3090 	str	r3, [sl, #144]	; 0x90

		//system is initialized as soon as values differ from 0
		if (IMU_CalcData.acc_z_calib && (SYSTEM_initialized < 10))
			SYSTEM_initialized++;

		RO_ALL_Data.acc_x = IMU_CalcData.acc_x_calib;
    1388:	e1cac3b4 	strh	ip, [sl, #52]	; 0x34
		RO_ALL_Data.acc_y = IMU_CalcData.acc_y_calib;
    138c:	e1ca13b6 	strh	r1, [sl, #54]	; 0x36
		RO_ALL_Data.acc_z = IMU_CalcData.acc_z_calib;
    1390:	e1ca03b8 	strh	r0, [sl, #56]	; 0x38

		RO_ALL_Data.fusion_latitude
    1394:	e58a208c 	str	r2, [sl, #140]	; 0x8c
    1398:	eaffff73 	b	116c <SSP_rx_handler_HL+0x64>
				= LL_1khz_attitude_data.latitude_best_estimate;
		RO_ALL_Data.fusion_longitude
				= LL_1khz_attitude_data.longitude_best_estimate;

	} else if (current_page == 1) //page 1
    139c:	e3580001 	cmp	r8, #1
    13a0:	0a000057 	beq	1504 <SSP_rx_handler_HL+0x3fc>
		RO_ALL_Data.fusion_speed_y
				= LL_1khz_attitude_data.speed_y_best_estimate;
		for (i = 0; i < 6; i++) {
			RO_ALL_Data.motor_rpm[i] = LL_1khz_attitude_data.motor_data[i + 8];
		}
	} else if (current_page == 2) {
    13a4:	e3580002 	cmp	r8, #2
    13a8:	1affff6f 	bne	116c <SSP_rx_handler_HL+0x64>
		IMU_CalcData.Hx = LL_1khz_attitude_data.mag_x;
		IMU_CalcData.Hy = LL_1khz_attitude_data.mag_y;
		IMU_CalcData.Hz = LL_1khz_attitude_data.mag_z;
    13ac:	e1d734f6 	ldrsh	r3, [r7, #70]	; 0x46
		RO_ALL_Data.Hx = LL_1khz_attitude_data.mag_x;
		RO_ALL_Data.Hy = LL_1khz_attitude_data.mag_y;
		RO_ALL_Data.Hz = LL_1khz_attitude_data.mag_z;

		RO_ALL_Data.UAV_status = LL_1khz_attitude_data.flightMode;
		RO_ALL_Data.battery_voltage = HL_Status.battery_voltage_1;
    13b0:	e59fc1e8 	ldr	ip, [pc, #488]	; 15a0 <SSP_rx_handler_HL+0x498>
			RO_ALL_Data.motor_rpm[i] = LL_1khz_attitude_data.motor_data[i + 8];
		}
	} else if (current_page == 2) {
		IMU_CalcData.Hx = LL_1khz_attitude_data.mag_x;
		IMU_CalcData.Hy = LL_1khz_attitude_data.mag_y;
		IMU_CalcData.Hz = LL_1khz_attitude_data.mag_z;
    13b4:	e5853038 	str	r3, [r5, #56]	; 0x38

		RO_ALL_Data.Hx = LL_1khz_attitude_data.mag_x;
		RO_ALL_Data.Hy = LL_1khz_attitude_data.mag_y;
		RO_ALL_Data.Hz = LL_1khz_attitude_data.mag_z;
    13b8:	e5843044 	str	r3, [r4, #68]	; 0x44

		RO_ALL_Data.UAV_status = LL_1khz_attitude_data.flightMode;
    13bc:	e1d735b2 	ldrh	r3, [r7, #82]	; 0x52
    13c0:	e1c430b0 	strh	r3, [r4]
		RO_ALL_Data.battery_voltage = HL_Status.battery_voltage_1;
    13c4:	e1dc30b0 	ldrh	r3, [ip]
    13c8:	e1c430b6 	strh	r3, [r4, #6]
		RO_ALL_Data.flight_time = HL_Status.flight_time;
    13cc:	e1dc30b6 	ldrh	r3, [ip, #6]
    13d0:	e1c430b4 	strh	r3, [r4, #4]
		RO_ALL_Data.HL_cpu_load = HL_Status.cpu_load;
    13d4:	e1dc31b2 	ldrh	r3, [ip, #18]
		RO_ALL_Data.HL_up_time = HL_Status.up_time;

		if (LL_1khz_attitude_data.status2 & 0x01)
    13d8:	e1d725ba 	ldrh	r2, [r7, #90]	; 0x5a
		RO_ALL_Data.Hz = LL_1khz_attitude_data.mag_z;

		RO_ALL_Data.UAV_status = LL_1khz_attitude_data.flightMode;
		RO_ALL_Data.battery_voltage = HL_Status.battery_voltage_1;
		RO_ALL_Data.flight_time = HL_Status.flight_time;
		RO_ALL_Data.HL_cpu_load = HL_Status.cpu_load;
    13dc:	e1c430b8 	strh	r3, [r4, #8]
		RO_ALL_Data.HL_up_time = HL_Status.up_time;
    13e0:	e1dc30b4 	ldrh	r3, [ip, #4]

		if (LL_1khz_attitude_data.status2 & 0x01)
    13e4:	e212e001 	ands	lr, r2, #1

		RO_ALL_Data.UAV_status = LL_1khz_attitude_data.flightMode;
		RO_ALL_Data.battery_voltage = HL_Status.battery_voltage_1;
		RO_ALL_Data.flight_time = HL_Status.flight_time;
		RO_ALL_Data.HL_cpu_load = HL_Status.cpu_load;
		RO_ALL_Data.HL_up_time = HL_Status.up_time;
    13e8:	e1c430ba 	strh	r3, [r4, #10]

		if (LL_1khz_attitude_data.status2 & 0x01)
    13ec:	e1a02802 	lsl	r2, r2, #16
			RO_ALL_Data.flying = 1;
    13f0:	13a03001 	movne	r3, #1
    13f4:	15c43002 	strbne	r3, [r4, #2]
		else
			RO_ALL_Data.flying = 0;

		unsigned char slowDataUpChannelSelect = (LL_1khz_attitude_data.status2
				>> 1) & 0x7F;
		switch (slowDataUpChannelSelect) {
    13f8:	e1a038c2 	asr	r3, r2, #17
				= LL_1khz_attitude_data.speed_y_best_estimate;
		for (i = 0; i < 6; i++) {
			RO_ALL_Data.motor_rpm[i] = LL_1khz_attitude_data.motor_data[i + 8];
		}
	} else if (current_page == 2) {
		IMU_CalcData.Hx = LL_1khz_attitude_data.mag_x;
    13fc:	e1d714f2 	ldrsh	r1, [r7, #66]	; 0x42
		IMU_CalcData.Hy = LL_1khz_attitude_data.mag_y;
    1400:	e1d704f4 	ldrsh	r0, [r7, #68]	; 0x44
		else
			RO_ALL_Data.flying = 0;

		unsigned char slowDataUpChannelSelect = (LL_1khz_attitude_data.status2
				>> 1) & 0x7F;
		switch (slowDataUpChannelSelect) {
    1404:	e203307f 	and	r3, r3, #127	; 0x7f
    1408:	e2433001 	sub	r3, r3, #1
	} else if (current_page == 2) {
		IMU_CalcData.Hx = LL_1khz_attitude_data.mag_x;
		IMU_CalcData.Hy = LL_1khz_attitude_data.mag_y;
		IMU_CalcData.Hz = LL_1khz_attitude_data.mag_z;

		RO_ALL_Data.Hx = LL_1khz_attitude_data.mag_x;
    140c:	e584103c 	str	r1, [r4, #60]	; 0x3c
		RO_ALL_Data.Hy = LL_1khz_attitude_data.mag_y;
    1410:	e5840040 	str	r0, [r4, #64]	; 0x40
				= LL_1khz_attitude_data.speed_y_best_estimate;
		for (i = 0; i < 6; i++) {
			RO_ALL_Data.motor_rpm[i] = LL_1khz_attitude_data.motor_data[i + 8];
		}
	} else if (current_page == 2) {
		IMU_CalcData.Hx = LL_1khz_attitude_data.mag_x;
    1414:	e5851030 	str	r1, [r5, #48]	; 0x30
		IMU_CalcData.Hy = LL_1khz_attitude_data.mag_y;
    1418:	e5850034 	str	r0, [r5, #52]	; 0x34
		RO_ALL_Data.HL_up_time = HL_Status.up_time;

		if (LL_1khz_attitude_data.status2 & 0x01)
			RO_ALL_Data.flying = 1;
		else
			RO_ALL_Data.flying = 0;
    141c:	05c4e002 	strbeq	lr, [r4, #2]

		unsigned char slowDataUpChannelSelect = (LL_1khz_attitude_data.status2
				>> 1) & 0x7F;
		switch (slowDataUpChannelSelect) {
    1420:	e353000d 	cmp	r3, #13
    1424:	979ff103 	ldrls	pc, [pc, r3, lsl #2]
    1428:	eaffff4f 	b	116c <SSP_rx_handler_HL+0x64>
    142c:	00001464 	.word	0x00001464
    1430:	0000116c 	.word	0x0000116c
    1434:	0000116c 	.word	0x0000116c
    1438:	0000116c 	.word	0x0000116c
    143c:	0000116c 	.word	0x0000116c
    1440:	00001470 	.word	0x00001470
    1444:	00001480 	.word	0x00001480
    1448:	00001490 	.word	0x00001490
    144c:	0000116c 	.word	0x0000116c
    1450:	0000116c 	.word	0x0000116c
    1454:	0000116c 	.word	0x0000116c
    1458:	0000116c 	.word	0x0000116c
    145c:	000014a0 	.word	0x000014a0
    1460:	000014d0 	.word	0x000014d0
		case SUDC_FLIGHTTIME:

			HL_Status.flight_time
    1464:	e1d775b4 	ldrh	r7, [r7, #84]	; 0x54
    1468:	e1cc70b6 	strh	r7, [ip, #6]
    146c:	eaffff3e 	b	116c <SSP_rx_handler_HL+0x64>
					= LL_1khz_attitude_data.slowDataUpChannelDataShort;
			break;
		case SUDC_NAVSTATUS:
			wpCtrlNavStatus = LL_1khz_attitude_data.slowDataUpChannelDataShort;
    1470:	e59f312c 	ldr	r3, [pc, #300]	; 15a4 <SSP_rx_handler_HL+0x49c>
    1474:	e1d775b4 	ldrh	r7, [r7, #84]	; 0x54
    1478:	e1c370b0 	strh	r7, [r3]
    147c:	eaffff3a 	b	116c <SSP_rx_handler_HL+0x64>
			break;
		case SUDC_DISTTOWP:
			wpCtrlDistToWp = LL_1khz_attitude_data.slowDataUpChannelDataShort;
    1480:	e59f3120 	ldr	r3, [pc, #288]	; 15a8 <SSP_rx_handler_HL+0x4a0>
    1484:	e1d775b4 	ldrh	r7, [r7, #84]	; 0x54
    1488:	e1c370b0 	strh	r7, [r3]
    148c:	eaffff36 	b	116c <SSP_rx_handler_HL+0x64>
			break;
		case SUDC_WPACKTRIGGER:
			wpCtrlAckTrigger = LL_1khz_attitude_data.slowDataUpChannelDataShort;
    1490:	e1d725b4 	ldrh	r2, [r7, #84]	; 0x54
    1494:	e59f3110 	ldr	r3, [pc, #272]	; 15ac <SSP_rx_handler_HL+0x4a4>
    1498:	e5c32000 	strb	r2, [r3]
    149c:	eaffff32 	b	116c <SSP_rx_handler_HL+0x64>
			//if ((LL_1khz_attitude_data.slowDataUpChannelDataShort == OM_HEX)
			//		&& (fireflyLedEnabled == 0))
			//	fireflyLedEnabled = 1;
			break;
		case SUDC_JETIKEYVAL:
			if (oldKey != LL_1khz_attitude_data.slowDataUpChannelDataShort)
    14a0:	e59f4108 	ldr	r4, [pc, #264]	; 15b0 <SSP_rx_handler_HL+0x4a8>
    14a4:	e1d705b4 	ldrh	r0, [r7, #84]	; 0x54
    14a8:	e5d42000 	ldrb	r2, [r4]
    14ac:	e1a03800 	lsl	r3, r0, #16
    14b0:	e1520843 	cmp	r2, r3, asr #16
    14b4:	0a000003 	beq	14c8 <SSP_rx_handler_HL+0x3c0>
				jetiSetKeyChanged(
    14b8:	e20000ff 	and	r0, r0, #255	; 0xff
    14bc:	eb0011a9 	bl	5b68 <jetiSetKeyChanged>
    14c0:	e59f30b8 	ldr	r3, [pc, #184]	; 1580 <SSP_rx_handler_HL+0x478>
    14c4:	e1d305b4 	ldrh	r0, [r3, #84]	; 0x54
						LL_1khz_attitude_data.slowDataUpChannelDataShort);
			oldKey = LL_1khz_attitude_data.slowDataUpChannelDataShort;
    14c8:	e5c40000 	strb	r0, [r4]
    14cc:	eaffff26 	b	116c <SSP_rx_handler_HL+0x64>
			break;
		case SUDC_EM_MODE:
			if (emergencyModeUpdate == 2) {
    14d0:	e59f00dc 	ldr	r0, [pc, #220]	; 15b4 <SSP_rx_handler_HL+0x4ac>
    14d4:	e5d03000 	ldrb	r3, [r0]
    14d8:	e3530002 	cmp	r3, #2
    14dc:	0a00001c 	beq	1554 <SSP_rx_handler_HL+0x44c>
						!= emergencyMode)
					emergencyModeUpdate = 1;
				else
					emergencyModeUpdate = 0;
			} else
				emergencyMode
    14e0:	e1d725b4 	ldrh	r2, [r7, #84]	; 0x54
    14e4:	e59f30cc 	ldr	r3, [pc, #204]	; 15b8 <SSP_rx_handler_HL+0x4b0>
    14e8:	e5c32000 	strb	r2, [r3]
    14ec:	eaffff1e 	b	116c <SSP_rx_handler_HL+0x64>
	} else if (SPI_syncstate == 2) {
		if (SPI_rxcount == 26) //14 bytes transmitted => select 500Hz page
		{
			incoming_page = LL_1khz_attitude_data.system_flags & 0x03; //system flags were already received
			if (incoming_page == 1)
				SPI_rxptr += 26;
    14f0:	e59f1084 	ldr	r1, [pc, #132]	; 157c <SSP_rx_handler_HL+0x474>
    14f4:	e5913000 	ldr	r3, [r1]
    14f8:	e283301a 	add	r3, r3, #26
    14fc:	e5813000 	str	r3, [r1]
    1500:	eaffff35 	b	11dc <SSP_rx_handler_HL+0xd4>
				= LL_1khz_attitude_data.longitude_best_estimate;

	} else if (current_page == 1) //page 1
	{
		IMU_CalcData.height = LL_1khz_attitude_data.height;
		IMU_CalcData.dheight = LL_1khz_attitude_data.dheight;
    1504:	e1d734f0 	ldrsh	r3, [r7, #64]	; 0x40
    1508:	e5853050 	str	r3, [r5, #80]	; 0x50

		RO_ALL_Data.fusion_height = LL_1khz_attitude_data.height;
		RO_ALL_Data.fusion_dheight = LL_1khz_attitude_data.dheight;
    150c:	e5843088 	str	r3, [r4, #136]	; 0x88

		RO_ALL_Data.fusion_speed_x
    1510:	e1d733b8 	ldrh	r3, [r7, #56]	; 0x38
		RO_ALL_Data.fusion_longitude
				= LL_1khz_attitude_data.longitude_best_estimate;

	} else if (current_page == 1) //page 1
	{
		IMU_CalcData.height = LL_1khz_attitude_data.height;
    1514:	e597203c 	ldr	r2, [r7, #60]	; 0x3c
		IMU_CalcData.dheight = LL_1khz_attitude_data.dheight;

		RO_ALL_Data.fusion_height = LL_1khz_attitude_data.height;
		RO_ALL_Data.fusion_dheight = LL_1khz_attitude_data.dheight;

		RO_ALL_Data.fusion_speed_x
    1518:	e1c439b4 	strh	r3, [r4, #148]	; 0x94
				= LL_1khz_attitude_data.speed_x_best_estimate;
		RO_ALL_Data.fusion_speed_y
    151c:	e1d733ba 	ldrh	r3, [r7, #58]	; 0x3a
	} else if (current_page == 1) //page 1
	{
		IMU_CalcData.height = LL_1khz_attitude_data.height;
		IMU_CalcData.dheight = LL_1khz_attitude_data.dheight;

		RO_ALL_Data.fusion_height = LL_1khz_attitude_data.height;
    1520:	e5842084 	str	r2, [r4, #132]	; 0x84
		RO_ALL_Data.fusion_longitude
				= LL_1khz_attitude_data.longitude_best_estimate;

	} else if (current_page == 1) //page 1
	{
		IMU_CalcData.height = LL_1khz_attitude_data.height;
    1524:	e585204c 	str	r2, [r5, #76]	; 0x4c
		RO_ALL_Data.fusion_height = LL_1khz_attitude_data.height;
		RO_ALL_Data.fusion_dheight = LL_1khz_attitude_data.dheight;

		RO_ALL_Data.fusion_speed_x
				= LL_1khz_attitude_data.speed_x_best_estimate;
		RO_ALL_Data.fusion_speed_y
    1528:	e1c439b6 	strh	r3, [r4, #150]	; 0x96
    152c:	e1a00004 	mov	r0, r4
    1530:	e3a01000 	mov	r1, #0
				= LL_1khz_attitude_data.speed_y_best_estimate;
		for (i = 0; i < 6; i++) {
			RO_ALL_Data.motor_rpm[i] = LL_1khz_attitude_data.motor_data[i + 8];
    1534:	e0813007 	add	r3, r1, r7
    1538:	e5d32030 	ldrb	r2, [r3, #48]	; 0x30
    153c:	e2811001 	add	r1, r1, #1

		RO_ALL_Data.fusion_speed_x
				= LL_1khz_attitude_data.speed_x_best_estimate;
		RO_ALL_Data.fusion_speed_y
				= LL_1khz_attitude_data.speed_y_best_estimate;
		for (i = 0; i < 6; i++) {
    1540:	e3510006 	cmp	r1, #6
			RO_ALL_Data.motor_rpm[i] = LL_1khz_attitude_data.motor_data[i + 8];
    1544:	e5c02048 	strb	r2, [r0, #72]	; 0x48
    1548:	e2800001 	add	r0, r0, #1

		RO_ALL_Data.fusion_speed_x
				= LL_1khz_attitude_data.speed_x_best_estimate;
		RO_ALL_Data.fusion_speed_y
				= LL_1khz_attitude_data.speed_y_best_estimate;
		for (i = 0; i < 6; i++) {
    154c:	1afffff8 	bne	1534 <SSP_rx_handler_HL+0x42c>
    1550:	eaffff05 	b	116c <SSP_rx_handler_HL+0x64>
						LL_1khz_attitude_data.slowDataUpChannelDataShort);
			oldKey = LL_1khz_attitude_data.slowDataUpChannelDataShort;
			break;
		case SUDC_EM_MODE:
			if (emergencyModeUpdate == 2) {
				if (LL_1khz_attitude_data.slowDataUpChannelDataShort
    1554:	e59f205c 	ldr	r2, [pc, #92]	; 15b8 <SSP_rx_handler_HL+0x4b0>
    1558:	e1d735f4 	ldrsh	r3, [r7, #84]	; 0x54
    155c:	e5d21000 	ldrb	r1, [r2]
    1560:	e1530001 	cmp	r3, r1
						!= emergencyMode)
					emergencyModeUpdate = 1;
    1564:	13a03001 	movne	r3, #1
				else
					emergencyModeUpdate = 0;
    1568:	03a03000 	moveq	r3, #0
			break;
		case SUDC_EM_MODE:
			if (emergencyModeUpdate == 2) {
				if (LL_1khz_attitude_data.slowDataUpChannelDataShort
						!= emergencyMode)
					emergencyModeUpdate = 1;
    156c:	15c03000 	strbne	r3, [r0]
				else
					emergencyModeUpdate = 0;
    1570:	05c03000 	strbeq	r3, [r0]
    1574:	eafffefc 	b	116c <SSP_rx_handler_HL+0x64>
    1578:	40000975 	.word	0x40000975
    157c:	40000970 	.word	0x40000970
    1580:	40001700 	.word	0x40001700
    1584:	40000974 	.word	0x40000974
    1588:	4000096f 	.word	0x4000096f
    158c:	40000988 	.word	0x40000988
    1590:	40001928 	.word	0x40001928
    1594:	4000183c 	.word	0x4000183c
    1598:	4000182c 	.word	0x4000182c
    159c:	400009e0 	.word	0x400009e0
    15a0:	40001984 	.word	0x40001984
    15a4:	4000096a 	.word	0x4000096a
    15a8:	4000096c 	.word	0x4000096c
    15ac:	40000968 	.word	0x40000968
    15b0:	40000986 	.word	0x40000986
    15b4:	4000098c 	.word	0x4000098c
    15b8:	400018d4 	.word	0x400018d4

000015bc <fast_abs>:
inline int fast_abs(int x)
{

	if(x>0) return x; else return (-x);

}
    15bc:	e3500000 	cmp	r0, #0
    15c0:	b2600000 	rsblt	r0, r0, #0
    15c4:	e12fff1e 	bx	lr

000015c8 <fast_sqrt>:

int fast_sqrt(int x)
{
	int l=0,r=0;
	l=x;
	while(fast_abs(l-r)>1){
    15c8:	e0203fc0 	eor	r3, r0, r0, asr #31
    15cc:	e0433fc0 	sub	r3, r3, r0, asr #31
    15d0:	e3530001 	cmp	r3, #1
	if(x>0) return x; else return (-x);

}

int fast_sqrt(int x)
{
    15d4:	e92d4030 	push	{r4, r5, lr}
    15d8:	e1a05000 	mov	r5, r0
	int l=0,r=0;
	l=x;
	while(fast_abs(l-r)>1){
    15dc:	d1a04000 	movle	r4, r0
    15e0:	da00000b 	ble	1614 <fast_sqrt+0x4c>
    15e4:	e1a04000 	mov	r4, r0
		r=x/l;
    15e8:	e1a01004 	mov	r1, r4
    15ec:	e1a00005 	mov	r0, r5
    15f0:	eb0030a5 	bl	d88c <____divsi3_from_arm>
		l=(l+r)/2;
    15f4:	e0843000 	add	r3, r4, r0
    15f8:	e0833fa3 	add	r3, r3, r3, lsr #31
    15fc:	e1a040c3 	asr	r4, r3, #1

int fast_sqrt(int x)
{
	int l=0,r=0;
	l=x;
	while(fast_abs(l-r)>1){
    1600:	e0600004 	rsb	r0, r0, r4
    1604:	e3500000 	cmp	r0, #0
    1608:	b2600000 	rsblt	r0, r0, #0
    160c:	e3500001 	cmp	r0, #1
    1610:	cafffff4 	bgt	15e8 <fast_sqrt+0x20>
		r=x/l;
		l=(l+r)/2;
	}
	return(l);
}
    1614:	e1a00004 	mov	r0, r4
    1618:	e8bd4030 	pop	{r4, r5, lr}
    161c:	e12fff1e 	bx	lr

00001620 <xy2latlon>:
struct GPS_DATA gps_data_temp;

unsigned int gpsDataOkTrigger=0;

void xy2latlon(double lat0, double lon0, double X, double Y, double *lat, double *lon)	//X: East, Y: North in m; lat0,lon0: Reference coordinates; lat,lon: current GPS measurement
{
    1620:	e92d4ff0 	push	{r4, r5, r6, r7, r8, r9, sl, fp, lr}
        *lat=lat0+Y/MEAN_EARTH_DIAMETER*360./PI;
    1624:	e59f40f4 	ldr	r4, [pc, #244]	; 1720 <xy2latlon+0x100>
    1628:	e3a06101 	mov	r6, #1073741824	; 0x40000000
struct GPS_DATA gps_data_temp;

unsigned int gpsDataOkTrigger=0;

void xy2latlon(double lat0, double lon0, double X, double Y, double *lat, double *lon)	//X: East, Y: North in m; lat0,lon0: Reference coordinates; lat,lon: current GPS measurement
{
    162c:	e24dd008 	sub	sp, sp, #8
        *lat=lat0+Y/MEAN_EARTH_DIAMETER*360./PI;
    1630:	e3a05101 	mov	r5, #1073741824	; 0x40000000
    1634:	e2866876 	add	r6, r6, #7733248	; 0x760000
    1638:	e28f80d0 	add	r8, pc, #208	; 0xd0
    163c:	e8980300 	ldm	r8, {r8, r9}
struct GPS_DATA gps_data_temp;

unsigned int gpsDataOkTrigger=0;

void xy2latlon(double lat0, double lon0, double X, double Y, double *lat, double *lon)	//X: East, Y: North in m; lat0,lon0: Reference coordinates; lat,lon: current GPS measurement
{
    1640:	e1a0a000 	mov	sl, r0
    1644:	e1a0b001 	mov	fp, r1
    1648:	e88d000c 	stm	sp, {r2, r3}
        *lat=lat0+Y/MEAN_EARTH_DIAMETER*360./PI;
    164c:	e28d0034 	add	r0, sp, #52	; 0x34
    1650:	e8900003 	ldm	r0, {r0, r1}
    1654:	e1a02004 	mov	r2, r4
    1658:	e1a03005 	mov	r3, r5
    165c:	e2866902 	add	r6, r6, #32768	; 0x8000
    1660:	e3a07000 	mov	r7, #0
    1664:	eb001980 	bl	7c6c <__aeabi_ddiv>
    1668:	e1a02006 	mov	r2, r6
    166c:	e1a03007 	mov	r3, r7
    1670:	eb0018d9 	bl	79dc <__aeabi_dmul>
    1674:	e1a02008 	mov	r2, r8
    1678:	e1a03009 	mov	r3, r9
    167c:	eb00197a 	bl	7c6c <__aeabi_ddiv>
    1680:	e1a0200a 	mov	r2, sl
    1684:	e1a0300b 	mov	r3, fp
    1688:	eb0017ca 	bl	75b8 <__adddf3>
    168c:	e59d303c 	ldr	r3, [sp, #60]	; 0x3c
    1690:	e8830003 	stm	r3, {r0, r1}
        *lon=lon0+X/MEAN_EARTH_DIAMETER*360./PI/cos(lat0*UMR);
    1694:	e1a02004 	mov	r2, r4
    1698:	e1a03005 	mov	r3, r5
    169c:	e28d002c 	add	r0, sp, #44	; 0x2c
    16a0:	e8900003 	ldm	r0, {r0, r1}
    16a4:	eb001970 	bl	7c6c <__aeabi_ddiv>
    16a8:	e1a02006 	mov	r2, r6
    16ac:	e1a03007 	mov	r3, r7
    16b0:	eb0018c9 	bl	79dc <__aeabi_dmul>
    16b4:	e1a02008 	mov	r2, r8
    16b8:	e1a03009 	mov	r3, r9
    16bc:	eb00196a 	bl	7c6c <__aeabi_ddiv>
    16c0:	e28f2050 	add	r2, pc, #80	; 0x50
    16c4:	e892000c 	ldm	r2, {r2, r3}
    16c8:	e1a04000 	mov	r4, r0
    16cc:	e1a05001 	mov	r5, r1
    16d0:	e1a0000a 	mov	r0, sl
    16d4:	e1a0100b 	mov	r1, fp
    16d8:	eb0018bf 	bl	79dc <__aeabi_dmul>
    16dc:	eb00306d 	bl	d898 <__cos_from_arm>
    16e0:	e1a02000 	mov	r2, r0
    16e4:	e1a03001 	mov	r3, r1
    16e8:	e1a00004 	mov	r0, r4
    16ec:	e1a01005 	mov	r1, r5
    16f0:	eb00195d 	bl	7c6c <__aeabi_ddiv>
    16f4:	e89d000c 	ldm	sp, {r2, r3}
    16f8:	eb0017ae 	bl	75b8 <__adddf3>
    16fc:	e59d3040 	ldr	r3, [sp, #64]	; 0x40
    1700:	e8830003 	stm	r3, {r0, r1}
}
    1704:	e28dd008 	add	sp, sp, #8
    1708:	e8bd4ff0 	pop	{r4, r5, r6, r7, r8, r9, sl, fp, lr}
    170c:	e12fff1e 	bx	lr
    1710:	400921fb 	.word	0x400921fb
    1714:	54442d18 	.word	0x54442d18
    1718:	3f91df46 	.word	0x3f91df46
    171c:	a2529d39 	.word	0xa2529d39
    1720:	416854a6 	.word	0x416854a6

00001724 <SDK_SetEmergencyMode>:
			!= EM_RETURN_AT_MISSION_SUMMIT) && (mode
			!= EM_RETURN_AT_PREDEFINED_HEIGHT))
		return;
	emergencyMode = mode;
	emergencyModeUpdate = 1;
}
    1724:	e12fff1e 	bx	lr

00001728 <SDK_mainloop>:

int errs = 0;
int dmcs = 0;

void SDK_mainloop(void)
{
    1728:	e92d4030 	push	{r4, r5, lr}
	int i;
	char dbgMsg[100];

	// Read any characters in the recieve buffer into our RingBuffer
	
	LED(0,ON);
    172c:	e3a00000 	mov	r0, #0
    1730:	e3a01001 	mov	r1, #1
    1734:	eb00043c 	bl	282c <LED>
	emptyUART0();
    1738:	eb000627 	bl	2fdc <emptyUART0>
	LED(0,OFF);
    173c:	e3a00000 	mov	r0, #0
    1740:	e1a01000 	mov	r1, r0
    1744:	eb000438 	bl	282c <LED>

	if ( loadFrame() ) //We have received a valid frame...
    1748:	eb0016d1 	bl	7294 <loadFrame>
    174c:	e3500000 	cmp	r0, #0
	{
		 
		switch (frame.command)
    1750:	e59f4098 	ldr	r4, [pc, #152]	; 17f0 <SDK_mainloop+0xc8>
	
	LED(0,ON);
	emptyUART0();
	LED(0,OFF);

	if ( loadFrame() ) //We have received a valid frame...
    1754:	0a000006 	beq	1774 <SDK_mainloop+0x4c>
	{
		 
		switch (frame.command)
    1758:	e5d43001 	ldrb	r3, [r4, #1]
    175c:	e35300cc 	cmp	r3, #204	; 0xcc
    1760:	0a000005 	beq	177c <SDK_mainloop+0x54>
    1764:	e35300cd 	cmp	r3, #205	; 0xcd
    1768:	0a00001e 	beq	17e8 <SDK_mainloop+0xc0>
    176c:	e35300c9 	cmp	r3, #201	; 0xc9
    1770:	0a000004 	beq	1788 <SDK_mainloop+0x60>
				//sprintf(dbgMsg, "Unknown Command in Frame: %i", frame.command);
				//sendText(dbgMsg);
			break;
		}
	}
}	
    1774:	e8bd4030 	pop	{r4, r5, lr}
    1778:	e12fff1e 	bx	lr
				//write data to transmit buffer for immediate transfer to LL processor
				HL2LL_write_cycle();
				dmcs++;	
			break;
			case GPIO: //GPIO Pin P1.16
				GPIO_P1_B16(frame.data[0]);
    177c:	e5d40002 	ldrb	r0, [r4, #2]
    1780:	eb00044c 	bl	28b8 <GPIO_P1_B16>
    1784:	eafffffa 	b	1774 <SDK_mainloop+0x4c>
	{
		 
		switch (frame.command)
		{
			case DMC: //Direct Motor Command
				GPIO_P1_B16_TOGGLE(); // Toggle when we get a motor command.
    1788:	eb000461 	bl	2914 <GPIO_P1_B16_TOGGLE>
				 			  //1: enable control by HL processor

				WO_SDK.disable_motor_onoff_by_stick = 0;

				for (i = 0; i < 4; i++ )
					WO_Direct_Individual_Motor_Control.motor[i] = frame.data[i];
    178c:	e59f1060 	ldr	r1, [pc, #96]	; 17f4 <SDK_mainloop+0xcc>
		 
		switch (frame.command)
		{
			case DMC: //Direct Motor Command
				GPIO_P1_B16_TOGGLE(); // Toggle when we get a motor command.
				WO_SDK.ctrl_mode=0x00;	//0x00: direct individual motor control: individual commands for motors 0..3
    1790:	e59f0060 	ldr	r0, [pc, #96]	; 17f8 <SDK_mainloop+0xd0>
				 			  //1: enable control by HL processor

				WO_SDK.disable_motor_onoff_by_stick = 0;

				for (i = 0; i < 4; i++ )
					WO_Direct_Individual_Motor_Control.motor[i] = frame.data[i];
    1794:	e5d45005 	ldrb	r5, [r4, #5]
    1798:	e5d4c002 	ldrb	ip, [r4, #2]
    179c:	e5d4e003 	ldrb	lr, [r4, #3]
    17a0:	e5d44004 	ldrb	r4, [r4, #4]
		 
		switch (frame.command)
		{
			case DMC: //Direct Motor Command
				GPIO_P1_B16_TOGGLE(); // Toggle when we get a motor command.
				WO_SDK.ctrl_mode=0x00;	//0x00: direct individual motor control: individual commands for motors 0..3
    17a4:	e3a02000 	mov	r2, #0
				WO_SDK.ctrl_enabled = 1;  //0: disable control by HL processor
    17a8:	e3a03001 	mov	r3, #1
				WO_SDK.disable_motor_onoff_by_stick = 0;

				for (i = 0; i < 4; i++ )
					WO_Direct_Individual_Motor_Control.motor[i] = frame.data[i];
				WO_Direct_Individual_Motor_Control.motor[4] = 0;
				WO_Direct_Individual_Motor_Control.motor[5] = 0;
    17ac:	e5c12005 	strb	r2, [r1, #5]
		switch (frame.command)
		{
			case DMC: //Direct Motor Command
				GPIO_P1_B16_TOGGLE(); // Toggle when we get a motor command.
				WO_SDK.ctrl_mode=0x00;	//0x00: direct individual motor control: individual commands for motors 0..3
				WO_SDK.ctrl_enabled = 1;  //0: disable control by HL processor
    17b0:	e5c03001 	strb	r3, [r0, #1]
				 			  //1: enable control by HL processor

				WO_SDK.disable_motor_onoff_by_stick = 0;
    17b4:	e5c02002 	strb	r2, [r0, #2]
		 
		switch (frame.command)
		{
			case DMC: //Direct Motor Command
				GPIO_P1_B16_TOGGLE(); // Toggle when we get a motor command.
				WO_SDK.ctrl_mode=0x00;	//0x00: direct individual motor control: individual commands for motors 0..3
    17b8:	e5c02000 	strb	r2, [r0]

				WO_SDK.disable_motor_onoff_by_stick = 0;

				for (i = 0; i < 4; i++ )
					WO_Direct_Individual_Motor_Control.motor[i] = frame.data[i];
				WO_Direct_Individual_Motor_Control.motor[4] = 0;
    17bc:	e5c12004 	strb	r2, [r1, #4]
				 			  //1: enable control by HL processor

				WO_SDK.disable_motor_onoff_by_stick = 0;

				for (i = 0; i < 4; i++ )
					WO_Direct_Individual_Motor_Control.motor[i] = frame.data[i];
    17c0:	e5c1c000 	strb	ip, [r1]
    17c4:	e5c1e001 	strb	lr, [r1, #1]
    17c8:	e5c14002 	strb	r4, [r1, #2]
    17cc:	e5c15003 	strb	r5, [r1, #3]
				WO_Direct_Individual_Motor_Control.motor[4] = 0;
				WO_Direct_Individual_Motor_Control.motor[5] = 0;
				
				//write data to transmit buffer for immediate transfer to LL processor
				HL2LL_write_cycle();
    17d0:	ebfffb13 	bl	424 <HL2LL_write_cycle>
				dmcs++;	
    17d4:	e59f2020 	ldr	r2, [pc, #32]	; 17fc <SDK_mainloop+0xd4>
    17d8:	e5923000 	ldr	r3, [r2]
    17dc:	e2833001 	add	r3, r3, #1
    17e0:	e5823000 	str	r3, [r2]
    17e4:	eaffffe2 	b	1774 <SDK_mainloop+0x4c>
			break;
			case GPIO: //GPIO Pin P1.16
				GPIO_P1_B16(frame.data[0]);
			break;
			case GPIOTOGGLE:
				GPIO_P1_B16_TOGGLE();
    17e8:	eb000449 	bl	2914 <GPIO_P1_B16_TOGGLE>
    17ec:	eaffffe0 	b	1774 <SDK_mainloop+0x4c>
    17f0:	40001ee0 	.word	0x40001ee0
    17f4:	4000181c 	.word	0x4000181c
    17f8:	40001828 	.word	0x40001828
    17fc:	400009ac 	.word	0x400009ac

00001800 <buzzer>:


void buzzer(unsigned char offon)
{

	if(offon)	//beeper on
    1800:	e31000ff 	tst	r0, #255	; 0xff
	{
		IOSET1 = (1<<17);
	}
	else
	{
		IOCLR1 = (1<<17);
    1804:	e3a0120e 	mov	r1, #-536870912	; 0xe0000000
void buzzer(unsigned char offon)
{

	if(offon)	//beeper on
	{
		IOSET1 = (1<<17);
    1808:	e3a0220e 	mov	r2, #-536870912	; 0xe0000000
	}
	else
	{
		IOCLR1 = (1<<17);
    180c:	e281190a 	add	r1, r1, #163840	; 0x28000
void buzzer(unsigned char offon)
{

	if(offon)	//beeper on
	{
		IOSET1 = (1<<17);
    1810:	e282290a 	add	r2, r2, #163840	; 0x28000
    1814:	13a03802 	movne	r3, #131072	; 0x20000
	}
	else
	{
		IOCLR1 = (1<<17);
    1818:	03a03802 	moveq	r3, #131072	; 0x20000
void buzzer(unsigned char offon)
{

	if(offon)	//beeper on
	{
		IOSET1 = (1<<17);
    181c:	15823014 	strne	r3, [r2, #20]
	}
	else
	{
		IOCLR1 = (1<<17);
    1820:	0581301c 	streq	r3, [r1, #28]
    1824:	e12fff1e 	bx	lr

00001828 <buzzer_handler>:
unsigned char buzzer_warnings=BUZZER_WARNING_INIT_BEEP|BUZZER_WARNING_GPS_BEEP;
unsigned short ALARM_battery_warning_voltage_high=10600;
unsigned short ALARM_battery_warning_voltage_low=10100;

void buzzer_handler(unsigned int vbat)	//needs to be triggered at 100 Hz
{
    1828:	e92d40f0 	push	{r4, r5, r6, r7, lr}
	static char bat_warning_enabled=0;

	unsigned char i;


	if(++buz_cnt>=BUZZ_INTERVAL) buz_cnt=0;
    182c:	e59f6574 	ldr	r6, [pc, #1396]	; 1da8 <buzzer_handler+0x580>
    1830:	e1d630b0 	ldrh	r3, [r6]
    1834:	e2833001 	add	r3, r3, #1

	//battery warning
	if(++bat_cnt==100){
    1838:	e59f456c 	ldr	r4, [pc, #1388]	; 1dac <buzzer_handler+0x584>
	static char bat_warning_enabled=0;

	unsigned char i;


	if(++buz_cnt>=BUZZ_INTERVAL) buz_cnt=0;
    183c:	e1a03803 	lsl	r3, r3, #16
    1840:	e1a03823 	lsr	r3, r3, #16
    1844:	e35300c7 	cmp	r3, #199	; 0xc7
    1848:	e1c630b0 	strh	r3, [r6]

	//battery warning
	if(++bat_cnt==100){
    184c:	e5943000 	ldr	r3, [r4]
	static char bat_warning_enabled=0;

	unsigned char i;


	if(++buz_cnt>=BUZZ_INTERVAL) buz_cnt=0;
    1850:	83a02000 	movhi	r2, #0

	//battery warning
	if(++bat_cnt==100){
    1854:	e2833001 	add	r3, r3, #1
	static char bat_warning_enabled=0;

	unsigned char i;


	if(++buz_cnt>=BUZZ_INTERVAL) buz_cnt=0;
    1858:	81c620b0 	strhhi	r2, [r6]

	//battery warning
	if(++bat_cnt==100){
    185c:	e3530064 	cmp	r3, #100	; 0x64
unsigned char buzzer_warnings=BUZZER_WARNING_INIT_BEEP|BUZZER_WARNING_GPS_BEEP;
unsigned short ALARM_battery_warning_voltage_high=10600;
unsigned short ALARM_battery_warning_voltage_low=10100;

void buzzer_handler(unsigned int vbat)	//needs to be triggered at 100 Hz
{
    1860:	e1a0e000 	mov	lr, r0


	if(++buz_cnt>=BUZZ_INTERVAL) buz_cnt=0;

	//battery warning
	if(++bat_cnt==100){
    1864:	e5843000 	str	r3, [r4]
    1868:	159f5540 	ldrne	r5, [pc, #1344]	; 1db0 <buzzer_handler+0x588>
    186c:	159fc540 	ldrne	ip, [pc, #1344]	; 1db4 <buzzer_handler+0x58c>
    1870:	0a00012f 	beq	1d34 <buzzer_handler+0x50c>
		bat_cnt=0;
		bat_div=(ALARM_battery_warning_voltage_high-ALARM_battery_warning_voltage_low)/100;
	}
	if(vbat<ALARM_battery_warning_voltage_low) vbat=ALARM_battery_warning_voltage_low;
    1874:	e1dc10b0 	ldrh	r1, [ip]

	if(vbat<ALARM_battery_warning_voltage_high)	//decide if it's really an empty battery
    1878:	e1d530b0 	ldrh	r3, [r5]
	//battery warning
	if(++bat_cnt==100){
		bat_cnt=0;
		bat_div=(ALARM_battery_warning_voltage_high-ALARM_battery_warning_voltage_low)/100;
	}
	if(vbat<ALARM_battery_warning_voltage_low) vbat=ALARM_battery_warning_voltage_low;
    187c:	e151000e 	cmp	r1, lr
    1880:	21a00001 	movcs	r0, r1
    1884:	31a0000e 	movcc	r0, lr

	if(vbat<ALARM_battery_warning_voltage_high)	//decide if it's really an empty battery
    1888:	e1500003 	cmp	r0, r3
    188c:	2a00006b 	bcs	1a40 <buzzer_handler+0x218>
	{
		if(bat_warning<ControllerCyclesPerSecond/5) bat_warning++;
    1890:	e59f2520 	ldr	r2, [pc, #1312]	; 1db8 <buzzer_handler+0x590>
    1894:	e5923000 	ldr	r3, [r2]
    1898:	e35300c7 	cmp	r3, #199	; 0xc7
		else bat_warning_enabled=1;
    189c:	c59f3518 	ldrgt	r3, [pc, #1304]	; 1dbc <buzzer_handler+0x594>
	}
	if(vbat<ALARM_battery_warning_voltage_low) vbat=ALARM_battery_warning_voltage_low;

	if(vbat<ALARM_battery_warning_voltage_high)	//decide if it's really an empty battery
	{
		if(bat_warning<ControllerCyclesPerSecond/5) bat_warning++;
    18a0:	d2833001 	addle	r3, r3, #1
		else bat_warning_enabled=1;
    18a4:	c3a02001 	movgt	r2, #1
	}
	if(vbat<ALARM_battery_warning_voltage_low) vbat=ALARM_battery_warning_voltage_low;

	if(vbat<ALARM_battery_warning_voltage_high)	//decide if it's really an empty battery
	{
		if(bat_warning<ControllerCyclesPerSecond/5) bat_warning++;
    18a8:	d5823000 	strle	r3, [r2]
		else bat_warning_enabled=1;
    18ac:	c5c32000 	strbgt	r2, [r3]
	}
	if(vbat<ALARM_battery_warning_voltage_low) vbat=ALARM_battery_warning_voltage_low;

	if(vbat<ALARM_battery_warning_voltage_high)	//decide if it's really an empty battery
	{
		if(bat_warning<ControllerCyclesPerSecond/5) bat_warning++;
    18b0:	da000068 	ble	1a58 <buzzer_handler+0x230>
			buz_active&=~BU_BATTERY;
		}
	}
	if(bat_warning_enabled)
	{
		if(bat_cnt>((vbat-ALARM_battery_warning_voltage_low)/bat_div)) buz_active|=BU_BATTERY; //Beeper on
    18b4:	e59f3504 	ldr	r3, [pc, #1284]	; 1dc0 <buzzer_handler+0x598>
    18b8:	e0610000 	rsb	r0, r1, r0
    18bc:	e5931000 	ldr	r1, [r3]
    18c0:	eb002ff7 	bl	d8a4 <____udivsi3_from_arm>
    18c4:	e5943000 	ldr	r3, [r4]
    18c8:	e1530000 	cmp	r3, r0
    18cc:	83a01010 	movhi	r1, #16
    18d0:	81a00001 	movhi	r0, r1
    18d4:	93a01000 	movls	r1, #0
    18d8:	93a00010 	movls	r0, #16
	{
		buz_active&=~BU_BATTERY;
		buz_priority&=~BU_BATTERY;
	}

	if(buzzer_warnings&BUZZER_WARNING_GPS_BEEP)
    18dc:	e59f34e0 	ldr	r3, [pc, #1248]	; 1dc4 <buzzer_handler+0x59c>
    18e0:	e5d37000 	ldrb	r7, [r3]
    18e4:	e3170002 	tst	r7, #2
    18e8:	059f24d8 	ldreq	r2, [pc, #1240]	; 1dc8 <buzzer_handler+0x5a0>
    18ec:	0a000009 	beq	1918 <buzzer_handler+0xf0>
	{
		if(((GPS_Data.status&0xFF)!=3)&&(LL_1khz_attitude_data.RC_data[5]>200))	//no lock and in GPS mode
    18f0:	e59f34d4 	ldr	r3, [pc, #1236]	; 1dcc <buzzer_handler+0x5a4>
    18f4:	e5d32028 	ldrb	r2, [r3, #40]	; 0x28
    18f8:	e3520003 	cmp	r2, #3
    18fc:	0a000120 	beq	1d84 <buzzer_handler+0x55c>
    1900:	e59f24c0 	ldr	r2, [pc, #1216]	; 1dc8 <buzzer_handler+0x5a0>
    1904:	e5d23013 	ldrb	r3, [r2, #19]
    1908:	e35300c8 	cmp	r3, #200	; 0xc8
    190c:	8a000116 	bhi	1d6c <buzzer_handler+0x544>
			if(buz_cnt<5) buz_active|=BU_GPS_BEEP;
			else buz_active&=~BU_GPS_BEEP;
		}
		else
		{
			buz_active&=~BU_GPS_BEEP;
    1910:	e3c11c01 	bic	r1, r1, #256	; 0x100
			buz_priority&=~BU_GPS_BEEP;
    1914:	e3c00c01 	bic	r0, r0, #256	; 0x100
		}
	}

	//gyro error
	if((LL_1khz_attitude_data.flightMode&FM_CALIBRATION_ERROR_GYROS)&&(SYSTEM_initialized))
    1918:	e1d235b2 	ldrh	r3, [r2, #82]	; 0x52
    191c:	e1a04803 	lsl	r4, r3, #16
    1920:	e1a0c824 	lsr	ip, r4, #16
    1924:	e31c0c02 	tst	ip, #512	; 0x200
    1928:	0a000003 	beq	193c <buzzer_handler+0x114>
    192c:	e59f349c 	ldr	r3, [pc, #1180]	; 1dd0 <buzzer_handler+0x5a8>
    1930:	e5d32000 	ldrb	r2, [r3]
    1934:	e3520000 	cmp	r2, #0
    1938:	1a00009a 	bne	1ba8 <buzzer_handler+0x380>
		else if(buz_cnt<165) buz_active|=BU_ERROR_GYRO;
		else buz_active&=~BU_ERROR_GYRO;
	}
	else
	{
		buz_priority&=~BU_ERROR_GYRO;
    193c:	e3c00002 	bic	r0, r0, #2
		buz_active&=~BU_ERROR_GYRO;
    1940:	e3c11002 	bic	r1, r1, #2
	}

	//ACC error
	if((LL_1khz_attitude_data.flightMode&FM_CALIBRATION_ERROR_ACC)&&(SYSTEM_initialized))
    1944:	e31c0b01 	tst	ip, #1024	; 0x400
    1948:	0a000003 	beq	195c <buzzer_handler+0x134>
    194c:	e59f347c 	ldr	r3, [pc, #1148]	; 1dd0 <buzzer_handler+0x5a8>
    1950:	e5d32000 	ldrb	r2, [r3]
    1954:	e3520000 	cmp	r2, #0
    1958:	1a000084 	bne	1b70 <buzzer_handler+0x348>
		else if(buz_cnt<165) buz_active|=BU_ERROR_ACC;
		else buz_active&=~BU_ERROR_ACC;
	}
	else
	{
		buz_priority&=~BU_ERROR_ACC;
    195c:	e3c00004 	bic	r0, r0, #4
		buz_active&=~BU_ERROR_ACC;
    1960:	e3c11004 	bic	r1, r1, #4
	}

	//ADC error
	if((LL_1khz_attitude_data.flightMode&FM_ADC_STARTUP_ERROR)&&(SYSTEM_initialized))
    1964:	e31c0b02 	tst	ip, #2048	; 0x800
    1968:	0a000003 	beq	197c <buzzer_handler+0x154>
    196c:	e59f345c 	ldr	r3, [pc, #1116]	; 1dd0 <buzzer_handler+0x5a8>
    1970:	e5d32000 	ldrb	r2, [r3]
    1974:	e3520000 	cmp	r2, #0
    1978:	1a00006a 	bne	1b28 <buzzer_handler+0x300>
		else if(buz_cnt<165) buz_active|=BU_ERROR_ADC;
		else buz_active&=~BU_ERROR_ADC;
	}
	else
	{
		buz_priority&=~BU_ERROR_ADC;
    197c:	e3c0e008 	bic	lr, r0, #8
		buz_active&=~BU_ERROR_ADC;
    1980:	e3c10008 	bic	r0, r1, #8
	}

	//compass failure: warn 3 seconds only
	if((LL_1khz_attitude_data.flightMode&FM_COMPASS_FAILURE)&&(SYSTEM_initialized)&&(error_cnt_compass++<400))
    1984:	e31c0010 	tst	ip, #16
    1988:	0a000003 	beq	199c <buzzer_handler+0x174>
    198c:	e59f343c 	ldr	r3, [pc, #1084]	; 1dd0 <buzzer_handler+0x5a8>
    1990:	e5d32000 	ldrb	r2, [r3]
    1994:	e3520000 	cmp	r2, #0
    1998:	1a00003e 	bne	1a98 <buzzer_handler+0x270>
		else if(buz_cnt%100<50) buz_active&=~BU_COMPASS_FAILURE;
		else buz_active&=~BU_COMPASS_FAILURE;
	}
	else
	{
		buz_priority&=~BU_COMPASS_FAILURE;
    199c:	e3cee020 	bic	lr, lr, #32
		buz_active&=~BU_COMPASS_FAILURE;
    19a0:	e3c00020 	bic	r0, r0, #32
	}

	//mag fieldstrength warning: warn 3 times only
	if((LL_1khz_attitude_data.flightMode&FM_MAG_FIELD_STRENGTH_ERROR)&&(SYSTEM_initialized)&&(error_cnt_mag_fs++<400))
    19a4:	e31c0901 	tst	ip, #16384	; 0x4000
    19a8:	0a000003 	beq	19bc <buzzer_handler+0x194>
    19ac:	e59f341c 	ldr	r3, [pc, #1052]	; 1dd0 <buzzer_handler+0x5a8>
    19b0:	e5d32000 	ldrb	r2, [r3]
    19b4:	e3520000 	cmp	r2, #0
    19b8:	1a000084 	bne	1bd0 <buzzer_handler+0x3a8>
		else if(buz_cnt%100<30) buz_active&=~BU_WARNING_MAG_FS;
		else buz_active&=~BU_WARNING_MAG_FS;
	}
	else
	{
		buz_priority&=~BU_WARNING_MAG_FS;
    19bc:	e3cec040 	bic	ip, lr, #64	; 0x40
		buz_active&=~BU_WARNING_MAG_FS;
    19c0:	e3c00040 	bic	r0, r0, #64	; 0x40
	}

	//mag inclination warning: warn 3 times only
	if((LL_1khz_attitude_data.flightMode&FM_MAG_INCLINATION_ERROR)&&(SYSTEM_initialized)&&(error_cnt_mag_inc++<400))
    19c4:	e3540000 	cmp	r4, #0
    19c8:	ba0000b5 	blt	1ca4 <buzzer_handler+0x47c>
		else if(buz_cnt%100<40) buz_active&=~BU_WARNING_MAG_INC;
		else buz_active&=~BU_WARNING_MAG_INC;
	}
	else
	{
		buz_priority&=~BU_WARNING_MAG_INC;
    19cc:	e3cc5080 	bic	r5, ip, #128	; 0x80
		buz_active&=~BU_WARNING_MAG_INC;
    19d0:	e3c04080 	bic	r4, r0, #128	; 0x80
	}

	if(buzzer_warnings&BUZZER_WARNING_INIT_BEEP)
    19d4:	e3170001 	tst	r7, #1
    19d8:	0a000006 	beq	19f8 <buzzer_handler+0x1d0>
	{
		if(!SYSTEM_initialized)
    19dc:	e59f33ec 	ldr	r3, [pc, #1004]	; 1dd0 <buzzer_handler+0x5a8>
    19e0:	e5d32000 	ldrb	r2, [r3]
    19e4:	e20200ff 	and	r0, r2, #255	; 0xff
    19e8:	e3500000 	cmp	r0, #0

#endif
		}
		else
		{
			buz_active&=~BU_INIT;
    19ec:	13c44001 	bicne	r4, r4, #1
			buz_priority&=~BU_INIT;
    19f0:	13c55001 	bicne	r5, r5, #1
		buz_active&=~BU_WARNING_MAG_INC;
	}

	if(buzzer_warnings&BUZZER_WARNING_INIT_BEEP)
	{
		if(!SYSTEM_initialized)
    19f4:	0a000091 	beq	1c40 <buzzer_handler+0x418>
#endif
		}
		else
		{
			buz_active&=~BU_INIT;
			buz_priority&=~BU_INIT;
    19f8:	e3a02000 	mov	r2, #0
    19fc:	e3a01001 	mov	r1, #1
	}

	//buzzer control
	for(i=0;i<BUZZ_NR_OF_WARNINGS; i++)
	{
		if(buz_priority&(1<<i))
    1a00:	e1a03211 	lsl	r3, r1, r2
    1a04:	e1150003 	tst	r5, r3
		{
			buz_active&=(1<<i);
    1a08:	e2822001 	add	r2, r2, #1
	}

	//buzzer control
	for(i=0;i<BUZZ_NR_OF_WARNINGS; i++)
	{
		if(buz_priority&(1<<i))
    1a0c:	1a000005 	bne	1a28 <buzzer_handler+0x200>
			buz_priority&=~BU_INIT;
		}
	}

	//buzzer control
	for(i=0;i<BUZZ_NR_OF_WARNINGS; i++)
    1a10:	e3520009 	cmp	r2, #9
    1a14:	0a000004 	beq	1a2c <buzzer_handler+0x204>
	{
		if(buz_priority&(1<<i))
    1a18:	e1a03211 	lsl	r3, r1, r2
    1a1c:	e1150003 	tst	r5, r3
		{
			buz_active&=(1<<i);
    1a20:	e2822001 	add	r2, r2, #1
	}

	//buzzer control
	for(i=0;i<BUZZ_NR_OF_WARNINGS; i++)
	{
		if(buz_priority&(1<<i))
    1a24:	0afffff9 	beq	1a10 <buzzer_handler+0x1e8>
		{
			buz_active&=(1<<i);
    1a28:	e0044003 	and	r4, r4, r3
			i=BUZZ_NR_OF_WARNINGS;
		}
	}

	if(buz_active) buzzer(ON);
    1a2c:	e3540000 	cmp	r4, #0
    1a30:	0a00000f 	beq	1a74 <buzzer_handler+0x24c>
    1a34:	e3a00001 	mov	r0, #1
	else buzzer(OFF);
}
    1a38:	e8bd40f0 	pop	{r4, r5, r6, r7, lr}
			buz_active&=(1<<i);
			i=BUZZ_NR_OF_WARNINGS;
		}
	}

	if(buz_active) buzzer(ON);
    1a3c:	eaffff6f 	b	1800 <buzzer>
		if(bat_warning<ControllerCyclesPerSecond/5) bat_warning++;
		else bat_warning_enabled=1;
	}
	else
	{
		if(bat_warning>10) bat_warning-=2;
    1a40:	e59f2370 	ldr	r2, [pc, #880]	; 1db8 <buzzer_handler+0x590>
    1a44:	e5923000 	ldr	r3, [r2]
    1a48:	e353000a 	cmp	r3, #10
    1a4c:	c2433002 	subgt	r3, r3, #2
    1a50:	c5823000 	strgt	r3, [r2]
    1a54:	da000009 	ble	1a80 <buzzer_handler+0x258>
		{
			bat_warning_enabled=0;
			buz_active&=~BU_BATTERY;
		}
	}
	if(bat_warning_enabled)
    1a58:	e59f335c 	ldr	r3, [pc, #860]	; 1dbc <buzzer_handler+0x594>
    1a5c:	e5d32000 	ldrb	r2, [r3]
    1a60:	e3520000 	cmp	r2, #0
    1a64:	01a01002 	moveq	r1, r2
    1a68:	01a00001 	moveq	r0, r1
    1a6c:	0affff9a 	beq	18dc <buzzer_handler+0xb4>
    1a70:	eaffff8f 	b	18b4 <buzzer_handler+0x8c>
			i=BUZZ_NR_OF_WARNINGS;
		}
	}

	if(buz_active) buzzer(ON);
	else buzzer(OFF);
    1a74:	e1a00004 	mov	r0, r4
}
    1a78:	e8bd40f0 	pop	{r4, r5, r6, r7, lr}
			i=BUZZ_NR_OF_WARNINGS;
		}
	}

	if(buz_active) buzzer(ON);
	else buzzer(OFF);
    1a7c:	eaffff5f 	b	1800 <buzzer>
	else
	{
		if(bat_warning>10) bat_warning-=2;
		else
		{
			bat_warning_enabled=0;
    1a80:	e3a02000 	mov	r2, #0
    1a84:	e59f3330 	ldr	r3, [pc, #816]	; 1dbc <buzzer_handler+0x594>
    1a88:	e1a01002 	mov	r1, r2
    1a8c:	e1a00002 	mov	r0, r2
    1a90:	e5c32000 	strb	r2, [r3]
    1a94:	eaffff90 	b	18dc <buzzer_handler+0xb4>
		buz_priority&=~BU_ERROR_ADC;
		buz_active&=~BU_ERROR_ADC;
	}

	//compass failure: warn 3 seconds only
	if((LL_1khz_attitude_data.flightMode&FM_COMPASS_FAILURE)&&(SYSTEM_initialized)&&(error_cnt_compass++<400))
    1a98:	e59f2334 	ldr	r2, [pc, #820]	; 1dd4 <buzzer_handler+0x5ac>
    1a9c:	e1d230b0 	ldrh	r3, [r2]
    1aa0:	e3530e19 	cmp	r3, #400	; 0x190
    1aa4:	e2833001 	add	r3, r3, #1
    1aa8:	e1c230b0 	strh	r3, [r2]
    1aac:	2affffba 	bcs	199c <buzzer_handler+0x174>
	{
		buz_priority|=BU_COMPASS_FAILURE;
		if(buz_cnt%100<5) buz_active|=BU_COMPASS_FAILURE;
    1ab0:	e1d610b0 	ldrh	r1, [r6]
    1ab4:	e59f231c 	ldr	r2, [pc, #796]	; 1dd8 <buzzer_handler+0x5b0>
    1ab8:	e0835192 	umull	r5, r3, r2, r1
    1abc:	e1a032a3 	lsr	r3, r3, #5
    1ac0:	e0833103 	add	r3, r3, r3, lsl #2
    1ac4:	e0833103 	add	r3, r3, r3, lsl #2
    1ac8:	e0411103 	sub	r1, r1, r3, lsl #2
    1acc:	e1a01801 	lsl	r1, r1, #16
    1ad0:	e1a01821 	lsr	r1, r1, #16
    1ad4:	e3510004 	cmp	r1, #4
	}

	//compass failure: warn 3 seconds only
	if((LL_1khz_attitude_data.flightMode&FM_COMPASS_FAILURE)&&(SYSTEM_initialized)&&(error_cnt_compass++<400))
	{
		buz_priority|=BU_COMPASS_FAILURE;
    1ad8:	e38ee020 	orr	lr, lr, #32
		if(buz_cnt%100<5) buz_active|=BU_COMPASS_FAILURE;
    1adc:	9a00000f 	bls	1b20 <buzzer_handler+0x2f8>
		else if(buz_cnt%100<10) buz_active&=~BU_COMPASS_FAILURE;
    1ae0:	e3510009 	cmp	r1, #9
    1ae4:	9affffad 	bls	19a0 <buzzer_handler+0x178>
		else if(buz_cnt%100<15) buz_active|=BU_COMPASS_FAILURE;
    1ae8:	e351000e 	cmp	r1, #14
    1aec:	9a00000b 	bls	1b20 <buzzer_handler+0x2f8>
		else if(buz_cnt%100<20) buz_active&=~BU_COMPASS_FAILURE;
    1af0:	e3510013 	cmp	r1, #19
    1af4:	9affffa9 	bls	19a0 <buzzer_handler+0x178>
		else if(buz_cnt%100<25) buz_active|=BU_COMPASS_FAILURE;
    1af8:	e3510018 	cmp	r1, #24
    1afc:	9a000007 	bls	1b20 <buzzer_handler+0x2f8>
		else if(buz_cnt%100<30) buz_active&=~BU_COMPASS_FAILURE;
    1b00:	e351001d 	cmp	r1, #29
    1b04:	9affffa5 	bls	19a0 <buzzer_handler+0x178>
		else if(buz_cnt%100<35) buz_active|=BU_COMPASS_FAILURE;
    1b08:	e3510022 	cmp	r1, #34	; 0x22
    1b0c:	9a000003 	bls	1b20 <buzzer_handler+0x2f8>
		else if(buz_cnt%100<40) buz_active&=~BU_COMPASS_FAILURE;
    1b10:	e3510027 	cmp	r1, #39	; 0x27
    1b14:	9affffa1 	bls	19a0 <buzzer_handler+0x178>
		else if(buz_cnt%100<45) buz_active|=BU_COMPASS_FAILURE;
    1b18:	e351002c 	cmp	r1, #44	; 0x2c
    1b1c:	8affff9f 	bhi	19a0 <buzzer_handler+0x178>
    1b20:	e3800020 	orr	r0, r0, #32
    1b24:	eaffff9e 	b	19a4 <buzzer_handler+0x17c>

	//ADC error
	if((LL_1khz_attitude_data.flightMode&FM_ADC_STARTUP_ERROR)&&(SYSTEM_initialized))
	{
		buz_priority|=BU_ERROR_ADC;
		if(buz_cnt<135) buz_active|=BU_ERROR_ADC;
    1b28:	e1d630b0 	ldrh	r3, [r6]
    1b2c:	e3530086 	cmp	r3, #134	; 0x86
	}

	//ADC error
	if((LL_1khz_attitude_data.flightMode&FM_ADC_STARTUP_ERROR)&&(SYSTEM_initialized))
	{
		buz_priority|=BU_ERROR_ADC;
    1b30:	e380e008 	orr	lr, r0, #8
		if(buz_cnt<135) buz_active|=BU_ERROR_ADC;
    1b34:	9a00000b 	bls	1b68 <buzzer_handler+0x340>
		else if(buz_cnt<140) buz_active&=~BU_ERROR_ADC;
    1b38:	e353008b 	cmp	r3, #139	; 0x8b
    1b3c:	9affff8f 	bls	1980 <buzzer_handler+0x158>
		else if(buz_cnt<145) buz_active|=BU_ERROR_ADC;
    1b40:	e3530090 	cmp	r3, #144	; 0x90
    1b44:	9a000007 	bls	1b68 <buzzer_handler+0x340>
		else if(buz_cnt<150) buz_active&=~BU_ERROR_ADC;
    1b48:	e3530095 	cmp	r3, #149	; 0x95
    1b4c:	9affff8b 	bls	1980 <buzzer_handler+0x158>
		else if(buz_cnt<155) buz_active|=BU_ERROR_ADC;
    1b50:	e353009a 	cmp	r3, #154	; 0x9a
    1b54:	9a000003 	bls	1b68 <buzzer_handler+0x340>
		else if(buz_cnt<160) buz_active&=~BU_ERROR_ADC;
    1b58:	e353009f 	cmp	r3, #159	; 0x9f
    1b5c:	9affff87 	bls	1980 <buzzer_handler+0x158>
		else if(buz_cnt<165) buz_active|=BU_ERROR_ADC;
    1b60:	e35300a4 	cmp	r3, #164	; 0xa4
    1b64:	8affff85 	bhi	1980 <buzzer_handler+0x158>
    1b68:	e3810008 	orr	r0, r1, #8
    1b6c:	eaffff84 	b	1984 <buzzer_handler+0x15c>

	//ACC error
	if((LL_1khz_attitude_data.flightMode&FM_CALIBRATION_ERROR_ACC)&&(SYSTEM_initialized))
	{
		buz_priority|=BU_ERROR_ACC;
		if(buz_cnt<145) buz_active|=BU_ERROR_ACC;
    1b70:	e1d630b0 	ldrh	r3, [r6]
    1b74:	e3530090 	cmp	r3, #144	; 0x90
	}

	//ACC error
	if((LL_1khz_attitude_data.flightMode&FM_CALIBRATION_ERROR_ACC)&&(SYSTEM_initialized))
	{
		buz_priority|=BU_ERROR_ACC;
    1b78:	e3800004 	orr	r0, r0, #4
		if(buz_cnt<145) buz_active|=BU_ERROR_ACC;
    1b7c:	9a000007 	bls	1ba0 <buzzer_handler+0x378>
		else if(buz_cnt<150) buz_active&=~BU_ERROR_ACC;
    1b80:	e3530095 	cmp	r3, #149	; 0x95
    1b84:	9affff75 	bls	1960 <buzzer_handler+0x138>
		else if(buz_cnt<155) buz_active|=BU_ERROR_ACC;
    1b88:	e353009a 	cmp	r3, #154	; 0x9a
    1b8c:	9a000003 	bls	1ba0 <buzzer_handler+0x378>
		else if(buz_cnt<160) buz_active&=~BU_ERROR_ACC;
    1b90:	e353009f 	cmp	r3, #159	; 0x9f
    1b94:	9affff71 	bls	1960 <buzzer_handler+0x138>
		else if(buz_cnt<165) buz_active|=BU_ERROR_ACC;
    1b98:	e35300a4 	cmp	r3, #164	; 0xa4
    1b9c:	8affff6f 	bhi	1960 <buzzer_handler+0x138>
    1ba0:	e3811004 	orr	r1, r1, #4
    1ba4:	eaffff6e 	b	1964 <buzzer_handler+0x13c>

	//gyro error
	if((LL_1khz_attitude_data.flightMode&FM_CALIBRATION_ERROR_GYROS)&&(SYSTEM_initialized))
	{
		buz_priority|=BU_ERROR_GYRO;
		if(buz_cnt<155) buz_active|=BU_ERROR_GYRO;
    1ba8:	e1d630b0 	ldrh	r3, [r6]
    1bac:	e353009a 	cmp	r3, #154	; 0x9a
	}

	//gyro error
	if((LL_1khz_attitude_data.flightMode&FM_CALIBRATION_ERROR_GYROS)&&(SYSTEM_initialized))
	{
		buz_priority|=BU_ERROR_GYRO;
    1bb0:	e3800002 	orr	r0, r0, #2
		if(buz_cnt<155) buz_active|=BU_ERROR_GYRO;
    1bb4:	9a000003 	bls	1bc8 <buzzer_handler+0x3a0>
		else if(buz_cnt<160) buz_active&=~BU_ERROR_GYRO;
    1bb8:	e353009f 	cmp	r3, #159	; 0x9f
    1bbc:	9affff5f 	bls	1940 <buzzer_handler+0x118>
		else if(buz_cnt<165) buz_active|=BU_ERROR_GYRO;
    1bc0:	e35300a4 	cmp	r3, #164	; 0xa4
    1bc4:	8affff5d 	bhi	1940 <buzzer_handler+0x118>
    1bc8:	e3811002 	orr	r1, r1, #2
    1bcc:	eaffff5c 	b	1944 <buzzer_handler+0x11c>
		buz_priority&=~BU_COMPASS_FAILURE;
		buz_active&=~BU_COMPASS_FAILURE;
	}

	//mag fieldstrength warning: warn 3 times only
	if((LL_1khz_attitude_data.flightMode&FM_MAG_FIELD_STRENGTH_ERROR)&&(SYSTEM_initialized)&&(error_cnt_mag_fs++<400))
    1bd0:	e59f2204 	ldr	r2, [pc, #516]	; 1ddc <buzzer_handler+0x5b4>
    1bd4:	e1d230b0 	ldrh	r3, [r2]
    1bd8:	e3530e19 	cmp	r3, #400	; 0x190
    1bdc:	e2833001 	add	r3, r3, #1
    1be0:	e1c230b0 	strh	r3, [r2]
    1be4:	2affff74 	bcs	19bc <buzzer_handler+0x194>
	{
		buz_priority|=BU_WARNING_MAG_FS;
		if(buz_cnt%100<5) buz_active|=BU_WARNING_MAG_FS;
    1be8:	e1d610b0 	ldrh	r1, [r6]
    1bec:	e59f21e4 	ldr	r2, [pc, #484]	; 1dd8 <buzzer_handler+0x5b0>
    1bf0:	e083c192 	umull	ip, r3, r2, r1
    1bf4:	e1a032a3 	lsr	r3, r3, #5
    1bf8:	e0833103 	add	r3, r3, r3, lsl #2
    1bfc:	e0833103 	add	r3, r3, r3, lsl #2
    1c00:	e0411103 	sub	r1, r1, r3, lsl #2
    1c04:	e1a01801 	lsl	r1, r1, #16
    1c08:	e1a01821 	lsr	r1, r1, #16
    1c0c:	e3510004 	cmp	r1, #4
	}

	//mag fieldstrength warning: warn 3 times only
	if((LL_1khz_attitude_data.flightMode&FM_MAG_FIELD_STRENGTH_ERROR)&&(SYSTEM_initialized)&&(error_cnt_mag_fs++<400))
	{
		buz_priority|=BU_WARNING_MAG_FS;
    1c10:	e38ec040 	orr	ip, lr, #64	; 0x40
		if(buz_cnt%100<5) buz_active|=BU_WARNING_MAG_FS;
    1c14:	9a000007 	bls	1c38 <buzzer_handler+0x410>
		else if(buz_cnt%100<10) buz_active&=~BU_WARNING_MAG_FS;
    1c18:	e3510009 	cmp	r1, #9
    1c1c:	9affff67 	bls	19c0 <buzzer_handler+0x198>
		else if(buz_cnt%100<15) buz_active|=BU_WARNING_MAG_FS;
    1c20:	e351000e 	cmp	r1, #14
    1c24:	9a000003 	bls	1c38 <buzzer_handler+0x410>
		else if(buz_cnt%100<20) buz_active&=~BU_WARNING_MAG_FS;
    1c28:	e3510013 	cmp	r1, #19
    1c2c:	9affff63 	bls	19c0 <buzzer_handler+0x198>
		else if(buz_cnt%100<25) buz_active|=BU_WARNING_MAG_FS;
    1c30:	e3510018 	cmp	r1, #24
    1c34:	8affff61 	bhi	19c0 <buzzer_handler+0x198>
    1c38:	e3800040 	orr	r0, r0, #64	; 0x40
    1c3c:	eaffff60 	b	19c4 <buzzer_handler+0x19c>
		if(!SYSTEM_initialized)
		{
			buz_priority|=BU_INIT;

#ifndef MATLAB
			if(buz_cnt%100<5){buz_active|=BU_INIT; I2C1_setRGBLed(0, 0, 255);}
    1c40:	e1d610b0 	ldrh	r1, [r6]
    1c44:	e59f218c 	ldr	r2, [pc, #396]	; 1dd8 <buzzer_handler+0x5b0>
    1c48:	e083c192 	umull	ip, r3, r2, r1
    1c4c:	e1a032a3 	lsr	r3, r3, #5
    1c50:	e0833103 	add	r3, r3, r3, lsl #2
    1c54:	e0833103 	add	r3, r3, r3, lsl #2
    1c58:	e0411103 	sub	r1, r1, r3, lsl #2
    1c5c:	e1a01801 	lsl	r1, r1, #16
    1c60:	e1a01821 	lsr	r1, r1, #16
    1c64:	e3510004 	cmp	r1, #4

	if(buzzer_warnings&BUZZER_WARNING_INIT_BEEP)
	{
		if(!SYSTEM_initialized)
		{
			buz_priority|=BU_INIT;
    1c68:	e3855001 	orr	r5, r5, #1

#ifndef MATLAB
			if(buz_cnt%100<5){buz_active|=BU_INIT; I2C1_setRGBLed(0, 0, 255);}
    1c6c:	9a000048 	bls	1d94 <buzzer_handler+0x56c>
			else if(buz_cnt%100<10) {buz_active&=~BU_INIT; I2C1_setRGBLed(0, 0, 0);}
    1c70:	e3510009 	cmp	r1, #9
    1c74:	9a000005 	bls	1c90 <buzzer_handler+0x468>
			else if(buz_cnt%100<15) {buz_active|=BU_INIT; I2C1_setRGBLed(0, 0, 255);}
    1c78:	e351000e 	cmp	r1, #14
    1c7c:	9a000044 	bls	1d94 <buzzer_handler+0x56c>

			#if ((__BUILD_CONFIG==0x00) || (__BUILD_CONFIG==0x02))
				else if(buz_cnt%100<30) {buz_active&=~BU_INIT; I2C1_setRGBLed(0, 0, 0);}
    1c80:	e351001d 	cmp	r1, #29
    1c84:	9a000001 	bls	1c90 <buzzer_handler+0x468>
				else if(buz_cnt%100<35) {buz_active|=BU_INIT; I2C1_setRGBLed(0, 0, 255);}
    1c88:	e3510022 	cmp	r1, #34	; 0x22
    1c8c:	9a000040 	bls	1d94 <buzzer_handler+0x56c>
			#endif

			else {buz_active&=~BU_INIT; I2C1_setRGBLed(0, 0, 0);}
    1c90:	e1a01000 	mov	r1, r0
    1c94:	e1a02000 	mov	r2, r0
    1c98:	e3c44001 	bic	r4, r4, #1
    1c9c:	eb000c72 	bl	4e6c <I2C1_setRGBLed>
    1ca0:	eaffff54 	b	19f8 <buzzer_handler+0x1d0>
		buz_priority&=~BU_WARNING_MAG_FS;
		buz_active&=~BU_WARNING_MAG_FS;
	}

	//mag inclination warning: warn 3 times only
	if((LL_1khz_attitude_data.flightMode&FM_MAG_INCLINATION_ERROR)&&(SYSTEM_initialized)&&(error_cnt_mag_inc++<400))
    1ca4:	e59f3124 	ldr	r3, [pc, #292]	; 1dd0 <buzzer_handler+0x5a8>
    1ca8:	e5d32000 	ldrb	r2, [r3]
    1cac:	e3520000 	cmp	r2, #0
    1cb0:	0affff45 	beq	19cc <buzzer_handler+0x1a4>
    1cb4:	e59f2124 	ldr	r2, [pc, #292]	; 1de0 <buzzer_handler+0x5b8>
    1cb8:	e1d230b0 	ldrh	r3, [r2]
    1cbc:	e3530e19 	cmp	r3, #400	; 0x190
    1cc0:	e2833001 	add	r3, r3, #1
    1cc4:	e1c230b0 	strh	r3, [r2]
    1cc8:	2affff3f 	bcs	19cc <buzzer_handler+0x1a4>
	{
		buz_priority|=BU_WARNING_MAG_INC;
		if(buz_cnt%100<5) buz_active|=BU_WARNING_MAG_INC;
    1ccc:	e1d610b0 	ldrh	r1, [r6]
    1cd0:	e59f2100 	ldr	r2, [pc, #256]	; 1dd8 <buzzer_handler+0x5b0>
    1cd4:	e083e192 	umull	lr, r3, r2, r1
    1cd8:	e1a032a3 	lsr	r3, r3, #5
    1cdc:	e0833103 	add	r3, r3, r3, lsl #2
    1ce0:	e0833103 	add	r3, r3, r3, lsl #2
    1ce4:	e0411103 	sub	r1, r1, r3, lsl #2
    1ce8:	e1a01801 	lsl	r1, r1, #16
    1cec:	e1a01821 	lsr	r1, r1, #16
    1cf0:	e3510004 	cmp	r1, #4
	}

	//mag inclination warning: warn 3 times only
	if((LL_1khz_attitude_data.flightMode&FM_MAG_INCLINATION_ERROR)&&(SYSTEM_initialized)&&(error_cnt_mag_inc++<400))
	{
		buz_priority|=BU_WARNING_MAG_INC;
    1cf4:	e38c5080 	orr	r5, ip, #128	; 0x80
		if(buz_cnt%100<5) buz_active|=BU_WARNING_MAG_INC;
    1cf8:	9a00000b 	bls	1d2c <buzzer_handler+0x504>
		else if(buz_cnt%100<10) buz_active&=~BU_WARNING_MAG_INC;
    1cfc:	e3510009 	cmp	r1, #9
    1d00:	9affff32 	bls	19d0 <buzzer_handler+0x1a8>
		else if(buz_cnt%100<15) buz_active|=BU_WARNING_MAG_INC;
    1d04:	e351000e 	cmp	r1, #14
    1d08:	9a000007 	bls	1d2c <buzzer_handler+0x504>
		else if(buz_cnt%100<20) buz_active&=~BU_WARNING_MAG_INC;
    1d0c:	e3510013 	cmp	r1, #19
    1d10:	9affff2e 	bls	19d0 <buzzer_handler+0x1a8>
		else if(buz_cnt%100<25) buz_active|=BU_WARNING_MAG_INC;
    1d14:	e3510018 	cmp	r1, #24
    1d18:	9a000003 	bls	1d2c <buzzer_handler+0x504>
		else if(buz_cnt%100<30) buz_active&=~BU_WARNING_MAG_INC;
    1d1c:	e351001d 	cmp	r1, #29
    1d20:	9affff2a 	bls	19d0 <buzzer_handler+0x1a8>
		else if(buz_cnt%100<35) buz_active|=BU_WARNING_MAG_INC;
    1d24:	e3510022 	cmp	r1, #34	; 0x22
    1d28:	8affff28 	bhi	19d0 <buzzer_handler+0x1a8>
    1d2c:	e3804080 	orr	r4, r0, #128	; 0x80
    1d30:	eaffff27 	b	19d4 <buzzer_handler+0x1ac>
	if(++buz_cnt>=BUZZ_INTERVAL) buz_cnt=0;

	//battery warning
	if(++bat_cnt==100){
		bat_cnt=0;
		bat_div=(ALARM_battery_warning_voltage_high-ALARM_battery_warning_voltage_low)/100;
    1d34:	e59f5074 	ldr	r5, [pc, #116]	; 1db0 <buzzer_handler+0x588>
    1d38:	e59fc074 	ldr	ip, [pc, #116]	; 1db4 <buzzer_handler+0x58c>
    1d3c:	e1d530b0 	ldrh	r3, [r5]
    1d40:	e1dc20b0 	ldrh	r2, [ip]
    1d44:	e59f108c 	ldr	r1, [pc, #140]	; 1dd8 <buzzer_handler+0x5b0>
    1d48:	e0623003 	rsb	r3, r2, r3
    1d4c:	e0c02391 	smull	r2, r0, r1, r3
    1d50:	e1a03fc3 	asr	r3, r3, #31
    1d54:	e59f2064 	ldr	r2, [pc, #100]	; 1dc0 <buzzer_handler+0x598>
    1d58:	e06332c0 	rsb	r3, r3, r0, asr #5

	if(++buz_cnt>=BUZZ_INTERVAL) buz_cnt=0;

	//battery warning
	if(++bat_cnt==100){
		bat_cnt=0;
    1d5c:	e3a01000 	mov	r1, #0
		bat_div=(ALARM_battery_warning_voltage_high-ALARM_battery_warning_voltage_low)/100;
    1d60:	e5823000 	str	r3, [r2]

	if(++buz_cnt>=BUZZ_INTERVAL) buz_cnt=0;

	//battery warning
	if(++bat_cnt==100){
		bat_cnt=0;
    1d64:	e5841000 	str	r1, [r4]
    1d68:	eafffec1 	b	1874 <buzzer_handler+0x4c>
	if(buzzer_warnings&BUZZER_WARNING_GPS_BEEP)
	{
		if(((GPS_Data.status&0xFF)!=3)&&(LL_1khz_attitude_data.RC_data[5]>200))	//no lock and in GPS mode
		{
			buz_priority|=BU_GPS_BEEP;
			if(buz_cnt<5) buz_active|=BU_GPS_BEEP;
    1d6c:	e1d630b0 	ldrh	r3, [r6]
    1d70:	e3530004 	cmp	r3, #4

	if(buzzer_warnings&BUZZER_WARNING_GPS_BEEP)
	{
		if(((GPS_Data.status&0xFF)!=3)&&(LL_1khz_attitude_data.RC_data[5]>200))	//no lock and in GPS mode
		{
			buz_priority|=BU_GPS_BEEP;
    1d74:	e3800c01 	orr	r0, r0, #256	; 0x100
			if(buz_cnt<5) buz_active|=BU_GPS_BEEP;
    1d78:	93811c01 	orrls	r1, r1, #256	; 0x100
			else buz_active&=~BU_GPS_BEEP;
    1d7c:	83c11c01 	bichi	r1, r1, #256	; 0x100
    1d80:	eafffee4 	b	1918 <buzzer_handler+0xf0>
    1d84:	e59f203c 	ldr	r2, [pc, #60]	; 1dc8 <buzzer_handler+0x5a0>
		}
		else
		{
			buz_active&=~BU_GPS_BEEP;
    1d88:	e3c11c01 	bic	r1, r1, #256	; 0x100
			buz_priority&=~BU_GPS_BEEP;
    1d8c:	e3c00c01 	bic	r0, r0, #256	; 0x100
    1d90:	eafffee0 	b	1918 <buzzer_handler+0xf0>
			else if(buz_cnt%100<10) {buz_active&=~BU_INIT; I2C1_setRGBLed(0, 0, 0);}
			else if(buz_cnt%100<15) {buz_active|=BU_INIT; I2C1_setRGBLed(0, 0, 255);}

			#if ((__BUILD_CONFIG==0x00) || (__BUILD_CONFIG==0x02))
				else if(buz_cnt%100<30) {buz_active&=~BU_INIT; I2C1_setRGBLed(0, 0, 0);}
				else if(buz_cnt%100<35) {buz_active|=BU_INIT; I2C1_setRGBLed(0, 0, 255);}
    1d94:	e1a01000 	mov	r1, r0
    1d98:	e3a020ff 	mov	r2, #255	; 0xff
    1d9c:	e3844001 	orr	r4, r4, #1
    1da0:	eb000c31 	bl	4e6c <I2C1_setRGBLed>
    1da4:	eaffff13 	b	19f8 <buzzer_handler+0x1d0>
    1da8:	400009bc 	.word	0x400009bc
    1dac:	400009b8 	.word	0x400009b8
    1db0:	40000002 	.word	0x40000002
    1db4:	40000004 	.word	0x40000004
    1db8:	400009b4 	.word	0x400009b4
    1dbc:	400009b0 	.word	0x400009b0
    1dc0:	40000008 	.word	0x40000008
    1dc4:	40000000 	.word	0x40000000
    1dc8:	40001700 	.word	0x40001700
    1dcc:	400017b4 	.word	0x400017b4
    1dd0:	400009e0 	.word	0x400009e0
    1dd4:	400009be 	.word	0x400009be
    1dd8:	51eb851f 	.word	0x51eb851f
    1ddc:	400009c2 	.word	0x400009c2
    1de0:	400009c0 	.word	0x400009c0

00001de4 <generateBuildInfo>:
/*
 *  MODIFY THIS FUNCTION TO INCLUDE ALL IMPORTANT DEFINES OF A PROJECT
 */

void generateBuildInfo()
{
    1de4:	e92d4ff0 	push	{r4, r5, r6, r7, r8, r9, sl, fp, lr}
    1de8:	e24dd030 	sub	sp, sp, #48	; 0x30
	char months[12][3]={"Jan","Feb","Mar","Apr","May","Jun","Jul","Aug","Sep","Oct","Nov","Dez"};
    1dec:	e28d4001 	add	r4, sp, #1
    1df0:	e59f119c 	ldr	r1, [pc, #412]	; 1f94 <generateBuildInfo+0x1b0>
    1df4:	e3a02024 	mov	r2, #36	; 0x24
    1df8:	e1a00004 	mov	r0, r4
	    char dateStr[11]=__DATE__;
    1dfc:	e28d6025 	add	r6, sp, #37	; 0x25
 *  MODIFY THIS FUNCTION TO INCLUDE ALL IMPORTANT DEFINES OF A PROJECT
 */

void generateBuildInfo()
{
	char months[12][3]={"Jan","Feb","Mar","Apr","May","Jun","Jul","Aug","Sep","Oct","Nov","Dez"};
    1e00:	eb002e9e 	bl	d880 <__memcpy_from_arm>
	    char dateStr[11]=__DATE__;
    1e04:	e1a00006 	mov	r0, r6
    1e08:	e59f1188 	ldr	r1, [pc, #392]	; 1f98 <generateBuildInfo+0x1b4>
    1e0c:	e3a0200b 	mov	r2, #11
    1e10:	eb002e9a 	bl	d880 <__memcpy_from_arm>
    1e14:	e59f5180 	ldr	r5, [pc, #384]	; 1f9c <generateBuildInfo+0x1b8>
    1e18:	e3a00000 	mov	r0, #0
    1e1c:	e5dd7025 	ldrb	r7, [sp, #37]	; 0x25
    1e20:	e5dde026 	ldrb	lr, [sp, #38]	; 0x26
    1e24:	e5ddc027 	ldrb	ip, [sp, #39]	; 0x27
    1e28:	e1a0a000 	mov	sl, r0
    1e2c:	e1a09000 	mov	r9, r0
    1e30:	e1a0b000 	mov	fp, r0
    1e34:	e1a08000 	mov	r8, r0
    1e38:	ea000005 	b	1e54 <generateBuildInfo+0x70>
	    {
	            int cnt=0;
	            for (i=0;i<3;i++)
	                    if (months[z][i]==dateStr[i])
	                            cnt++;
	            if (cnt==3)
    1e3c:	e3510003 	cmp	r1, #3
	    int i,z;


	    m=1;

	    for (z=0;z<11;z++)
    1e40:	e2844003 	add	r4, r4, #3
	    {
	            int cnt=0;
	            for (i=0;i<3;i++)
	                    if (months[z][i]==dateStr[i])
	                            cnt++;
	            if (cnt==3)
    1e44:	0a000010 	beq	1e8c <generateBuildInfo+0xa8>
	    int i,z;


	    m=1;

	    for (z=0;z<11;z++)
    1e48:	e2800001 	add	r0, r0, #1
    1e4c:	e350000b 	cmp	r0, #11
    1e50:	0a00000f 	beq	1e94 <generateBuildInfo+0xb0>
/*
 *  MODIFY THIS FUNCTION TO INCLUDE ALL IMPORTANT DEFINES OF A PROJECT
 */

void generateBuildInfo()
{
    1e54:	e5d43000 	ldrb	r3, [r4]

	    for (z=0;z<11;z++)
	    {
	            int cnt=0;
	            for (i=0;i<3;i++)
	                    if (months[z][i]==dateStr[i])
    1e58:	e5d42001 	ldrb	r2, [r4, #1]
/*
 *  MODIFY THIS FUNCTION TO INCLUDE ALL IMPORTANT DEFINES OF A PROJECT
 */

void generateBuildInfo()
{
    1e5c:	e1530007 	cmp	r3, r7
    1e60:	13a01000 	movne	r1, #0
    1e64:	03a01001 	moveq	r1, #1

	    for (z=0;z<11;z++)
	    {
	            int cnt=0;
	            for (i=0;i<3;i++)
	                    if (months[z][i]==dateStr[i])
    1e68:	e5d43002 	ldrb	r3, [r4, #2]
    1e6c:	e152000e 	cmp	r2, lr
	                            cnt++;
    1e70:	02811001 	addeq	r1, r1, #1

	    for (z=0;z<11;z++)
	    {
	            int cnt=0;
	            for (i=0;i<3;i++)
	                    if (months[z][i]==dateStr[i])
    1e74:	e153000c 	cmp	r3, ip
    1e78:	1affffef 	bne	1e3c <generateBuildInfo+0x58>
	                            cnt++;
    1e7c:	e2811001 	add	r1, r1, #1
	            if (cnt==3)
    1e80:	e3510003 	cmp	r1, #3
	    int i,z;


	    m=1;

	    for (z=0;z<11;z++)
    1e84:	e2844003 	add	r4, r4, #3
	    {
	            int cnt=0;
	            for (i=0;i<3;i++)
	                    if (months[z][i]==dateStr[i])
	                            cnt++;
	            if (cnt==3)
    1e88:	1affffee 	bne	1e48 <generateBuildInfo+0x64>
	            {
	                    m=z+1;
    1e8c:	e2804001 	add	r4, r0, #1
    1e90:	ea000000 	b	1e98 <generateBuildInfo+0xb4>
	    int i,z;


	    m=1;

	    for (z=0;z<11;z++)
    1e94:	e3a04001 	mov	r4, #1
    1e98:	e3a02000 	mov	r2, #0
    1e9c:	e3a01030 	mov	r1, #48	; 0x30
	                    m=z+1;
	                    break;
	            }
	    }
	    for (z=0;z<11;z++)
	            if (dateStr[z]<48)
    1ea0:	e7d23006 	ldrb	r3, [r2, r6]
    1ea4:	e353002f 	cmp	r3, #47	; 0x2f
	                    dateStr[z]=48;
    1ea8:	97c21006 	strbls	r1, [r2, r6]
	            {
	                    m=z+1;
	                    break;
	            }
	    }
	    for (z=0;z<11;z++)
    1eac:	e2822001 	add	r2, r2, #1
    1eb0:	e352000b 	cmp	r2, #11
    1eb4:	1afffff9 	bne	1ea0 <generateBuildInfo+0xbc>

	    d=(dateStr[4]-48)*10+(dateStr[5]-48);
	    y=(dateStr[7]-48)*1000+(dateStr[8]-48)*100+(dateStr[9]-48)*10+(dateStr[10]-48);


	 buildInfo.build_date=y+m*10000+d*1000000;
    1eb8:	e5dd302d 	ldrb	r3, [sp, #45]	; 0x2d
    1ebc:	e5dd102c 	ldrb	r1, [sp, #44]	; 0x2c
    1ec0:	e0833103 	add	r3, r3, r3, lsl #2
    1ec4:	e5ddc029 	ldrb	ip, [sp, #41]	; 0x29
    1ec8:	e0612281 	rsb	r2, r1, r1, lsl #5
    1ecc:	e0833103 	add	r3, r3, r3, lsl #2
    1ed0:	e5dd002a 	ldrb	r0, [sp, #42]	; 0x2a
    1ed4:	e0811102 	add	r1, r1, r2, lsl #2
    1ed8:	e08cc10c 	add	ip, ip, ip, lsl #2
    1edc:	e5dde02f 	ldrb	lr, [sp, #47]	; 0x2f
    1ee0:	e1a03103 	lsl	r3, r3, #2
    1ee4:	e5dd202e 	ldrb	r2, [sp, #46]	; 0x2e
    1ee8:	e0833181 	add	r3, r3, r1, lsl #3
    1eec:	e080008c 	add	r0, r0, ip, lsl #1
    1ef0:	e083300e 	add	r3, r3, lr
    1ef4:	e2400e21 	sub	r0, r0, #528	; 0x210
    1ef8:	e0822102 	add	r2, r2, r2, lsl #2
    1efc:	e0833082 	add	r3, r3, r2, lsl #1
    1f00:	e0601280 	rsb	r1, r0, r0, lsl #5
    1f04:	e0611301 	rsb	r1, r1, r1, lsl #6
    1f08:	e2433a0d 	sub	r3, r3, #53248	; 0xd000
    1f0c:	e0642284 	rsb	r2, r4, r4, lsl #5
    1f10:	e0800181 	add	r0, r0, r1, lsl #3
    1f14:	e0842102 	add	r2, r4, r2, lsl #2
    1f18:	e2433050 	sub	r3, r3, #80	; 0x50
    1f1c:	e0833300 	add	r3, r3, r0, lsl #6
    1f20:	e0822102 	add	r2, r2, r2, lsl #2
    1f24:	e0833202 	add	r3, r3, r2, lsl #4
	 buildInfo.configuration=__BUILD_CONFIG;
	 buildInfo.build_number=0;
	 buildInfo.svn_modified=0;
	 buildInfo.svn_revision=0;
    1f28:	e3a01000 	mov	r1, #0

	    d=(dateStr[4]-48)*10+(dateStr[5]-48);
	    y=(dateStr[7]-48)*1000+(dateStr[8]-48)*100+(dateStr[9]-48)*10+(dateStr[10]-48);


	 buildInfo.build_date=y+m*10000+d*1000000;
    1f2c:	e1a0e423 	lsr	lr, r3, #8
    1f30:	e1a0c823 	lsr	ip, r3, #16
    1f34:	e1a00c23 	lsr	r0, r3, #24
    1f38:	e3a02003 	mov	r2, #3
    1f3c:	e5c53004 	strb	r3, [r5, #4]
    1f40:	e5c52000 	strb	r2, [r5]
    1f44:	e5c51011 	strb	r1, [r5, #17]
    1f48:	e5c58010 	strb	r8, [r5, #16]
    1f4c:	e5c5b012 	strb	fp, [r5, #18]
    1f50:	e5c5900b 	strb	r9, [r5, #11]
    1f54:	e5c5a00a 	strb	sl, [r5, #10]
    1f58:	e5c51009 	strb	r1, [r5, #9]
    1f5c:	e5c51008 	strb	r1, [r5, #8]
    1f60:	e5c5100f 	strb	r1, [r5, #15]
    1f64:	e5c5100e 	strb	r1, [r5, #14]
    1f68:	e5c5100d 	strb	r1, [r5, #13]
    1f6c:	e5c5100c 	strb	r1, [r5, #12]
    1f70:	e5c50007 	strb	r0, [r5, #7]
    1f74:	e5c5c006 	strb	ip, [r5, #6]
    1f78:	e5c5e005 	strb	lr, [r5, #5]
    1f7c:	e5c51003 	strb	r1, [r5, #3]
    1f80:	e5c51002 	strb	r1, [r5, #2]
    1f84:	e5c51001 	strb	r1, [r5, #1]
	 buildInfo.svn_modified=0;
	 buildInfo.svn_revision=0;
	 buildInfo.version_major=__VERSION_MAJOR;
	 buildInfo.version_minor=__VERSION_MINOR;

}
    1f88:	e28dd030 	add	sp, sp, #48	; 0x30
    1f8c:	e8bd4ff0 	pop	{r4, r5, r6, r7, r8, r9, sl, fp, lr}
    1f90:	e12fff1e 	bx	lr
    1f94:	0000d934 	.word	0x0000d934
    1f98:	0000d928 	.word	0x0000d928
    1f9c:	400018d5 	.word	0x400018d5

00001fa0 <RBInit>:

void UART0Debug(char *msg, int length);

void RBInit(RING_BUFFER *aBuffer)
{
	aBuffer->EOB = 0;
    1fa0:	e3a02000 	mov	r2, #0
	aBuffer->SOB = -1; //we increment first. 
    1fa4:	e3e03000 	mvn	r3, #0

void UART0Debug(char *msg, int length);

void RBInit(RING_BUFFER *aBuffer)
{
	aBuffer->EOB = 0;
    1fa8:	e5802000 	str	r2, [r0]
	aBuffer->SOB = -1; //we increment first. 
    1fac:	e5803004 	str	r3, [r0, #4]
	aBuffer->bytes = 0;
    1fb0:	e5c02008 	strb	r2, [r0, #8]
}
    1fb4:	e12fff1e 	bx	lr

00001fb8 <showBuffer>:
	for (i = 0; i < aBuffer->bytes; i++)
	{
		sprintf(msg, "Byte %i:%i\n\r", i, aBuffer->buffer[ aBuffer->SOB + i + 1]);
		sendText(msg);
	}
}
    1fb8:	e12fff1e 	bx	lr

00001fbc <RBPushBack>:
			RBDequeue(aBuffer);
}

void RBPushBack(RING_BUFFER *aBuffer, char aByte)
{
	aBuffer->buffer[ aBuffer->SOB ] = aByte;
    1fbc:	e5902004 	ldr	r2, [r0, #4]
    1fc0:	e0822000 	add	r2, r2, r0
    1fc4:	e2822008 	add	r2, r2, #8
		for ( i = 0; i < numToDiscard; i++)
			RBDequeue(aBuffer);
}

void RBPushBack(RING_BUFFER *aBuffer, char aByte)
{
    1fc8:	e20110ff 	and	r1, r1, #255	; 0xff
	aBuffer->buffer[ aBuffer->SOB ] = aByte;
    1fcc:	e5c21001 	strb	r1, [r2, #1]
	aBuffer->SOB--;
    1fd0:	e5903004 	ldr	r3, [r0, #4]
    1fd4:	e2433001 	sub	r3, r3, #1
    1fd8:	e5803004 	str	r3, [r0, #4]
	if ( aBuffer->SOB < 0 )
    1fdc:	e5902004 	ldr	r2, [r0, #4]
    1fe0:	e3520000 	cmp	r2, #0
		aBuffer->SOB = BUFF_LEN - 1;
    1fe4:	b3a03095 	movlt	r3, #149	; 0x95
    1fe8:	b5803004 	strlt	r3, [r0, #4]
	aBuffer->bytes++;
    1fec:	e5d03008 	ldrb	r3, [r0, #8]
    1ff0:	e2833001 	add	r3, r3, #1
    1ff4:	e20330ff 	and	r3, r3, #255	; 0xff
    1ff8:	e5c03008 	strb	r3, [r0, #8]
}
    1ffc:	e12fff1e 	bx	lr

00002000 <RBPeek>:
char RBPeek(RING_BUFFER *aBuffer)
{
	int idxNByte;
	char aByte;
	
	if ( aBuffer->bytes == 0 )
    2000:	e5d03008 	ldrb	r3, [r0, #8]
    2004:	e20330ff 	and	r3, r3, #255	; 0xff
    2008:	e3530000 	cmp	r3, #0
    200c:	0a000007 	beq	2030 <RBPeek+0x30>
		return 0;
	idxNByte = aBuffer->SOB + 1;
    2010:	e5903004 	ldr	r3, [r0, #4]
    2014:	e2833001 	add	r3, r3, #1
	
	if ( idxNByte >= BUFF_LEN )
    2018:	e3530095 	cmp	r3, #149	; 0x95
    201c:	c3a03000 	movgt	r3, #0
		idxNByte = 0;
	aByte = aBuffer->buffer[ idxNByte ];
    2020:	e0833000 	add	r3, r3, r0
    2024:	e2833008 	add	r3, r3, #8
    2028:	e5d32001 	ldrb	r2, [r3, #1]
    202c:	e20230ff 	and	r3, r2, #255	; 0xff
	return aByte;
}
    2030:	e1a00003 	mov	r0, r3
    2034:	e12fff1e 	bx	lr

00002038 <RBfindInBuffer>:

// Searches the Ring Buffer for a specific character within searchLen characters of start.
//  Returns index if found, -1 if not.
int RBfindInBuffer(RING_BUFFER *aBuffer, int startIndex, int searchLen, unsigned char aByte)
{
    2038:	e92d4030 	push	{r4, r5, lr}
    203c:	e1a05000 	mov	r5, r0
	int x, idx;
	int hit = -1;

	idx = aBuffer->SOB + startIndex + 1;
    2040:	e5900004 	ldr	r0, [r0, #4]
    2044:	e2800001 	add	r0, r0, #1
    2048:	e0811000 	add	r1, r1, r0

	if ( idx >= BUFF_LEN )
    204c:	e3510095 	cmp	r1, #149	; 0x95
		idx = idx - BUFF_LEN;
    2050:	c2411096 	subgt	r1, r1, #150	; 0x96
	
	for (x = 0; x < searchLen && hit == -1; x++)
    2054:	e3520000 	cmp	r2, #0
}

// Searches the Ring Buffer for a specific character within searchLen characters of start.
//  Returns index if found, -1 if not.
int RBfindInBuffer(RING_BUFFER *aBuffer, int startIndex, int searchLen, unsigned char aByte)
{
    2058:	e1a0e002 	mov	lr, r2
    205c:	e20340ff 	and	r4, r3, #255	; 0xff
	idx = aBuffer->SOB + startIndex + 1;

	if ( idx >= BUFF_LEN )
		idx = idx - BUFF_LEN;
	
	for (x = 0; x < searchLen && hit == -1; x++)
    2060:	d3e00000 	mvnle	r0, #0
    2064:	da000011 	ble	20b0 <RBfindInBuffer+0x78>
    2068:	e3a0c000 	mov	ip, #0
    206c:	e3e00000 	mvn	r0, #0
	{			
		if ( aBuffer->buffer[idx] == aByte )
    2070:	e0813005 	add	r3, r1, r5
    2074:	e2833008 	add	r3, r3, #8
    2078:	e5d32001 	ldrb	r2, [r3, #1]
    207c:	e1520004 	cmp	r2, r4
    2080:	01a0000c 	moveq	r0, ip
	idx = aBuffer->SOB + startIndex + 1;

	if ( idx >= BUFF_LEN )
		idx = idx - BUFF_LEN;
	
	for (x = 0; x < searchLen && hit == -1; x++)
    2084:	e28cc001 	add	ip, ip, #1
    2088:	e15e000c 	cmp	lr, ip
    208c:	d3a03000 	movle	r3, #0
    2090:	c3a03001 	movgt	r3, #1
	{			
		if ( aBuffer->buffer[idx] == aByte )
			hit = x;
		idx++;	
    2094:	e2811001 	add	r1, r1, #1
	idx = aBuffer->SOB + startIndex + 1;

	if ( idx >= BUFF_LEN )
		idx = idx - BUFF_LEN;
	
	for (x = 0; x < searchLen && hit == -1; x++)
    2098:	e3700001 	cmn	r0, #1
    209c:	13a03000 	movne	r3, #0
	{			
		if ( aBuffer->buffer[idx] == aByte )
			hit = x;
		idx++;	
		if ( idx >= BUFF_LEN )
    20a0:	e3510095 	cmp	r1, #149	; 0x95
    20a4:	c3a01000 	movgt	r1, #0
	idx = aBuffer->SOB + startIndex + 1;

	if ( idx >= BUFF_LEN )
		idx = idx - BUFF_LEN;
	
	for (x = 0; x < searchLen && hit == -1; x++)
    20a8:	e3530000 	cmp	r3, #0
    20ac:	1affffef 	bne	2070 <RBfindInBuffer+0x38>
		idx++;	
		if ( idx >= BUFF_LEN )
			idx = 0;
	}
	return hit; //Not found...	
}
    20b0:	e8bd4030 	pop	{r4, r5, lr}
    20b4:	e12fff1e 	bx	lr

000020b8 <RBCount>:

int RBCount(RING_BUFFER *aBuffer)
{
	return aBuffer->bytes;
    20b8:	e5d00008 	ldrb	r0, [r0, #8]
}
    20bc:	e12fff1e 	bx	lr

000020c0 <RBDequeue>:
	if (aBuffer->EOB >= BUFF_LEN)
		aBuffer->EOB = 0;
}

char RBDequeue(RING_BUFFER *aBuffer)
{
    20c0:	e92d4010 	push	{r4, lr}
    20c4:	e1a0c000 	mov	ip, r0
	char aByte;
	
	if ( aBuffer->bytes == 0 )
    20c8:	e5dc3008 	ldrb	r3, [ip, #8]
    20cc:	e20340ff 	and	r4, r3, #255	; 0xff
    20d0:	e3540000 	cmp	r4, #0
	{
		UART0Debug("RBDequeue: Buffer Empty!\n",25);
    20d4:	e3a01019 	mov	r1, #25
    20d8:	e59f0054 	ldr	r0, [pc, #84]	; 2134 <RBDequeue+0x74>

char RBDequeue(RING_BUFFER *aBuffer)
{
	char aByte;
	
	if ( aBuffer->bytes == 0 )
    20dc:	0a000011 	beq	2128 <RBDequeue+0x68>
		UART0Debug("RBDequeue: Buffer Empty!\n",25);
		return 0; //Empty buffer!
	}
	

	aBuffer->bytes--;
    20e0:	e5dc3008 	ldrb	r3, [ip, #8]
    20e4:	e2433001 	sub	r3, r3, #1
    20e8:	e20330ff 	and	r3, r3, #255	; 0xff
    20ec:	e5cc3008 	strb	r3, [ip, #8]
	aBuffer->SOB++;
    20f0:	e59c2004 	ldr	r2, [ip, #4]
    20f4:	e2822001 	add	r2, r2, #1
    20f8:	e58c2004 	str	r2, [ip, #4]
	if ( aBuffer->SOB >= BUFF_LEN)
    20fc:	e59c3004 	ldr	r3, [ip, #4]
    2100:	e3530095 	cmp	r3, #149	; 0x95
		aBuffer->SOB = 0;
    2104:	c3a03000 	movgt	r3, #0
    2108:	c58c3004 	strgt	r3, [ip, #4]

	aByte = aBuffer->buffer[ aBuffer->SOB ];
    210c:	e59c3004 	ldr	r3, [ip, #4]
    2110:	e083300c 	add	r3, r3, ip
    2114:	e2833008 	add	r3, r3, #8
    2118:	e5d32001 	ldrb	r2, [r3, #1]
    211c:	e20200ff 	and	r0, r2, #255	; 0xff
	
	
	return aByte;
}
    2120:	e8bd4010 	pop	{r4, lr}
    2124:	e12fff1e 	bx	lr
{
	char aByte;
	
	if ( aBuffer->bytes == 0 )
	{
		UART0Debug("RBDequeue: Buffer Empty!\n",25);
    2128:	eb000400 	bl	3130 <UART0Debug>
    212c:	e1a00004 	mov	r0, r4
    2130:	eafffffa 	b	2120 <RBDequeue+0x60>
    2134:	0000d958 	.word	0x0000d958

00002138 <RBDiscard>:
	
	return aByte;
}

void RBDiscard(RING_BUFFER *aBuffer, char numToDiscard)
{
    2138:	e92d4070 	push	{r4, r5, r6, lr}
	int i;
	
	if ( aBuffer->bytes <= numToDiscard )
    213c:	e5d03008 	ldrb	r3, [r0, #8]
	
	return aByte;
}

void RBDiscard(RING_BUFFER *aBuffer, char numToDiscard)
{
    2140:	e20150ff 	and	r5, r1, #255	; 0xff
	int i;
	
	if ( aBuffer->bytes <= numToDiscard )
    2144:	e1530005 	cmp	r3, r5
	
	return aByte;
}

void RBDiscard(RING_BUFFER *aBuffer, char numToDiscard)
{
    2148:	e1a06000 	mov	r6, r0
	int i;
	
	if ( aBuffer->bytes <= numToDiscard )
    214c:	9a000009 	bls	2178 <RBDiscard+0x40>
		aBuffer->bytes = 0;
		aBuffer->EOB = 0;
		aBuffer->SOB = -1;		
	}
	else
		for ( i = 0; i < numToDiscard; i++)
    2150:	e3550000 	cmp	r5, #0
	
	if ( aBuffer->bytes <= numToDiscard )
	{
		aBuffer->bytes = 0;
		aBuffer->EOB = 0;
		aBuffer->SOB = -1;		
    2154:	c3a04000 	movgt	r4, #0
	}
	else
		for ( i = 0; i < numToDiscard; i++)
    2158:	da000004 	ble	2170 <RBDiscard+0x38>
    215c:	e2844001 	add	r4, r4, #1
			RBDequeue(aBuffer);
    2160:	e1a00006 	mov	r0, r6
    2164:	ebffffd5 	bl	20c0 <RBDequeue>
		aBuffer->bytes = 0;
		aBuffer->EOB = 0;
		aBuffer->SOB = -1;		
	}
	else
		for ( i = 0; i < numToDiscard; i++)
    2168:	e1540005 	cmp	r4, r5
    216c:	1afffffa 	bne	215c <RBDiscard+0x24>
			RBDequeue(aBuffer);
}
    2170:	e8bd4070 	pop	{r4, r5, r6, lr}
    2174:	e12fff1e 	bx	lr
{
	int i;
	
	if ( aBuffer->bytes <= numToDiscard )
	{
		aBuffer->bytes = 0;
    2178:	e3a02000 	mov	r2, #0
		aBuffer->EOB = 0;
		aBuffer->SOB = -1;		
    217c:	e3e03000 	mvn	r3, #0
{
	int i;
	
	if ( aBuffer->bytes <= numToDiscard )
	{
		aBuffer->bytes = 0;
    2180:	e5c02008 	strb	r2, [r0, #8]
		aBuffer->EOB = 0;
    2184:	e5802000 	str	r2, [r0]
		aBuffer->SOB = -1;		
    2188:	e5803004 	str	r3, [r0, #4]
    218c:	eafffff7 	b	2170 <RBDiscard+0x38>

00002190 <RBEnqueue>:
		sendText(msg);
	}
}
 
void RBEnqueue(RING_BUFFER *aBuffer, char x)
{
    2190:	e52de004 	push	{lr}		; (str lr, [sp, #-4]!)
    2194:	e1a0c000 	mov	ip, r0
	if ( aBuffer->bytes >= BUFF_LEN )
    2198:	e5dc3008 	ldrb	r3, [ip, #8]
		sendText(msg);
	}
}
 
void RBEnqueue(RING_BUFFER *aBuffer, char x)
{
    219c:	e1a02001 	mov	r2, r1
	if ( aBuffer->bytes >= BUFF_LEN )
    21a0:	e3530095 	cmp	r3, #149	; 0x95
	{
		UART0Debug("1Buffer FULL!\n",13);
    21a4:	e59f0054 	ldr	r0, [pc, #84]	; 2200 <RBEnqueue+0x70>
    21a8:	e3a0100d 	mov	r1, #13
		sendText(msg);
	}
}
 
void RBEnqueue(RING_BUFFER *aBuffer, char x)
{
    21ac:	e20220ff 	and	r2, r2, #255	; 0xff
	if ( aBuffer->bytes >= BUFF_LEN )
    21b0:	8a000010 	bhi	21f8 <RBEnqueue+0x68>
	{
		UART0Debug("1Buffer FULL!\n",13);
		return;
	}
	aBuffer->buffer[ aBuffer->EOB ] = x;
    21b4:	e59c3000 	ldr	r3, [ip]
    21b8:	e083300c 	add	r3, r3, ip
    21bc:	e2833008 	add	r3, r3, #8
    21c0:	e5c32001 	strb	r2, [r3, #1]
	aBuffer->EOB++;
    21c4:	e59c2000 	ldr	r2, [ip]
    21c8:	e2822001 	add	r2, r2, #1
    21cc:	e58c2000 	str	r2, [ip]
	aBuffer->bytes++;
    21d0:	e5dc3008 	ldrb	r3, [ip, #8]
    21d4:	e2833001 	add	r3, r3, #1
    21d8:	e20330ff 	and	r3, r3, #255	; 0xff
    21dc:	e5cc3008 	strb	r3, [ip, #8]
	if (aBuffer->EOB >= BUFF_LEN)
    21e0:	e59c2000 	ldr	r2, [ip]
    21e4:	e3520095 	cmp	r2, #149	; 0x95
		aBuffer->EOB = 0;
    21e8:	c3a03000 	movgt	r3, #0
    21ec:	c58c3000 	strgt	r3, [ip]
}
    21f0:	e49de004 	pop	{lr}		; (ldr lr, [sp], #4)
    21f4:	e12fff1e 	bx	lr
 
void RBEnqueue(RING_BUFFER *aBuffer, char x)
{
	if ( aBuffer->bytes >= BUFF_LEN )
	{
		UART0Debug("1Buffer FULL!\n",13);
    21f8:	eb0003cc 	bl	3130 <UART0Debug>
    21fc:	eafffffb 	b	21f0 <RBEnqueue+0x60>
    2200:	0000d974 	.word	0x0000d974

00002204 <findInBuffer>:

// Searches the buffer, starting at startIndex, for aByte.
//  Returns the index in the buffer (from 0) the byte first occurs at.
//  Returns -1 if there is no occurrence.
int findInBuffer(int startIndex, int distance, char aByte)
{
    2204:	e1a03002 	mov	r3, r2
    2208:	e52de004 	push	{lr}		; (str lr, [sp, #-4]!)
    220c:	e1a02001 	mov	r2, r1
    2210:	e20330ff 	and	r3, r3, #255	; 0xff
	return RBfindInBuffer(&u0r, startIndex, distance, aByte); 
    2214:	e1a01000 	mov	r1, r0
    2218:	e59f0008 	ldr	r0, [pc, #8]	; 2228 <findInBuffer+0x24>
    221c:	ebffff85 	bl	2038 <RBfindInBuffer>
}
    2220:	e49de004 	pop	{lr}		; (ldr lr, [sp], #4)
    2224:	e12fff1e 	bx	lr
    2228:	400019f8 	.word	0x400019f8

0000222c <peekByte>:
}

// peekByte
//  Returns the next byte in the buffer w/o consuming it.
char peekByte()
{
    222c:	e52de004 	push	{lr}		; (str lr, [sp, #-4]!)
	return RBPeek(&u0r);
    2230:	e59f0008 	ldr	r0, [pc, #8]	; 2240 <peekByte+0x14>
    2234:	ebffff71 	bl	2000 <RBPeek>
}
    2238:	e49de004 	pop	{lr}		; (ldr lr, [sp], #4)
    223c:	e12fff1e 	bx	lr
    2240:	400019f8 	.word	0x400019f8

00002244 <skipBytes>:
}

// skipBytes
//	Discard num bytes in the buffer.
int skipBytes(int num)
{
    2244:	e92d4010 	push	{r4, lr}
	RBDiscard(&u0r, num);
    2248:	e59f4018 	ldr	r4, [pc, #24]	; 2268 <skipBytes+0x24>
    224c:	e20010ff 	and	r1, r0, #255	; 0xff
    2250:	e1a00004 	mov	r0, r4
    2254:	ebffffb7 	bl	2138 <RBDiscard>
	return RBCount(&u0r);
    2258:	e1a00004 	mov	r0, r4
    225c:	ebffff95 	bl	20b8 <RBCount>
}
    2260:	e8bd4010 	pop	{r4, lr}
    2264:	e12fff1e 	bx	lr
    2268:	400019f8 	.word	0x400019f8

0000226c <bytesAvailable>:
		RBEnqueue(&u0s,*msg++);
	uart0Prime();
}

char bytesAvailable(void)
{
    226c:	e52de004 	push	{lr}		; (str lr, [sp, #-4]!)
	return RBCount(&u0r); //Groups of 4...
    2270:	e59f000c 	ldr	r0, [pc, #12]	; 2284 <bytesAvailable+0x18>
    2274:	ebffff8f 	bl	20b8 <RBCount>
    2278:	e20000ff 	and	r0, r0, #255	; 0xff
}
    227c:	e49de004 	pop	{lr}		; (ldr lr, [sp], #4)
    2280:	e12fff1e 	bx	lr
    2284:	400019f8 	.word	0x400019f8

00002288 <pushBack>:
		*buffer = getByte();
}

// Pushes a byte back onto the Ring Buffer.
void pushBack(char byte)
{
    2288:	e20010ff 	and	r1, r0, #255	; 0xff
    228c:	e52de004 	push	{lr}		; (str lr, [sp, #-4]!)
	RBPushBack(&u0r, byte);
    2290:	e59f0008 	ldr	r0, [pc, #8]	; 22a0 <pushBack+0x18>
    2294:	ebffff48 	bl	1fbc <RBPushBack>
}
    2298:	e49de004 	pop	{lr}		; (ldr lr, [sp], #4)
    229c:	e12fff1e 	bx	lr
    22a0:	400019f8 	.word	0x400019f8

000022a4 <sendText>:
	for (c = 0; c < num; c++)
		UART0WriteChar(bytes[c]);
}

void sendText(char *msg)
{
    22a4:	e92d4010 	push	{r4, lr}
	while (*msg)
    22a8:	e5d01000 	ldrb	r1, [r0]
    22ac:	e3510000 	cmp	r1, #0
    22b0:	0a000005 	beq	22cc <sendText+0x28>
    22b4:	e1a04000 	mov	r4, r0
		RBEnqueue(&u0s,*msg++);
    22b8:	e59f0018 	ldr	r0, [pc, #24]	; 22d8 <sendText+0x34>
    22bc:	ebffffb3 	bl	2190 <RBEnqueue>
		UART0WriteChar(bytes[c]);
}

void sendText(char *msg)
{
	while (*msg)
    22c0:	e5f41001 	ldrb	r1, [r4, #1]!
    22c4:	e3510000 	cmp	r1, #0
    22c8:	1afffffa 	bne	22b8 <sendText+0x14>
		RBEnqueue(&u0s,*msg++);
	uart0Prime();
    22cc:	eb0003d0 	bl	3214 <uart0Prime>
}
    22d0:	e8bd4010 	pop	{r4, lr}
    22d4:	e12fff1e 	bx	lr
    22d8:	40001a98 	.word	0x40001a98

000022dc <debugMsg>:
	return RBfindInBuffer(&u0r, startIndex, distance, aByte); 
}

void debugMsg(char *func, char *msg)
{
	if (!DEBUG_ENABLED)
    22dc:	e59f3048 	ldr	r3, [pc, #72]	; 232c <debugMsg+0x50>
    22e0:	e5932000 	ldr	r2, [r3]
    22e4:	e3520000 	cmp	r2, #0
{
	return RBfindInBuffer(&u0r, startIndex, distance, aByte); 
}

void debugMsg(char *func, char *msg)
{
    22e8:	e92d4030 	push	{r4, r5, lr}
    22ec:	e1a04000 	mov	r4, r0
    22f0:	e1a05001 	mov	r5, r1
	if (!DEBUG_ENABLED)
		return;
	sendText("DEBUG:");
    22f4:	e59f0034 	ldr	r0, [pc, #52]	; 2330 <debugMsg+0x54>
	return RBfindInBuffer(&u0r, startIndex, distance, aByte); 
}

void debugMsg(char *func, char *msg)
{
	if (!DEBUG_ENABLED)
    22f8:	1a000001 	bne	2304 <debugMsg+0x28>
	sendText("DEBUG:");
	sendText(func);
	sendText(":");
	sendText(msg);
	sendText("\n");
}
    22fc:	e8bd4030 	pop	{r4, r5, lr}
    2300:	e12fff1e 	bx	lr

void debugMsg(char *func, char *msg)
{
	if (!DEBUG_ENABLED)
		return;
	sendText("DEBUG:");
    2304:	ebffffe6 	bl	22a4 <sendText>
	sendText(func);
    2308:	e1a00004 	mov	r0, r4
    230c:	ebffffe4 	bl	22a4 <sendText>
	sendText(":");
    2310:	e59f001c 	ldr	r0, [pc, #28]	; 2334 <debugMsg+0x58>
    2314:	ebffffe2 	bl	22a4 <sendText>
	sendText(msg);
    2318:	e1a00005 	mov	r0, r5
    231c:	ebffffe0 	bl	22a4 <sendText>
	sendText("\n");
    2320:	e59f0010 	ldr	r0, [pc, #16]	; 2338 <debugMsg+0x5c>
}
    2324:	e8bd4030 	pop	{r4, r5, lr}
		return;
	sendText("DEBUG:");
	sendText(func);
	sendText(":");
	sendText(msg);
	sendText("\n");
    2328:	eaffffdd 	b	22a4 <sendText>
    232c:	400009c4 	.word	0x400009c4
    2330:	0000d984 	.word	0x0000d984
    2334:	0000d98c 	.word	0x0000d98c
    2338:	0000d990 	.word	0x0000d990

0000233c <sendNBytes>:
	UART0WriteChar(aByte);
	RBEnqueue(&u0s, aByte);
}

void sendNBytes(char *bytes, int num)
{
    233c:	e92d4070 	push	{r4, r5, r6, lr}
	int c;

	for (c = 0; c < num; c++)
    2340:	e2516000 	subs	r6, r1, #0
	UART0WriteChar(aByte);
	RBEnqueue(&u0s, aByte);
}

void sendNBytes(char *bytes, int num)
{
    2344:	e1a05000 	mov	r5, r0
	int c;

	for (c = 0; c < num; c++)
    2348:	da000005 	ble	2364 <sendNBytes+0x28>
    234c:	e3a04000 	mov	r4, #0
		UART0WriteChar(bytes[c]);
    2350:	e7d40005 	ldrb	r0, [r4, r5]

void sendNBytes(char *bytes, int num)
{
	int c;

	for (c = 0; c < num; c++)
    2354:	e2844001 	add	r4, r4, #1
		UART0WriteChar(bytes[c]);
    2358:	eb000393 	bl	31ac <UART0WriteChar>

void sendNBytes(char *bytes, int num)
{
	int c;

	for (c = 0; c < num; c++)
    235c:	e1560004 	cmp	r6, r4
    2360:	1afffffa 	bne	2350 <sendNBytes+0x14>
		UART0WriteChar(bytes[c]);
}
    2364:	e8bd4070 	pop	{r4, r5, r6, lr}
    2368:	e12fff1e 	bx	lr

0000236c <sendByte>:
{
	showBuffer(&u0r);
}

void sendByte(char aByte)
{
    236c:	e92d4010 	push	{r4, lr}
    2370:	e20040ff 	and	r4, r0, #255	; 0xff
	UART0WriteChar(aByte);
    2374:	e1a00004 	mov	r0, r4
    2378:	eb00038b 	bl	31ac <UART0WriteChar>
	RBEnqueue(&u0s, aByte);
    237c:	e1a01004 	mov	r1, r4
    2380:	e59f0008 	ldr	r0, [pc, #8]	; 2390 <sendByte+0x24>
    2384:	ebffff81 	bl	2190 <RBEnqueue>
}
    2388:	e8bd4010 	pop	{r4, lr}
    238c:	e12fff1e 	bx	lr
    2390:	40001a98 	.word	0x40001a98

00002394 <getByte>:
{
	return RBCount(&u0r); //Groups of 4...
}

char getByte(void)
{
    2394:	e92d4010 	push	{r4, lr}
	char aByte;

	if ( !RBCount(&u0r) )
    2398:	e59f0040 	ldr	r0, [pc, #64]	; 23e0 <getByte+0x4c>
    239c:	ebffff45 	bl	20b8 <RBCount>
    23a0:	e2503000 	subs	r3, r0, #0
    23a4:	e1a04003 	mov	r4, r3
		return 0;

 	aByte = RBDequeue(&u0r);
    23a8:	e59f0030 	ldr	r0, [pc, #48]	; 23e0 <getByte+0x4c>

char getByte(void)
{
	char aByte;

	if ( !RBCount(&u0r) )
    23ac:	1a000002 	bne	23bc <getByte+0x28>

	if (ECHOMODE)
		sendByte(aByte);

	return aByte;
}
    23b0:	e1a00004 	mov	r0, r4
    23b4:	e8bd4010 	pop	{r4, lr}
    23b8:	e12fff1e 	bx	lr
	char aByte;

	if ( !RBCount(&u0r) )
		return 0;

 	aByte = RBDequeue(&u0r);
    23bc:	ebffff3f 	bl	20c0 <RBDequeue>

	if (ECHOMODE)
    23c0:	e59f301c 	ldr	r3, [pc, #28]	; 23e4 <getByte+0x50>
    23c4:	e5932000 	ldr	r2, [r3]
    23c8:	e3520000 	cmp	r2, #0
    23cc:	e1a04000 	mov	r4, r0
    23d0:	0afffff6 	beq	23b0 <getByte+0x1c>
		sendByte(aByte);
    23d4:	e1a04000 	mov	r4, r0
    23d8:	ebffffe3 	bl	236c <sendByte>
    23dc:	eafffff3 	b	23b0 <getByte+0x1c>
    23e0:	400019f8 	.word	0x400019f8
    23e4:	400009c8 	.word	0x400009c8

000023e8 <getBytes>:

	return aByte;
}

void getBytes(char *buffer, int num)
{
    23e8:	e92d4030 	push	{r4, r5, lr}
	for (; num; num--, buffer++)
    23ec:	e2514000 	subs	r4, r1, #0

	return aByte;
}

void getBytes(char *buffer, int num)
{
    23f0:	e1a05000 	mov	r5, r0
	for (; num; num--, buffer++)
    23f4:	0a000003 	beq	2408 <getBytes+0x20>
		*buffer = getByte();
    23f8:	ebffffe5 	bl	2394 <getByte>
	return aByte;
}

void getBytes(char *buffer, int num)
{
	for (; num; num--, buffer++)
    23fc:	e2544001 	subs	r4, r4, #1
		*buffer = getByte();
    2400:	e4c50001 	strb	r0, [r5], #1
	return aByte;
}

void getBytes(char *buffer, int num)
{
	for (; num; num--, buffer++)
    2404:	1afffffb 	bne	23f8 <getBytes+0x10>
		*buffer = getByte();
}
    2408:	e8bd4030 	pop	{r4, r5, lr}
    240c:	e12fff1e 	bx	lr

00002410 <showRBuffer>:

int DEBUG_ENABLED = FALSE; //Debug mode off.
int ECHOMODE = FALSE; // Don't echo.

void showRBuffer(void)
{
    2410:	e52de004 	push	{lr}		; (str lr, [sp, #-4]!)
	showBuffer(&u0r);
    2414:	e59f0008 	ldr	r0, [pc, #8]	; 2424 <showRBuffer+0x14>
    2418:	ebfffee6 	bl	1fb8 <showBuffer>
}
    241c:	e49de004 	pop	{lr}		; (ldr lr, [sp], #4)
    2420:	e12fff1e 	bx	lr
    2424:	400019f8 	.word	0x400019f8

00002428 <timer0ISR>:

extern char updated;
char newvals = 0;

void timer0ISR(void) __irq
{
    2428:	e1a0c00d 	mov	ip, sp
    242c:	e92dd800 	push	{fp, ip, lr, pc}
    2430:	e24cb004 	sub	fp, ip, #4
  T0IR = 0x01;      //Clear the timer 0 interrupt
    2434:	e3a0320e 	mov	r3, #-536870912	; 0xe0000000
    2438:	e2833901 	add	r3, r3, #16384	; 0x4000
    243c:	e3a02001 	mov	r2, #1
    2440:	e5832000 	str	r2, [r3]
  IENABLE;

  // Performance Counter
  trigger_cnt++;
    2444:	e59f30b4 	ldr	r3, [pc, #180]	; 2500 <timer0ISR+0xd8>
    2448:	e5933000 	ldr	r3, [r3]
    244c:	e2832001 	add	r2, r3, #1
    2450:	e59f30a8 	ldr	r3, [pc, #168]	; 2500 <timer0ISR+0xd8>
    2454:	e5832000 	str	r2, [r3]
  if (trigger_cnt == ControllerCyclesPerSecond)
    2458:	e59f30a0 	ldr	r3, [pc, #160]	; 2500 <timer0ISR+0xd8>
    245c:	e5933000 	ldr	r3, [r3]
    2460:	e3530ffa 	cmp	r3, #1000	; 0x3e8
    2464:	1a000012 	bne	24b4 <timer0ISR+0x8c>
  {
  	trigger_cnt = 0;
    2468:	e59f2090 	ldr	r2, [pc, #144]	; 2500 <timer0ISR+0xd8>
    246c:	e3a03000 	mov	r3, #0
    2470:	e5823000 	str	r3, [r2]
  	HL_Status.up_time++;
    2474:	e59f3088 	ldr	r3, [pc, #136]	; 2504 <timer0ISR+0xdc>
    2478:	e1d330b4 	ldrh	r3, [r3, #4]
    247c:	e2833001 	add	r3, r3, #1
    2480:	e1a03803 	lsl	r3, r3, #16
    2484:	e1a02823 	lsr	r2, r3, #16
    2488:	e59f3074 	ldr	r3, [pc, #116]	; 2504 <timer0ISR+0xdc>
    248c:	e1c320b4 	strh	r2, [r3, #4]
  	HL_Status.cpu_load = mainloop_cnt;
    2490:	e59f3070 	ldr	r3, [pc, #112]	; 2508 <timer0ISR+0xe0>
    2494:	e5933000 	ldr	r3, [r3]
    2498:	e1a03803 	lsl	r3, r3, #16
    249c:	e1a02823 	lsr	r2, r3, #16
    24a0:	e59f305c 	ldr	r3, [pc, #92]	; 2504 <timer0ISR+0xdc>
    24a4:	e1c321b2 	strh	r2, [r3, #18]

  	mainloop_cnt = 0;
    24a8:	e59f2058 	ldr	r2, [pc, #88]	; 2508 <timer0ISR+0xe0>
    24ac:	e3a03000 	mov	r3, #0
    24b0:	e5823000 	str	r3, [r2]
  }

  if ( mainloop_trigger < 10 ) 
    24b4:	e59f3050 	ldr	r3, [pc, #80]	; 250c <timer0ISR+0xe4>
    24b8:	e5d33000 	ldrb	r3, [r3]
    24bc:	e20330ff 	and	r3, r3, #255	; 0xff
    24c0:	e3530009 	cmp	r3, #9
    24c4:	8a000006 	bhi	24e4 <timer0ISR+0xbc>
    mainloop_trigger++;
    24c8:	e59f303c 	ldr	r3, [pc, #60]	; 250c <timer0ISR+0xe4>
    24cc:	e5d33000 	ldrb	r3, [r3]
    24d0:	e20330ff 	and	r3, r3, #255	; 0xff
    24d4:	e2833001 	add	r3, r3, #1
    24d8:	e20330ff 	and	r3, r3, #255	; 0xff
    24dc:	e59f2028 	ldr	r2, [pc, #40]	; 250c <timer0ISR+0xe4>
    24e0:	e5c23000 	strb	r3, [r2]

  IDISABLE;
  VICVectAddr = 0;		// Acknowledge Interrupt
    24e4:	e3a03000 	mov	r3, #0
    24e8:	e2433efd 	sub	r3, r3, #4048	; 0xfd0
    24ec:	e3a02000 	mov	r2, #0
    24f0:	e5832000 	str	r2, [r3]
}
    24f4:	e24bd00c 	sub	sp, fp, #12
    24f8:	e89d6800 	ldm	sp, {fp, sp, lr}
    24fc:	e12fff1e 	bx	lr
    2500:	400009dc 	.word	0x400009dc
    2504:	40001984 	.word	0x40001984
    2508:	400009d4 	.word	0x400009d4
    250c:	400009d8 	.word	0x400009d8

00002510 <main>:

/**********************************************************
                       MAIN
**********************************************************/
int	main (void) {
    2510:	e1a0c00d 	mov	ip, sp
    2514:	e92dd800 	push	{fp, ip, lr, pc}
    2518:	e24cb004 	sub	fp, ip, #4
    251c:	e24dd00c 	sub	sp, sp, #12

  static int vbat1; //battery_voltage (lowpass-filtered)
  unsigned int TimerT1, TimerT2;

  init(); //system.c
    2520:	eb000117 	bl	2984 <init>
  buzzer(OFF);
    2524:	e3a00000 	mov	r0, #0
    2528:	ebfffcb4 	bl	1800 <buzzer>
  LL_write_init();
    252c:	eb000cfb 	bl	5920 <LL_write_init>

  //initialize AscTec Firefly LED fin on I2C1 (not necessary on AscTec Hummingbird or Pelican)
  I2C1Init();
    2530:	eb000a8e 	bl	4f70 <I2C1Init>
  I2C1_setRGBLed(255,0,0);
    2534:	e3a000ff 	mov	r0, #255	; 0xff
    2538:	e3a01000 	mov	r1, #0
    253c:	e3a02000 	mov	r2, #0
    2540:	eb000a49 	bl	4e6c <I2C1_setRGBLed>

  ADC0triggerSampling( 1<<VOLTAGE_1); //activate ADC sampling
    2544:	e3a00004 	mov	r0, #4
    2548:	eb000c36 	bl	5628 <ADC0triggerSampling>

  generateBuildInfo();
    254c:	ebfffe24 	bl	1de4 <generateBuildInfo>

  HL_Status.up_time = 0;
    2550:	e59f32b4 	ldr	r3, [pc, #692]	; 280c <main+0x2fc>
    2554:	e3a02000 	mov	r2, #0
    2558:	e1c320b4 	strh	r2, [r3, #4]
    255c:	eaffffff 	b	2560 <main+0x50>
  //update parameters stored by ACI:
  //...

  while(1)
  {
	if (mainloop_trigger)
    2560:	e59f32a8 	ldr	r3, [pc, #680]	; 2810 <main+0x300>
    2564:	e5d33000 	ldrb	r3, [r3]
    2568:	e20330ff 	and	r3, r3, #255	; 0xff
    256c:	e3530000 	cmp	r3, #0
    2570:	0afffffa 	beq	2560 <main+0x50>
	{
		TimerT1 =  T0TC;
    2574:	e3a03901 	mov	r3, #16384	; 0x4000
    2578:	e283328e 	add	r3, r3, #-536870904	; 0xe0000008
    257c:	e5933000 	ldr	r3, [r3]
    2580:	e50b3014 	str	r3, [fp, #-20]

		//battery monitoring
		ADC0getSamplingResults(0xFF,adcChannelValues);
    2584:	e3a000ff 	mov	r0, #255	; 0xff
    2588:	e59f1284 	ldr	r1, [pc, #644]	; 2814 <main+0x304>
    258c:	eb000c36 	bl	566c <ADC0getSamplingResults>
        vbat1=(vbat1*14+(adcChannelValues[VOLTAGE_1]*9872/579))/15;	//voltage in mV
    2590:	e59f3280 	ldr	r3, [pc, #640]	; 2818 <main+0x308>
    2594:	e5932000 	ldr	r2, [r3]
    2598:	e1a03002 	mov	r3, r2
    259c:	e1a03183 	lsl	r3, r3, #3
    25a0:	e0623003 	rsb	r3, r2, r3
    25a4:	e1a03083 	lsl	r3, r3, #1
    25a8:	e1a00003 	mov	r0, r3
    25ac:	e59f3260 	ldr	r3, [pc, #608]	; 2814 <main+0x304>
    25b0:	e5931008 	ldr	r1, [r3, #8]
    25b4:	e1a02001 	mov	r2, r1
    25b8:	e1a02102 	lsl	r2, r2, #2
    25bc:	e0822001 	add	r2, r2, r1
    25c0:	e1a02082 	lsl	r2, r2, #1
    25c4:	e0822001 	add	r2, r2, r1
    25c8:	e1a03182 	lsl	r3, r2, #3
    25cc:	e0623003 	rsb	r3, r2, r3
    25d0:	e1a03183 	lsl	r3, r3, #3
    25d4:	e0833001 	add	r3, r3, r1
    25d8:	e1a03203 	lsl	r3, r3, #4
    25dc:	e1a02003 	mov	r2, r3
    25e0:	e3a032be 	mov	r3, #-536870901	; 0xe000000b
    25e4:	e2833626 	add	r3, r3, #39845888	; 0x2600000
    25e8:	e2833c63 	add	r3, r3, #25344	; 0x6300
    25ec:	e0831392 	umull	r1, r3, r2, r3
    25f0:	e1a034a3 	lsr	r3, r3, #9
    25f4:	e0802003 	add	r2, r0, r3
    25f8:	e59f321c 	ldr	r3, [pc, #540]	; 281c <main+0x30c>
    25fc:	e0831392 	umull	r1, r3, r2, r3
    2600:	e1a031a3 	lsr	r3, r3, #3
    2604:	e1a02003 	mov	r2, r3
    2608:	e59f3208 	ldr	r3, [pc, #520]	; 2818 <main+0x308>
    260c:	e5832000 	str	r2, [r3]
	HL_Status.battery_voltage_1 = vbat1;
    2610:	e59f3200 	ldr	r3, [pc, #512]	; 2818 <main+0x308>
    2614:	e5933000 	ldr	r3, [r3]
    2618:	e1a03803 	lsl	r3, r3, #16
    261c:	e1a02823 	lsr	r2, r3, #16
    2620:	e59f31e4 	ldr	r3, [pc, #484]	; 280c <main+0x2fc>
    2624:	e1c320b0 	strh	r2, [r3]
		
        mainloop_cnt++;
    2628:	e59f31f0 	ldr	r3, [pc, #496]	; 2820 <main+0x310>
    262c:	e5933000 	ldr	r3, [r3]
    2630:	e2832001 	add	r2, r3, #1
    2634:	e59f31e4 	ldr	r3, [pc, #484]	; 2820 <main+0x310>
    2638:	e5832000 	str	r2, [r3]
	if (!(mainloop_cnt % 10)) 
    263c:	e59f31dc 	ldr	r3, [pc, #476]	; 2820 <main+0x310>
    2640:	e5932000 	ldr	r2, [r3]
    2644:	e59f31d8 	ldr	r3, [pc, #472]	; 2824 <main+0x314>
    2648:	e0831392 	umull	r1, r3, r2, r3
    264c:	e1a031a3 	lsr	r3, r3, #3
    2650:	e50b3018 	str	r3, [fp, #-24]
    2654:	e51b3018 	ldr	r3, [fp, #-24]
    2658:	e1a03103 	lsl	r3, r3, #2
    265c:	e51b1018 	ldr	r1, [fp, #-24]
    2660:	e0833001 	add	r3, r3, r1
    2664:	e1a03083 	lsl	r3, r3, #1
    2668:	e0632002 	rsb	r2, r3, r2
    266c:	e50b2018 	str	r2, [fp, #-24]
    2670:	e51b3018 	ldr	r3, [fp, #-24]
    2674:	e3530000 	cmp	r3, #0
    2678:	1a000005 	bne	2694 <main+0x184>
        	buzzer_handler(HL_Status.battery_voltage_1);
    267c:	e59f3188 	ldr	r3, [pc, #392]	; 280c <main+0x2fc>
    2680:	e1d330b0 	ldrh	r3, [r3]
    2684:	e1a03803 	lsl	r3, r3, #16
    2688:	e1a03843 	asr	r3, r3, #16
    268c:	e1a00003 	mov	r0, r3
    2690:	ebfffc64 	bl	1828 <buzzer_handler>

        if (mainloop_trigger) 
    2694:	e59f3174 	ldr	r3, [pc, #372]	; 2810 <main+0x300>
    2698:	e5d33000 	ldrb	r3, [r3]
    269c:	e20330ff 	and	r3, r3, #255	; 0xff
    26a0:	e3530000 	cmp	r3, #0
    26a4:	0a000006 	beq	26c4 <main+0x1b4>
		mainloop_trigger--;
    26a8:	e59f3160 	ldr	r3, [pc, #352]	; 2810 <main+0x300>
    26ac:	e5d33000 	ldrb	r3, [r3]
    26b0:	e20330ff 	and	r3, r3, #255	; 0xff
    26b4:	e2433001 	sub	r3, r3, #1
    26b8:	e20330ff 	and	r3, r3, #255	; 0xff
    26bc:	e59f214c 	ldr	r2, [pc, #332]	; 2810 <main+0x300>
    26c0:	e5c23000 	strb	r3, [r2]
		  
        LED(1,ON);
    26c4:	e3a00001 	mov	r0, #1
    26c8:	e3a01001 	mov	r1, #1
    26cc:	eb000056 	bl	282c <LED>
        SDK_mainloop(); //1000 times per second.
    26d0:	ebfffc14 	bl	1728 <SDK_mainloop>
        LED(1,OFF);
    26d4:	e3a00001 	mov	r0, #1
    26d8:	e3a01000 	mov	r1, #0
    26dc:	eb000052 	bl	282c <LED>

        // CPU Usage calculation
        TimerT2 = T0TC;
    26e0:	e3a03901 	mov	r3, #16384	; 0x4000
    26e4:	e283328e 	add	r3, r3, #-536870904	; 0xe0000008
    26e8:	e5933000 	ldr	r3, [r3]
    26ec:	e50b3010 	str	r3, [fp, #-16]
        if ( mainloop_trigger)
    26f0:	e59f3118 	ldr	r3, [pc, #280]	; 2810 <main+0x300>
    26f4:	e5d33000 	ldrb	r3, [r3]
    26f8:	e20330ff 	and	r3, r3, #255	; 0xff
    26fc:	e3530000 	cmp	r3, #0
    2700:	0a00000a 	beq	2730 <main+0x220>
        {
        	HL_Status.cpu_load = 1000;
    2704:	e59f2100 	ldr	r2, [pc, #256]	; 280c <main+0x2fc>
    2708:	e3a03ffa 	mov	r3, #1000	; 0x3e8
    270c:	e1c231b2 	strh	r3, [r2, #18]
        	mainloop_overflows++;
    2710:	e59f3110 	ldr	r3, [pc, #272]	; 2828 <main+0x318>
    2714:	e1d330b0 	ldrh	r3, [r3]
    2718:	e2833001 	add	r3, r3, #1
    271c:	e1a03803 	lsl	r3, r3, #16
    2720:	e1a02823 	lsr	r2, r3, #16
    2724:	e59f30fc 	ldr	r3, [pc, #252]	; 2828 <main+0x318>
    2728:	e1c320b0 	strh	r2, [r3]
    272c:	eaffff8b 	b	2560 <main+0x50>
        }
        else
		if (TimerT2 < TimerT1)
    2730:	e51b2010 	ldr	r2, [fp, #-16]
    2734:	e51b3014 	ldr	r3, [fp, #-20]
    2738:	e1520003 	cmp	r2, r3
    273c:	2a00001b 	bcs	27b0 <main+0x2a0>
        		HL_Status.cpu_load = (T0MR0 - TimerT1 + TimerT2)*1000/T0MR0; // load = "timer cycles" / "timer cycles per controller cycle" * 1000
    2740:	e3a0320e 	mov	r3, #-536870912	; 0xe0000000
    2744:	e2833901 	add	r3, r3, #16384	; 0x4000
    2748:	e2833018 	add	r3, r3, #24
    274c:	e5932000 	ldr	r2, [r3]
    2750:	e51b3014 	ldr	r3, [fp, #-20]
    2754:	e0632002 	rsb	r2, r3, r2
    2758:	e51b3010 	ldr	r3, [fp, #-16]
    275c:	e0822003 	add	r2, r2, r3
    2760:	e1a03002 	mov	r3, r2
    2764:	e1a03283 	lsl	r3, r3, #5
    2768:	e0623003 	rsb	r3, r2, r3
    276c:	e1a03103 	lsl	r3, r3, #2
    2770:	e0833002 	add	r3, r3, r2
    2774:	e1a03183 	lsl	r3, r3, #3
    2778:	e1a02003 	mov	r2, r3
    277c:	e3a0320e 	mov	r3, #-536870912	; 0xe0000000
    2780:	e2833901 	add	r3, r3, #16384	; 0x4000
    2784:	e2833018 	add	r3, r3, #24
    2788:	e5933000 	ldr	r3, [r3]
    278c:	e1a00002 	mov	r0, r2
    2790:	e1a01003 	mov	r1, r3
    2794:	eb002c42 	bl	d8a4 <____udivsi3_from_arm>
    2798:	e1a03000 	mov	r3, r0
    279c:	e1a03803 	lsl	r3, r3, #16
    27a0:	e1a02823 	lsr	r2, r3, #16
    27a4:	e59f3060 	ldr	r3, [pc, #96]	; 280c <main+0x2fc>
    27a8:	e1c321b2 	strh	r2, [r3, #18]
    27ac:	eaffff6b 	b	2560 <main+0x50>
        	else
        		HL_Status.cpu_load = (TimerT2 - TimerT1)*1000/T0MR0; // load = "timer cycles" / "timer cycles per controller cycle" * 1000
    27b0:	e51b2010 	ldr	r2, [fp, #-16]
    27b4:	e51b3014 	ldr	r3, [fp, #-20]
    27b8:	e0632002 	rsb	r2, r3, r2
    27bc:	e1a03002 	mov	r3, r2
    27c0:	e1a03283 	lsl	r3, r3, #5
    27c4:	e0623003 	rsb	r3, r2, r3
    27c8:	e1a03103 	lsl	r3, r3, #2
    27cc:	e0833002 	add	r3, r3, r2
    27d0:	e1a03183 	lsl	r3, r3, #3
    27d4:	e1a02003 	mov	r2, r3
    27d8:	e3a0320e 	mov	r3, #-536870912	; 0xe0000000
    27dc:	e2833901 	add	r3, r3, #16384	; 0x4000
    27e0:	e2833018 	add	r3, r3, #24
    27e4:	e5933000 	ldr	r3, [r3]
    27e8:	e1a00002 	mov	r0, r2
    27ec:	e1a01003 	mov	r1, r3
    27f0:	eb002c2b 	bl	d8a4 <____udivsi3_from_arm>
    27f4:	e1a03000 	mov	r3, r0
    27f8:	e1a03803 	lsl	r3, r3, #16
    27fc:	e1a02823 	lsr	r2, r3, #16
    2800:	e59f3004 	ldr	r3, [pc, #4]	; 280c <main+0x2fc>
    2804:	e1c321b2 	strh	r2, [r3, #18]
      }
  }
    2808:	eaffff54 	b	2560 <main+0x50>
    280c:	40001984 	.word	0x40001984
    2810:	400009d8 	.word	0x400009d8
    2814:	40001c3c 	.word	0x40001c3c
    2818:	400009e8 	.word	0x400009e8
    281c:	88888889 	.word	0x88888889
    2820:	400009d4 	.word	0x400009d4
    2824:	cccccccd 	.word	0xcccccccd
    2828:	400009e2 	.word	0x400009e2

0000282c <LED>:
#include "hardware.h"
#include "irq.h"


void LED(unsigned char nr, unsigned char onoff) //set or reset LED 0..3
{
    282c:	e1a0c00d 	mov	ip, sp
    2830:	e92dd800 	push	{fp, ip, lr, pc}
    2834:	e24cb004 	sub	fp, ip, #4
    2838:	e24dd008 	sub	sp, sp, #8
    283c:	e1a03000 	mov	r3, r0
    2840:	e1a02001 	mov	r2, r1
    2844:	e54b3010 	strb	r3, [fp, #-16]
    2848:	e1a03002 	mov	r3, r2
    284c:	e54b3014 	strb	r3, [fp, #-20]
  if (nr>=2)
    2850:	e55b3010 	ldrb	r3, [fp, #-16]
    2854:	e3530001 	cmp	r3, #1
    2858:	8a000013 	bhi	28ac <LED+0x80>
  	return;
  if(onoff == OFF)
    285c:	e55b3014 	ldrb	r3, [fp, #-20]
    2860:	e3530000 	cmp	r3, #0
    2864:	1a000008 	bne	288c <LED+0x60>
  {
    IOSET1 = (1<<(24+nr));
    2868:	e3a0220e 	mov	r2, #-536870912	; 0xe0000000
    286c:	e282290a 	add	r2, r2, #163840	; 0x28000
    2870:	e2822014 	add	r2, r2, #20
    2874:	e55b3010 	ldrb	r3, [fp, #-16]
    2878:	e2831018 	add	r1, r3, #24
    287c:	e3a03001 	mov	r3, #1
    2880:	e1a03113 	lsl	r3, r3, r1
    2884:	e5823000 	str	r3, [r2]
    2888:	ea000007 	b	28ac <LED+0x80>
  }
  else
  {
    IOCLR1 = (1<<(24+nr));
    288c:	e3a0220e 	mov	r2, #-536870912	; 0xe0000000
    2890:	e282290a 	add	r2, r2, #163840	; 0x28000
    2894:	e282201c 	add	r2, r2, #28
    2898:	e55b3010 	ldrb	r3, [fp, #-16]
    289c:	e2831018 	add	r1, r3, #24
    28a0:	e3a03001 	mov	r3, #1
    28a4:	e1a03113 	lsl	r3, r3, r1
    28a8:	e5823000 	str	r3, [r2]
  }
}
    28ac:	e24bd00c 	sub	sp, fp, #12
    28b0:	e89d6800 	ldm	sp, {fp, sp, lr}
    28b4:	e12fff1e 	bx	lr

000028b8 <GPIO_P1_B16>:

void GPIO_P1_B16(unsigned char onoff)
{
    28b8:	e1a0c00d 	mov	ip, sp
    28bc:	e92dd800 	push	{fp, ip, lr, pc}
    28c0:	e24cb004 	sub	fp, ip, #4
    28c4:	e24dd004 	sub	sp, sp, #4
    28c8:	e1a03000 	mov	r3, r0
    28cc:	e54b3010 	strb	r3, [fp, #-16]
	if (onoff == OFF)	
    28d0:	e55b3010 	ldrb	r3, [fp, #-16]
    28d4:	e3530000 	cmp	r3, #0
    28d8:	1a000005 	bne	28f4 <GPIO_P1_B16+0x3c>
		IOCLR1 = (1 << 16);
    28dc:	e3a0320e 	mov	r3, #-536870912	; 0xe0000000
    28e0:	e283390a 	add	r3, r3, #163840	; 0x28000
    28e4:	e283301c 	add	r3, r3, #28
    28e8:	e3a02801 	mov	r2, #65536	; 0x10000
    28ec:	e5832000 	str	r2, [r3]
    28f0:	ea000004 	b	2908 <GPIO_P1_B16+0x50>
	else
		IOSET1 = (1 << 16);
    28f4:	e3a0320e 	mov	r3, #-536870912	; 0xe0000000
    28f8:	e283390a 	add	r3, r3, #163840	; 0x28000
    28fc:	e2833014 	add	r3, r3, #20
    2900:	e3a02801 	mov	r2, #65536	; 0x10000
    2904:	e5832000 	str	r2, [r3]
}
    2908:	e24bd00c 	sub	sp, fp, #12
    290c:	e89d6800 	ldm	sp, {fp, sp, lr}
    2910:	e12fff1e 	bx	lr

00002914 <GPIO_P1_B16_TOGGLE>:

int GPIO_STATE = 0;

void GPIO_P1_B16_TOGGLE()
{
    2914:	e1a0c00d 	mov	ip, sp
    2918:	e92dd800 	push	{fp, ip, lr, pc}
    291c:	e24cb004 	sub	fp, ip, #4
	if ( GPIO_STATE )
    2920:	e59f3058 	ldr	r3, [pc, #88]	; 2980 <GPIO_P1_B16_TOGGLE+0x6c>
    2924:	e5933000 	ldr	r3, [r3]
    2928:	e3530000 	cmp	r3, #0
    292c:	0a000008 	beq	2954 <GPIO_P1_B16_TOGGLE+0x40>
	{
		GPIO_STATE = 0;
    2930:	e59f2048 	ldr	r2, [pc, #72]	; 2980 <GPIO_P1_B16_TOGGLE+0x6c>
    2934:	e3a03000 	mov	r3, #0
    2938:	e5823000 	str	r3, [r2]
		IOCLR1 = (1 << 16);
    293c:	e3a0320e 	mov	r3, #-536870912	; 0xe0000000
    2940:	e283390a 	add	r3, r3, #163840	; 0x28000
    2944:	e283301c 	add	r3, r3, #28
    2948:	e3a02801 	mov	r2, #65536	; 0x10000
    294c:	e5832000 	str	r2, [r3]
    2950:	ea000007 	b	2974 <GPIO_P1_B16_TOGGLE+0x60>
	}
	else
	{
		GPIO_STATE = 1;
    2954:	e59f2024 	ldr	r2, [pc, #36]	; 2980 <GPIO_P1_B16_TOGGLE+0x6c>
    2958:	e3a03001 	mov	r3, #1
    295c:	e5823000 	str	r3, [r2]
		IOSET1 = (1 << 16);
    2960:	e3a0320e 	mov	r3, #-536870912	; 0xe0000000
    2964:	e283390a 	add	r3, r3, #163840	; 0x28000
    2968:	e2833014 	add	r3, r3, #20
    296c:	e3a02801 	mov	r2, #65536	; 0x10000
    2970:	e5832000 	str	r2, [r3]
	}
}
    2974:	e24bd00c 	sub	sp, fp, #12
    2978:	e89d6800 	ldm	sp, {fp, sp, lr}
    297c:	e12fff1e 	bx	lr
    2980:	400009ec 	.word	0x400009ec

00002984 <init>:
#include "ssp.h"
#include "adc.h"
#include "options.h" //#defines for irq optoins

void init(void)
{
    2984:	e1a0c00d 	mov	ip, sp
    2988:	e92dd800 	push	{fp, ip, lr, pc}
    298c:	e24cb004 	sub	fp, ip, #4
  MAMCR = 0x02;  //Memory Acceleration enabled
    2990:	e3a0320e 	mov	r3, #-536870912	; 0xe0000000
    2994:	e283397f 	add	r3, r3, #2080768	; 0x1fc000
    2998:	e3a02002 	mov	r2, #2
    299c:	e5832000 	str	r2, [r3]
  MAMTIM = 0x04;
    29a0:	e3a0324e 	mov	r3, #-536870908	; 0xe0000004
    29a4:	e283397f 	add	r3, r3, #2080768	; 0x1fc000
    29a8:	e3a02004 	mov	r2, #4
    29ac:	e5832000 	str	r2, [r3]
  VPBDIV = 0x01;  //0x01: peripheral frequency == cpu frequency, 0x00: per. freq. = crystal freq.
    29b0:	e3a0320e 	mov	r3, #-536870912	; 0xe0000000
    29b4:	e283397f 	add	r3, r3, #2080768	; 0x1fc000
    29b8:	e2833c01 	add	r3, r3, #256	; 0x100
    29bc:	e3a02001 	mov	r2, #1
    29c0:	e5832000 	str	r2, [r3]
  pll_init();
    29c4:	eb0000f1 	bl	2d90 <pll_init>
  pll_feed();
    29c8:	eb000100 	bl	2dd0 <pll_feed>
  init_ports();
    29cc:	eb000039 	bl	2ab8 <init_ports>
  UART0Initialize(57600);	//debug / command
    29d0:	e3a00ce1 	mov	r0, #57600	; 0xe100
    29d4:	eb000199 	bl	3040 <UART0Initialize>
  UART1Initialize(57600);	//57600 Servo / GPS, 38400 "indoor GPS"
    29d8:	e3a00ce1 	mov	r0, #57600	; 0xe100
    29dc:	eb000235 	bl	32b8 <UART1Initialize>
  init_spi();
    29e0:	eb0000b5 	bl	2cbc <init_spi>
  init_spi1();
    29e4:	eb0000c2 	bl	2cf4 <init_spi1>
  init_timer0();
    29e8:	eb00005c 	bl	2b60 <init_timer0>
//  I2CInit(I2CMASTER);
  PWM_Init();
    29ec:	eb000085 	bl	2c08 <PWM_Init>
  ADCInit(ADC_CLK);
    29f0:	e3a0093d 	mov	r0, #999424	; 0xf4000
    29f4:	e2800d09 	add	r0, r0, #576	; 0x240
    29f8:	eb000a57 	bl	535c <ADCInit>
  init_interrupts();
    29fc:	eb000002 	bl	2a0c <init_interrupts>
 }
    2a00:	e24bd00c 	sub	sp, fp, #12
    2a04:	e89d6800 	ldm	sp, {fp, sp, lr}
    2a08:	e12fff1e 	bx	lr

00002a0c <init_interrupts>:

void init_interrupts(void)
{
    2a0c:	e1a0c00d 	mov	ip, sp
    2a10:	e92dd800 	push	{fp, ip, lr, pc}
    2a14:	e24cb004 	sub	fp, ip, #4
  init_VIC();
    2a18:	eb0009a3 	bl	50ac <init_VIC>

  //Timer0 interrupt
  install_irq( TIMER0_INT, (void *) timer0ISR );
    2a1c:	e3a00004 	mov	r0, #4
    2a20:	e59f1080 	ldr	r1, [pc, #128]	; 2aa8 <init_interrupts+0x9c>
    2a24:	eb0009d1 	bl	5170 <install_irq>

  //UART1 interrupt
  #ifdef UART1_IRQ
  install_irq( UART1_INT, (void *) uart1ISR );
    2a28:	e3a00007 	mov	r0, #7
    2a2c:	e59f1078 	ldr	r1, [pc, #120]	; 2aac <init_interrupts+0xa0>
    2a30:	eb0009ce 	bl	5170 <install_irq>
  U1IER = 3; //=3; enable THRE and RX interrupt
    2a34:	e3a0324e 	mov	r3, #-536870908	; 0xe0000004
    2a38:	e2833801 	add	r3, r3, #65536	; 0x10000
    2a3c:	e3a02003 	mov	r2, #3
    2a40:	e5832000 	str	r2, [r3]
  #endif

  //UART0 interrupt
  #ifdef UART0_IRQ
  install_irq( UART0_INT, (void *) uart0ISR );
    2a44:	e3a00006 	mov	r0, #6
    2a48:	e59f1060 	ldr	r1, [pc, #96]	; 2ab0 <init_interrupts+0xa4>
    2a4c:	eb0009c7 	bl	5170 <install_irq>
  U0IER = 3; //=3; enable THRE and RX interrupt
    2a50:	e3a03903 	mov	r3, #49152	; 0xc000
    2a54:	e283324e 	add	r3, r3, #-536870908	; 0xe0000004
    2a58:	e3a02003 	mov	r2, #3
    2a5c:	e5832000 	str	r2, [r3]
  //I2C0 interrupt
//  install_irq( I2C0_INT, (void *) I2C0MasterHandler );
//  I20CONSET = I2CONSET_I2EN;

  //SSP interrupt
  install_irq( SPI1_INT, (void *) SSPHandler );
    2a60:	e3a0000b 	mov	r0, #11
    2a64:	e59f1048 	ldr	r1, [pc, #72]	; 2ab4 <init_interrupts+0xa8>
    2a68:	eb0009c0 	bl	5170 <install_irq>
  /* Set SSPINMS registers to enable interrupts */
  /* enable all interrupts, Rx overrun, Rx timeout, RX FIFO half full int,
  TX FIFO half empty int */
  SSPIMSC = SSPIMSC_TXIM | SSPIMSC_RXIM | SSPIMSC_RORIM;// | SSPIMSC_RTIM;
    2a6c:	e3a0320e 	mov	r3, #-536870912	; 0xe0000000
    2a70:	e283391a 	add	r3, r3, #425984	; 0x68000
    2a74:	e2833014 	add	r3, r3, #20
    2a78:	e3a0200d 	mov	r2, #13
    2a7c:	e5832000 	str	r2, [r3]
  /* SSP Enabled */
  SSPCR1 |= SSPCR1_SSE;
    2a80:	e3a0224e 	mov	r2, #-536870908	; 0xe0000004
    2a84:	e282291a 	add	r2, r2, #425984	; 0x68000
    2a88:	e3a0324e 	mov	r3, #-536870908	; 0xe0000004
    2a8c:	e283391a 	add	r3, r3, #425984	; 0x68000
    2a90:	e5933000 	ldr	r3, [r3]
    2a94:	e3833002 	orr	r3, r3, #2
    2a98:	e5823000 	str	r3, [r2]
}
    2a9c:	e24bd00c 	sub	sp, fp, #12
    2aa0:	e89d6800 	ldm	sp, {fp, sp, lr}
    2aa4:	e12fff1e 	bx	lr
    2aa8:	00002428 	.word	0x00002428
    2aac:	0000327c 	.word	0x0000327c
    2ab0:	00002f10 	.word	0x00002f10
    2ab4:	00005748 	.word	0x00005748

00002ab8 <init_ports>:


void init_ports(void)
{
    2ab8:	e1a0c00d 	mov	ip, sp
    2abc:	e92dd800 	push	{fp, ip, lr, pc}
    2ac0:	e24cb004 	sub	fp, ip, #4
 * Byte3_sel = 0b00110000 = 0x30
 * Byte1_io_dir = 0x00
 * or SD_Logging => Byte1_io_dir=0x40
 */

 	PINSEL0=0x30C51555;
    2ac4:	e3a0320e 	mov	r3, #-536870912	; 0xe0000000
    2ac8:	e283390b 	add	r3, r3, #180224	; 0x2c000
    2acc:	e59f2084 	ldr	r2, [pc, #132]	; 2b58 <init_ports+0xa0>
    2ad0:	e5832000 	str	r2, [r3]
  * P0.30: CURRENT_1: -> 01
  * P0.31: IO_in -> 00
  * Byte3: 0b00010101 = 0x15
  * Byte3_io_dir=0x00
  */
 PINSEL1 = 0x150406A8;
    2ad4:	e3a0324e 	mov	r3, #-536870908	; 0xe0000004
    2ad8:	e283390b 	add	r3, r3, #180224	; 0x2c000
    2adc:	e59f2078 	ldr	r2, [pc, #120]	; 2b5c <init_ports+0xa4>
    2ae0:	e5832000 	str	r2, [r3]

 PINSEL2 = 0x00000004;
    2ae4:	e3a0320e 	mov	r3, #-536870912	; 0xe0000000
    2ae8:	e283390b 	add	r3, r3, #180224	; 0x2c000
    2aec:	e2833014 	add	r3, r3, #20
    2af0:	e3a02004 	mov	r2, #4
    2af4:	e5832000 	str	r2, [r3]

 IODIR0 = 0x0030B480;
    2af8:	e3a0228e 	mov	r2, #-536870904	; 0xe0000008
    2afc:	e282290a 	add	r2, r2, #163840	; 0x28000
    2b00:	e3a039c2 	mov	r3, #3178496	; 0x308000
    2b04:	e2833dd2 	add	r3, r3, #13440	; 0x3480
    2b08:	e5823000 	str	r3, [r2]

 IOSET0 = (1<<EXT_NCS)|(1<<11); //all nCS high
    2b0c:	e3a0324e 	mov	r3, #-536870908	; 0xe0000004
    2b10:	e283390a 	add	r3, r3, #163840	; 0x28000
    2b14:	e3a02d22 	mov	r2, #2176	; 0x880
    2b18:	e5832000 	str	r2, [r3]
 * P1.24: LED1/IO_out
 * P1.25: LED2/IO_out
 *
 */

 IODIR1 = 0x03030000;
    2b1c:	e3a0220e 	mov	r2, #-536870912	; 0xe0000000
    2b20:	e282290a 	add	r2, r2, #163840	; 0x28000
    2b24:	e2822018 	add	r2, r2, #24
    2b28:	e3a03403 	mov	r3, #50331648	; 0x3000000
    2b2c:	e2833803 	add	r3, r3, #196608	; 0x30000
    2b30:	e5823000 	str	r3, [r2]
 IOSET1 = ((1<<24)|(1<<16)); //turn off LED1, turn beeper off
    2b34:	e3a0220e 	mov	r2, #-536870912	; 0xe0000000
    2b38:	e282290a 	add	r2, r2, #163840	; 0x28000
    2b3c:	e2822014 	add	r2, r2, #20
    2b40:	e3a03401 	mov	r3, #16777216	; 0x1000000
    2b44:	e2833801 	add	r3, r3, #65536	; 0x10000
    2b48:	e5823000 	str	r3, [r2]

}
    2b4c:	e24bd00c 	sub	sp, fp, #12
    2b50:	e89d6800 	ldm	sp, {fp, sp, lr}
    2b54:	e12fff1e 	bx	lr
    2b58:	30c51555 	.word	0x30c51555
    2b5c:	150406a8 	.word	0x150406a8

00002b60 <init_timer0>:

void init_timer0(void)
{
    2b60:	e1a0c00d 	mov	ip, sp
    2b64:	e92dd810 	push	{r4, fp, ip, lr, pc}
    2b68:	e24cb004 	sub	fp, ip, #4
  T0TC=0;
    2b6c:	e3a03901 	mov	r3, #16384	; 0x4000
    2b70:	e283328e 	add	r3, r3, #-536870904	; 0xe0000008
    2b74:	e3a02000 	mov	r2, #0
    2b78:	e5832000 	str	r2, [r3]
  T0TCR=0x0;    //Reset timer0
    2b7c:	e3a03901 	mov	r3, #16384	; 0x4000
    2b80:	e283324e 	add	r3, r3, #-536870908	; 0xe0000004
    2b84:	e3a02000 	mov	r2, #0
    2b88:	e5832000 	str	r2, [r3]
  T0MCR=0x3;    //Interrupt on match MR0 and reset counter
    2b8c:	e3a0320e 	mov	r3, #-536870912	; 0xe0000000
    2b90:	e2833901 	add	r3, r3, #16384	; 0x4000
    2b94:	e2833014 	add	r3, r3, #20
    2b98:	e3a02003 	mov	r2, #3
    2b9c:	e5832000 	str	r2, [r3]
  T0PR=0;
    2ba0:	e3a03901 	mov	r3, #16384	; 0x4000
    2ba4:	e28332ce 	add	r3, r3, #-536870900	; 0xe000000c
    2ba8:	e3a02000 	mov	r2, #0
    2bac:	e5832000 	str	r2, [r3]
  T0PC=0;     //Prescale Counter = 0
    2bb0:	e3a0320e 	mov	r3, #-536870912	; 0xe0000000
    2bb4:	e2833901 	add	r3, r3, #16384	; 0x4000
    2bb8:	e2833010 	add	r3, r3, #16
    2bbc:	e3a02000 	mov	r2, #0
    2bc0:	e5832000 	str	r2, [r3]
  T0MR0=peripheralClockFrequency()/ControllerCyclesPerSecond; // /200 => 200 Hz Period
    2bc4:	e3a0420e 	mov	r4, #-536870912	; 0xe0000000
    2bc8:	e2844901 	add	r4, r4, #16384	; 0x4000
    2bcc:	e2844018 	add	r4, r4, #24
    2bd0:	eb000096 	bl	2e30 <peripheralClockFrequency>
    2bd4:	e1a02000 	mov	r2, r0
    2bd8:	e59f3024 	ldr	r3, [pc, #36]	; 2c04 <init_timer0+0xa4>
    2bdc:	e0831392 	umull	r1, r3, r2, r3
    2be0:	e1a03323 	lsr	r3, r3, #6
    2be4:	e5843000 	str	r3, [r4]
  T0TCR=0x1;   //Set timer0
    2be8:	e3a03901 	mov	r3, #16384	; 0x4000
    2bec:	e283324e 	add	r3, r3, #-536870908	; 0xe0000004
    2bf0:	e3a02001 	mov	r2, #1
    2bf4:	e5832000 	str	r2, [r3]
}
    2bf8:	e24bd010 	sub	sp, fp, #16
    2bfc:	e89d6810 	ldm	sp, {r4, fp, sp, lr}
    2c00:	e12fff1e 	bx	lr
    2c04:	10624dd3 	.word	0x10624dd3

00002c08 <PWM_Init>:

void PWM_Init( void )
{
    2c08:	e1a0c00d 	mov	ip, sp
    2c0c:	e92dd800 	push	{fp, ip, lr, pc}
    2c10:	e24cb004 	sub	fp, ip, #4
  //  match_counter = 0;
  //  PINSEL0 = 0x000A800A;	/* set GPIOs for all PWMs */
  //  PINSEL1 = 0x00000400;
    PWMTCR = TCR_RESET;		/* Counter Reset */
    2c14:	e3a0324e 	mov	r3, #-536870908	; 0xe0000004
    2c18:	e2833905 	add	r3, r3, #81920	; 0x14000
    2c1c:	e3a02002 	mov	r2, #2
    2c20:	e5832000 	str	r2, [r3]

    PWMPR = 0x00;		/* count frequency:Fpclk */
    2c24:	e3a032ce 	mov	r3, #-536870900	; 0xe000000c
    2c28:	e2833905 	add	r3, r3, #81920	; 0x14000
    2c2c:	e3a02000 	mov	r2, #0
    2c30:	e5832000 	str	r2, [r3]
    PWMMCR = PWMMR0R;	/* interrupt on PWMMR0, reset on PWMMR0, reset
    2c34:	e3a0320e 	mov	r3, #-536870912	; 0xe0000000
    2c38:	e2833905 	add	r3, r3, #81920	; 0x14000
    2c3c:	e2833014 	add	r3, r3, #20
    2c40:	e3a02002 	mov	r2, #2
    2c44:	e5832000 	str	r2, [r3]
				TC if PWM0 matches */
    PWMMR0 = 1179648 ;
    2c48:	e3a0320e 	mov	r3, #-536870912	; 0xe0000000
    2c4c:	e2833905 	add	r3, r3, #81920	; 0x14000
    2c50:	e2833018 	add	r3, r3, #24
    2c54:	e3a02812 	mov	r2, #1179648	; 0x120000
    2c58:	e5832000 	str	r2, [r3]
    PWMMR5 = 88470;
    2c5c:	e3a0220e 	mov	r2, #-536870912	; 0xe0000000
    2c60:	e2822905 	add	r2, r2, #81920	; 0x14000
    2c64:	e2822044 	add	r2, r2, #68	; 0x44
    2c68:	e3a03b56 	mov	r3, #88064	; 0x15800
    2c6c:	e2833f65 	add	r3, r3, #404	; 0x194
    2c70:	e2833002 	add	r3, r3, #2
    2c74:	e5823000 	str	r3, [r2]

    /* all PWM latch enabled */
    PWMLER = LER5_EN;
    2c78:	e3a0320e 	mov	r3, #-536870912	; 0xe0000000
    2c7c:	e2833905 	add	r3, r3, #81920	; 0x14000
    2c80:	e2833050 	add	r3, r3, #80	; 0x50
    2c84:	e3a02020 	mov	r2, #32
    2c88:	e5832000 	str	r2, [r3]

        /* All single edge, all enable */
    PWMPCR = PWMENA1 | PWMENA2 | PWMENA3 | PWMENA4 | PWMENA5 | PWMENA6;
    2c8c:	e3a0320e 	mov	r3, #-536870912	; 0xe0000000
    2c90:	e2833905 	add	r3, r3, #81920	; 0x14000
    2c94:	e283304c 	add	r3, r3, #76	; 0x4c
    2c98:	e3a02c7e 	mov	r2, #32256	; 0x7e00
    2c9c:	e5832000 	str	r2, [r3]
    PWMTCR = TCR_CNT_EN | TCR_PWM_EN;	/* counter enable, PWM enable */
    2ca0:	e3a0324e 	mov	r3, #-536870908	; 0xe0000004
    2ca4:	e2833905 	add	r3, r3, #81920	; 0x14000
    2ca8:	e3a02009 	mov	r2, #9
    2cac:	e5832000 	str	r2, [r3]
}
    2cb0:	e24bd00c 	sub	sp, fp, #12
    2cb4:	e89d6800 	ldm	sp, {fp, sp, lr}
    2cb8:	e12fff1e 	bx	lr

00002cbc <init_spi>:


void init_spi(void)
{
    2cbc:	e1a0c00d 	mov	ip, sp
    2cc0:	e92dd800 	push	{fp, ip, lr, pc}
    2cc4:	e24cb004 	sub	fp, ip, #4
  S0SPCCR=0x04; //30 clock-cycles (~60MHz) = 1 SPI cycle => SPI @ 2MHz
    2cc8:	e3a032ce 	mov	r3, #-536870900	; 0xe000000c
    2ccc:	e2833802 	add	r3, r3, #131072	; 0x20000
    2cd0:	e3a02004 	mov	r2, #4
    2cd4:	e5832000 	str	r2, [r3]
  S0SPCR=0x20;  //LPC is Master
    2cd8:	e3a0320e 	mov	r3, #-536870912	; 0xe0000000
    2cdc:	e2833802 	add	r3, r3, #131072	; 0x20000
    2ce0:	e3a02020 	mov	r2, #32
    2ce4:	e5832000 	str	r2, [r3]
}
    2ce8:	e24bd00c 	sub	sp, fp, #12
    2cec:	e89d6800 	ldm	sp, {fp, sp, lr}
    2cf0:	e12fff1e 	bx	lr

00002cf4 <init_spi1>:

void init_spi1(void)
{
    2cf4:	e1a0c00d 	mov	ip, sp
    2cf8:	e92dd800 	push	{fp, ip, lr, pc}
    2cfc:	e24cb004 	sub	fp, ip, #4
    2d00:	e24dd004 	sub	sp, sp, #4
	unsigned char i, Dummy;

    /* Set DSS data to 8-bit, Frame format SPI, CPOL = 0, CPHA = 0, and SCR is 3 */
    SSPCR0 = 0x040F;
    2d04:	e3a0220e 	mov	r2, #-536870912	; 0xe0000000
    2d08:	e282291a 	add	r2, r2, #425984	; 0x68000
    2d0c:	e3a03b01 	mov	r3, #1024	; 0x400
    2d10:	e283300f 	add	r3, r3, #15
    2d14:	e5823000 	str	r3, [r2]

    /* SSPCPSR clock prescale register, master mode, minimum divisor is 0x02 */
    SSPCPSR = 0x1B;
    2d18:	e3a0320e 	mov	r3, #-536870912	; 0xe0000000
    2d1c:	e283391a 	add	r3, r3, #425984	; 0x68000
    2d20:	e2833010 	add	r3, r3, #16
    2d24:	e3a0201b 	mov	r2, #27
    2d28:	e5832000 	str	r2, [r3]

    for ( i = 0; i < FIFOSIZE; i++ )
    2d2c:	e3a03000 	mov	r3, #0
    2d30:	e54b300e 	strb	r3, [fp, #-14]
    2d34:	ea000006 	b	2d54 <init_spi1+0x60>
    {
	Dummy = SSPDR;		/* clear the RxFIFO */
    2d38:	e3a0328e 	mov	r3, #-536870904	; 0xe0000008
    2d3c:	e283391a 	add	r3, r3, #425984	; 0x68000
    2d40:	e5933000 	ldr	r3, [r3]
    2d44:	e54b300d 	strb	r3, [fp, #-13]
    SSPCR0 = 0x040F;

    /* SSPCPSR clock prescale register, master mode, minimum divisor is 0x02 */
    SSPCPSR = 0x1B;

    for ( i = 0; i < FIFOSIZE; i++ )
    2d48:	e55b300e 	ldrb	r3, [fp, #-14]
    2d4c:	e2833001 	add	r3, r3, #1
    2d50:	e54b300e 	strb	r3, [fp, #-14]
    2d54:	e55b300e 	ldrb	r3, [fp, #-14]
    2d58:	e3530007 	cmp	r3, #7
    2d5c:	9afffff5 	bls	2d38 <init_spi1+0x44>
    {
	Dummy = SSPDR;		/* clear the RxFIFO */
    }

    /*all ints deactivated*/
	SSPIMSC = 0;
    2d60:	e3a0320e 	mov	r3, #-536870912	; 0xe0000000
    2d64:	e283391a 	add	r3, r3, #425984	; 0x68000
    2d68:	e2833014 	add	r3, r3, #20
    2d6c:	e3a02000 	mov	r2, #0
    2d70:	e5832000 	str	r2, [r3]

    /* Device select as master, SSP Enabled */
    SSPCR1 = 0x00;// | SSPCR1_SSE;
    2d74:	e3a0324e 	mov	r3, #-536870908	; 0xe0000004
    2d78:	e283391a 	add	r3, r3, #425984	; 0x68000
    2d7c:	e3a02000 	mov	r2, #0
    2d80:	e5832000 	str	r2, [r3]

    return;


}
    2d84:	e24bd00c 	sub	sp, fp, #12
    2d88:	e89d6800 	ldm	sp, {fp, sp, lr}
    2d8c:	e12fff1e 	bx	lr

00002d90 <pll_init>:

void pll_init(void)
{
    2d90:	e1a0c00d 	mov	ip, sp
    2d94:	e92dd800 	push	{fp, ip, lr, pc}
    2d98:	e24cb004 	sub	fp, ip, #4
  PLLCFG=0x23;    //0b00100011; => M=4,0690; P=2;
    2d9c:	e3a0320e 	mov	r3, #-536870912	; 0xe0000000
    2da0:	e283397f 	add	r3, r3, #2080768	; 0x1fc000
    2da4:	e2833084 	add	r3, r3, #132	; 0x84
    2da8:	e3a02023 	mov	r2, #35	; 0x23
    2dac:	e5832000 	str	r2, [r3]
  PLLCON=0x03;    //PLLE=1, PLLC=1 => PLL enabled as system clock
    2db0:	e3a0320e 	mov	r3, #-536870912	; 0xe0000000
    2db4:	e283397f 	add	r3, r3, #2080768	; 0x1fc000
    2db8:	e2833080 	add	r3, r3, #128	; 0x80
    2dbc:	e3a02003 	mov	r2, #3
    2dc0:	e5832000 	str	r2, [r3]
}
    2dc4:	e24bd00c 	sub	sp, fp, #12
    2dc8:	e89d6800 	ldm	sp, {fp, sp, lr}
    2dcc:	e12fff1e 	bx	lr

00002dd0 <pll_feed>:

void pll_feed(void)
{
    2dd0:	e1a0c00d 	mov	ip, sp
    2dd4:	e92dd800 	push	{fp, ip, lr, pc}
    2dd8:	e24cb004 	sub	fp, ip, #4
  PLLFEED=0xAA;
    2ddc:	e3a0320e 	mov	r3, #-536870912	; 0xe0000000
    2de0:	e283397f 	add	r3, r3, #2080768	; 0x1fc000
    2de4:	e283308c 	add	r3, r3, #140	; 0x8c
    2de8:	e3a020aa 	mov	r2, #170	; 0xaa
    2dec:	e5832000 	str	r2, [r3]
  PLLFEED=0x55;
    2df0:	e3a0320e 	mov	r3, #-536870912	; 0xe0000000
    2df4:	e283397f 	add	r3, r3, #2080768	; 0x1fc000
    2df8:	e283308c 	add	r3, r3, #140	; 0x8c
    2dfc:	e3a02055 	mov	r2, #85	; 0x55
    2e00:	e5832000 	str	r2, [r3]
}
    2e04:	e24bd00c 	sub	sp, fp, #12
    2e08:	e89d6800 	ldm	sp, {fp, sp, lr}
    2e0c:	e12fff1e 	bx	lr

00002e10 <processorClockFrequency>:

unsigned int processorClockFrequency(void)
{
    2e10:	e1a0c00d 	mov	ip, sp
    2e14:	e92dd800 	push	{fp, ip, lr, pc}
    2e18:	e24cb004 	sub	fp, ip, #4
  return 58982400;
    2e1c:	e3a037e1 	mov	r3, #58982400	; 0x3840000
}
    2e20:	e1a00003 	mov	r0, r3
    2e24:	e24bd00c 	sub	sp, fp, #12
    2e28:	e89d6800 	ldm	sp, {fp, sp, lr}
    2e2c:	e12fff1e 	bx	lr

00002e30 <peripheralClockFrequency>:

unsigned int peripheralClockFrequency(void)
{
    2e30:	e1a0c00d 	mov	ip, sp
    2e34:	e92dd800 	push	{fp, ip, lr, pc}
    2e38:	e24cb004 	sub	fp, ip, #4
    2e3c:	e24dd008 	sub	sp, sp, #8
  unsigned int divider;
  switch (VPBDIV & 3)
    2e40:	e3a0320e 	mov	r3, #-536870912	; 0xe0000000
    2e44:	e283397f 	add	r3, r3, #2080768	; 0x1fc000
    2e48:	e2833c01 	add	r3, r3, #256	; 0x100
    2e4c:	e5933000 	ldr	r3, [r3]
    2e50:	e2033003 	and	r3, r3, #3
    2e54:	e50b3014 	str	r3, [fp, #-20]
    2e58:	e51b3014 	ldr	r3, [fp, #-20]
    2e5c:	e3530001 	cmp	r3, #1
    2e60:	0a000009 	beq	2e8c <peripheralClockFrequency+0x5c>
    2e64:	e51b3014 	ldr	r3, [fp, #-20]
    2e68:	e3530001 	cmp	r3, #1
    2e6c:	3a000003 	bcc	2e80 <peripheralClockFrequency+0x50>
    2e70:	e51b3014 	ldr	r3, [fp, #-20]
    2e74:	e3530002 	cmp	r3, #2
    2e78:	0a000006 	beq	2e98 <peripheralClockFrequency+0x68>
    2e7c:	ea000007 	b	2ea0 <peripheralClockFrequency+0x70>
    {
      case 0:
        divider = 4;
    2e80:	e3a03004 	mov	r3, #4
    2e84:	e50b3010 	str	r3, [fp, #-16]
        break;
    2e88:	ea000004 	b	2ea0 <peripheralClockFrequency+0x70>
      case 1:
        divider = 1;
    2e8c:	e3a03001 	mov	r3, #1
    2e90:	e50b3010 	str	r3, [fp, #-16]
        break;
    2e94:	ea000001 	b	2ea0 <peripheralClockFrequency+0x70>
      case 2:
        divider = 2;
    2e98:	e3a03002 	mov	r3, #2
    2e9c:	e50b3010 	str	r3, [fp, #-16]
        break;
    }
  return processorClockFrequency() / divider;
    2ea0:	ebffffda 	bl	2e10 <processorClockFrequency>
    2ea4:	e1a03000 	mov	r3, r0
    2ea8:	e1a00003 	mov	r0, r3
    2eac:	e51b1010 	ldr	r1, [fp, #-16]
    2eb0:	eb002a7b 	bl	d8a4 <____udivsi3_from_arm>
    2eb4:	e1a03000 	mov	r3, r0
}
    2eb8:	e1a00003 	mov	r0, r3
    2ebc:	e24bd00c 	sub	sp, fp, #12
    2ec0:	e89d6800 	ldm	sp, {fp, sp, lr}
    2ec4:	e12fff1e 	bx	lr

00002ec8 <delay>:

void delay(int n)
{
    2ec8:	e1a0c00d 	mov	ip, sp
    2ecc:	e92dd800 	push	{fp, ip, lr, pc}
    2ed0:	e24cb004 	sub	fp, ip, #4
    2ed4:	e24dd008 	sub	sp, sp, #8
    2ed8:	e50b0014 	str	r0, [fp, #-20]
  volatile int i;
  for (i = 0; i < n; ++i);
    2edc:	e3a03000 	mov	r3, #0
    2ee0:	e50b3010 	str	r3, [fp, #-16]
    2ee4:	ea000002 	b	2ef4 <delay+0x2c>
    2ee8:	e51b3010 	ldr	r3, [fp, #-16]
    2eec:	e2833001 	add	r3, r3, #1
    2ef0:	e50b3010 	str	r3, [fp, #-16]
    2ef4:	e51b2010 	ldr	r2, [fp, #-16]
    2ef8:	e51b3014 	ldr	r3, [fp, #-20]
    2efc:	e1520003 	cmp	r2, r3
    2f00:	bafffff8 	blt	2ee8 <delay+0x20>
}
    2f04:	e24bd00c 	sub	sp, fp, #12
    2f08:	e89d6800 	ldm	sp, {fp, sp, lr}
    2f0c:	e12fff1e 	bx	lr

00002f10 <uart0ISR>:
volatile int toggle = 0;
volatile int lps = 0;

// user uart
void uart0ISR(void) __irq
{
    2f10:	e1a0c00d 	mov	ip, sp
    2f14:	e92dd810 	push	{r4, fp, ip, lr, pc}
    2f18:	e24cb004 	sub	fp, ip, #4
    2f1c:	e24dd004 	sub	sp, sp, #4

  // Read IIR to clear interrupt and find out the cause
  IENABLE;

  // Handle UART interrupt
  iir = (U0IIR >> 1) & 0x7;
    2f20:	e3a03903 	mov	r3, #49152	; 0xc000
    2f24:	e283328e 	add	r3, r3, #-536870904	; 0xe0000008
    2f28:	e5933000 	ldr	r3, [r3]
    2f2c:	e1a030a3 	lsr	r3, r3, #1
    2f30:	e2033007 	and	r3, r3, #7
    2f34:	e50b3014 	str	r3, [fp, #-20]
  if (iir == 1) // Transmitter is empty
    2f38:	e51b3014 	ldr	r3, [fp, #-20]
    2f3c:	e3530001 	cmp	r3, #1
    2f40:	1a000012 	bne	2f90 <uart0ISR+0x80>
  {
	// 0x20 -- On when U0THR (Transmitter Holding Register) is empty...
	while (RBCount(&u0s) != 0 && ((U0LSR & 0x20) != 0))
    2f44:	ea000005 	b	2f60 <uart0ISR+0x50>
	{ 
			U0THR = RBDequeue(&u0s);
    2f48:	e3a0420e 	mov	r4, #-536870912	; 0xe0000000
    2f4c:	e2844903 	add	r4, r4, #49152	; 0xc000
    2f50:	e59f007c 	ldr	r0, [pc, #124]	; 2fd4 <uart0ISR+0xc4>
    2f54:	ebfffc59 	bl	20c0 <RBDequeue>
    2f58:	e1a03000 	mov	r3, r0
    2f5c:	e5843000 	str	r3, [r4]
  // Handle UART interrupt
  iir = (U0IIR >> 1) & 0x7;
  if (iir == 1) // Transmitter is empty
  {
	// 0x20 -- On when U0THR (Transmitter Holding Register) is empty...
	while (RBCount(&u0s) != 0 && ((U0LSR & 0x20) != 0))
    2f60:	e59f006c 	ldr	r0, [pc, #108]	; 2fd4 <uart0ISR+0xc4>
    2f64:	ebfffc53 	bl	20b8 <RBCount>
    2f68:	e1a03000 	mov	r3, r0
    2f6c:	e3530000 	cmp	r3, #0
    2f70:	0a000006 	beq	2f90 <uart0ISR+0x80>
    2f74:	e3a0320e 	mov	r3, #-536870912	; 0xe0000000
    2f78:	e2833903 	add	r3, r3, #49152	; 0xc000
    2f7c:	e2833014 	add	r3, r3, #20
    2f80:	e5933000 	ldr	r3, [r3]
    2f84:	e2033020 	and	r3, r3, #32
    2f88:	e3530000 	cmp	r3, #0
    2f8c:	1affffed 	bne	2f48 <uart0ISR+0x38>
//  	RBEnqueue(&u0r, U0RBR);
 // 	RBEnqueue(&u0r, U0RBR);
  //	RBEnqueue(&u0r, U0RBR);
  //	RBEnqueue(&u0r, U0RBR);
  } 
  if (iir == 6)
    2f90:	e51b3014 	ldr	r3, [fp, #-20]
    2f94:	e3530006 	cmp	r3, #6
    2f98:	1a000006 	bne	2fb8 <uart0ISR+0xa8>
	 RBEnqueue(&u0r, U0RBR);
    2f9c:	e3a0320e 	mov	r3, #-536870912	; 0xe0000000
    2fa0:	e2833903 	add	r3, r3, #49152	; 0xc000
    2fa4:	e5933000 	ldr	r3, [r3]
    2fa8:	e20330ff 	and	r3, r3, #255	; 0xff
    2fac:	e59f0024 	ldr	r0, [pc, #36]	; 2fd8 <uart0ISR+0xc8>
    2fb0:	e1a01003 	mov	r1, r3
    2fb4:	ebfffc75 	bl	2190 <RBEnqueue>
  IDISABLE; 
  VICVectAddr = 0;		// Acknowledge Interrupt
    2fb8:	e3a03000 	mov	r3, #0
    2fbc:	e2433efd 	sub	r3, r3, #4048	; 0xfd0
    2fc0:	e3a02000 	mov	r2, #0
    2fc4:	e5832000 	str	r2, [r3]
}
    2fc8:	e24bd010 	sub	sp, fp, #16
    2fcc:	e89d6810 	ldm	sp, {r4, fp, sp, lr}
    2fd0:	e12fff1e 	bx	lr
    2fd4:	40001a98 	.word	0x40001a98
    2fd8:	400019f8 	.word	0x400019f8

00002fdc <emptyUART0>:

void emptyUART0(void)
{
    2fdc:	e1a0c00d 	mov	ip, sp
    2fe0:	e92dd800 	push	{fp, ip, lr, pc}
    2fe4:	e24cb004 	sub	fp, ip, #4
    2fe8:	e24dd004 	sub	sp, sp, #4
	char rcvd;

	while ( LSR0_RDR )
    2fec:	ea000007 	b	3010 <emptyUART0+0x34>
	{
		rcvd = U0RBR;
    2ff0:	e3a0320e 	mov	r3, #-536870912	; 0xe0000000
    2ff4:	e2833903 	add	r3, r3, #49152	; 0xc000
    2ff8:	e5933000 	ldr	r3, [r3]
    2ffc:	e54b300d 	strb	r3, [fp, #-13]
		RBEnqueue(&u0r, rcvd);
    3000:	e55b300d 	ldrb	r3, [fp, #-13]
    3004:	e59f0030 	ldr	r0, [pc, #48]	; 303c <emptyUART0+0x60>
    3008:	e1a01003 	mov	r1, r3
    300c:	ebfffc5f 	bl	2190 <RBEnqueue>

void emptyUART0(void)
{
	char rcvd;

	while ( LSR0_RDR )
    3010:	e3a0320e 	mov	r3, #-536870912	; 0xe0000000
    3014:	e2833903 	add	r3, r3, #49152	; 0xc000
    3018:	e2833014 	add	r3, r3, #20
    301c:	e5933000 	ldr	r3, [r3]
    3020:	e2033001 	and	r3, r3, #1
    3024:	e20330ff 	and	r3, r3, #255	; 0xff
    3028:	e3530000 	cmp	r3, #0
    302c:	1affffef 	bne	2ff0 <emptyUART0+0x14>
	{
		rcvd = U0RBR;
		RBEnqueue(&u0r, rcvd);
		//UART0WriteChar(rcvd);
	}
}
    3030:	e24bd00c 	sub	sp, fp, #12
    3034:	e89d6800 	ldm	sp, {fp, sp, lr}
    3038:	e12fff1e 	bx	lr
    303c:	400019f8 	.word	0x400019f8

00003040 <UART0Initialize>:

void UART0Initialize(unsigned int baud)
{
    3040:	e1a0c00d 	mov	ip, sp
    3044:	e92dd800 	push	{fp, ip, lr, pc}
    3048:	e24cb004 	sub	fp, ip, #4
    304c:	e24dd008 	sub	sp, sp, #8
    3050:	e50b0014 	str	r0, [fp, #-20]
  unsigned int divisor = peripheralClockFrequency() / (16 * baud);
    3054:	ebffff75 	bl	2e30 <peripheralClockFrequency>
    3058:	e1a02000 	mov	r2, r0
    305c:	e51b3014 	ldr	r3, [fp, #-20]
    3060:	e1a03203 	lsl	r3, r3, #4
    3064:	e1a00002 	mov	r0, r2
    3068:	e1a01003 	mov	r1, r3
    306c:	eb002a0c 	bl	d8a4 <____udivsi3_from_arm>
    3070:	e1a03000 	mov	r3, r0
    3074:	e50b3010 	str	r3, [fp, #-16]
// U0IER
//  Bit0: RBR enable
//  Bit1: THRE enable

  //UART0
	LED(0,OFF);
    3078:	e3a00000 	mov	r0, #0
    307c:	e3a01000 	mov	r1, #0
    3080:	ebfffde9 	bl	282c <LED>
	LED(1,OFF);
    3084:	e3a00001 	mov	r0, #1
    3088:	e3a01000 	mov	r1, #0
    308c:	ebfffde6 	bl	282c <LED>

  RBInit(&u0s);
    3090:	e59f0090 	ldr	r0, [pc, #144]	; 3128 <UART0Initialize+0xe8>
    3094:	ebfffbc1 	bl	1fa0 <RBInit>
  RBInit(&u0r); //Send / Receive uart buffers.
    3098:	e59f008c 	ldr	r0, [pc, #140]	; 312c <UART0Initialize+0xec>
    309c:	ebfffbbf 	bl	1fa0 <RBInit>
  U0LCR = 0x83; /* 8 bit, 1 stop bit, no parity, enable DLAB */
    30a0:	e3a03903 	mov	r3, #49152	; 0xc000
    30a4:	e28332ce 	add	r3, r3, #-536870900	; 0xe000000c
    30a8:	e3a02083 	mov	r2, #131	; 0x83
    30ac:	e5832000 	str	r2, [r3]
  U0DLL = divisor & 0xFF;
    30b0:	e3a0320e 	mov	r3, #-536870912	; 0xe0000000
    30b4:	e2833903 	add	r3, r3, #49152	; 0xc000
    30b8:	e51b2010 	ldr	r2, [fp, #-16]
    30bc:	e20220ff 	and	r2, r2, #255	; 0xff
    30c0:	e5832000 	str	r2, [r3]
  U0DLM = (divisor >> 8) & 0xFF;
    30c4:	e3a02903 	mov	r2, #49152	; 0xc000
    30c8:	e282224e 	add	r2, r2, #-536870908	; 0xe0000004
    30cc:	e51b3010 	ldr	r3, [fp, #-16]
    30d0:	e1a03423 	lsr	r3, r3, #8
    30d4:	e20330ff 	and	r3, r3, #255	; 0xff
    30d8:	e5823000 	str	r3, [r2]
  U0LCR &= ~0x80; /* Disable DLAB */
    30dc:	e3a02903 	mov	r2, #49152	; 0xc000
    30e0:	e28222ce 	add	r2, r2, #-536870900	; 0xe000000c
    30e4:	e3a03903 	mov	r3, #49152	; 0xc000
    30e8:	e28332ce 	add	r3, r3, #-536870900	; 0xe000000c
    30ec:	e5933000 	ldr	r3, [r3]
    30f0:	e3c33080 	bic	r3, r3, #128	; 0x80
    30f4:	e5823000 	str	r3, [r2]
  U0FCR = FIFO_ENABLE | TL3; // Enable FIFO's, interrupt every 14 characters.
    30f8:	e3a03903 	mov	r3, #49152	; 0xc000
    30fc:	e283328e 	add	r3, r3, #-536870904	; 0xe0000008
    3100:	e3a020b1 	mov	r2, #177	; 0xb1
    3104:	e5832000 	str	r2, [r3]
  U0TER = 0x80; //Enable transmitter.
    3108:	e3a0320e 	mov	r3, #-536870912	; 0xe0000000
    310c:	e2833903 	add	r3, r3, #49152	; 0xc000
    3110:	e2833030 	add	r3, r3, #48	; 0x30
    3114:	e3a02080 	mov	r2, #128	; 0x80
    3118:	e5832000 	str	r2, [r3]
}
    311c:	e24bd00c 	sub	sp, fp, #12
    3120:	e89d6800 	ldm	sp, {fp, sp, lr}
    3124:	e12fff1e 	bx	lr
    3128:	40001a98 	.word	0x40001a98
    312c:	400019f8 	.word	0x400019f8

00003130 <UART0Debug>:

void UART0Debug(char *msg, int length)
{
    3130:	e1a0c00d 	mov	ip, sp
    3134:	e92dd800 	push	{fp, ip, lr, pc}
    3138:	e24cb004 	sub	fp, ip, #4
    313c:	e24dd008 	sub	sp, sp, #8
    3140:	e50b0010 	str	r0, [fp, #-16]
    3144:	e50b1014 	str	r1, [fp, #-20]

  while ( length > 0 )
    3148:	ea000011 	b	3194 <UART0Debug+0x64>
  {
	while ( (U0LSR & 0x20) == 0 ); // Wait until we can send...
    314c:	e3a0320e 	mov	r3, #-536870912	; 0xe0000000
    3150:	e2833903 	add	r3, r3, #49152	; 0xc000
    3154:	e2833014 	add	r3, r3, #20
    3158:	e5933000 	ldr	r3, [r3]
    315c:	e2033020 	and	r3, r3, #32
    3160:	e3530000 	cmp	r3, #0
    3164:	0afffff8 	beq	314c <UART0Debug+0x1c>
	length--;
    3168:	e51b3014 	ldr	r3, [fp, #-20]
    316c:	e2433001 	sub	r3, r3, #1
    3170:	e50b3014 	str	r3, [fp, #-20]
	U0THR = *msg;
    3174:	e3a0220e 	mov	r2, #-536870912	; 0xe0000000
    3178:	e2822903 	add	r2, r2, #49152	; 0xc000
    317c:	e51b3010 	ldr	r3, [fp, #-16]
    3180:	e5d33000 	ldrb	r3, [r3]
    3184:	e5823000 	str	r3, [r2]
	msg++;
    3188:	e51b3010 	ldr	r3, [fp, #-16]
    318c:	e2833001 	add	r3, r3, #1
    3190:	e50b3010 	str	r3, [fp, #-16]
}

void UART0Debug(char *msg, int length)
{

  while ( length > 0 )
    3194:	e51b3014 	ldr	r3, [fp, #-20]
    3198:	e3530000 	cmp	r3, #0
    319c:	caffffea 	bgt	314c <UART0Debug+0x1c>
	length--;
	U0THR = *msg;
	msg++;
  }

}
    31a0:	e24bd00c 	sub	sp, fp, #12
    31a4:	e89d6800 	ldm	sp, {fp, sp, lr}
    31a8:	e12fff1e 	bx	lr

000031ac <UART0WriteChar>:

//Write to UART0
void UART0WriteChar(unsigned char ch)
{
    31ac:	e1a0c00d 	mov	ip, sp
    31b0:	e92dd800 	push	{fp, ip, lr, pc}
    31b4:	e24cb004 	sub	fp, ip, #4
    31b8:	e24dd004 	sub	sp, sp, #4
    31bc:	e1a03000 	mov	r3, r0
    31c0:	e54b3010 	strb	r3, [fp, #-16]
  if ( U0LSR & 0x20 ) // Transmitter Empty, so we need to write directly to transmitter.
    31c4:	e3a0320e 	mov	r3, #-536870912	; 0xe0000000
    31c8:	e2833903 	add	r3, r3, #49152	; 0xc000
    31cc:	e2833014 	add	r3, r3, #20
    31d0:	e5933000 	ldr	r3, [r3]
    31d4:	e2033020 	and	r3, r3, #32
    31d8:	e3530000 	cmp	r3, #0
    31dc:	0a000004 	beq	31f4 <UART0WriteChar+0x48>
    U0THR = ch;
    31e0:	e3a0320e 	mov	r3, #-536870912	; 0xe0000000
    31e4:	e2833903 	add	r3, r3, #49152	; 0xc000
    31e8:	e55b2010 	ldrb	r2, [fp, #-16]
    31ec:	e5832000 	str	r2, [r3]
    31f0:	ea000003 	b	3204 <UART0WriteChar+0x58>
  else
    RBEnqueue(&u0s, ch);
    31f4:	e55b3010 	ldrb	r3, [fp, #-16]
    31f8:	e59f0010 	ldr	r0, [pc, #16]	; 3210 <UART0WriteChar+0x64>
    31fc:	e1a01003 	mov	r1, r3
    3200:	ebfffbe2 	bl	2190 <RBEnqueue>
}
    3204:	e24bd00c 	sub	sp, fp, #12
    3208:	e89d6800 	ldm	sp, {fp, sp, lr}
    320c:	e12fff1e 	bx	lr
    3210:	40001a98 	.word	0x40001a98

00003214 <uart0Prime>:

// Primes the UART send buffer.
void uart0Prime(void)
{
    3214:	e1a0c00d 	mov	ip, sp
    3218:	e92dd810 	push	{r4, fp, ip, lr, pc}
    321c:	e24cb004 	sub	fp, ip, #4
	while ( RBCount(&u0s) > 0 )
    3220:	ea00000c 	b	3258 <uart0Prime+0x44>
	{
		while (!(U0LSR & 0x20));
    3224:	e3a0320e 	mov	r3, #-536870912	; 0xe0000000
    3228:	e2833903 	add	r3, r3, #49152	; 0xc000
    322c:	e2833014 	add	r3, r3, #20
    3230:	e5933000 	ldr	r3, [r3]
    3234:	e2033020 	and	r3, r3, #32
    3238:	e3530000 	cmp	r3, #0
    323c:	0afffff8 	beq	3224 <uart0Prime+0x10>
	//if ( U0LSR & 0x20 ) //If transmitter is empty
		U0THR = RBDequeue(&u0s); //Write to the transmitter
    3240:	e3a0420e 	mov	r4, #-536870912	; 0xe0000000
    3244:	e2844903 	add	r4, r4, #49152	; 0xc000
    3248:	e59f0028 	ldr	r0, [pc, #40]	; 3278 <uart0Prime+0x64>
    324c:	ebfffb9b 	bl	20c0 <RBDequeue>
    3250:	e1a03000 	mov	r3, r0
    3254:	e5843000 	str	r3, [r4]
}

// Primes the UART send buffer.
void uart0Prime(void)
{
	while ( RBCount(&u0s) > 0 )
    3258:	e59f0018 	ldr	r0, [pc, #24]	; 3278 <uart0Prime+0x64>
    325c:	ebfffb95 	bl	20b8 <RBCount>
    3260:	e1a03000 	mov	r3, r0
    3264:	e3530000 	cmp	r3, #0
    3268:	caffffed 	bgt	3224 <uart0Prime+0x10>
	{
		while (!(U0LSR & 0x20));
	//if ( U0LSR & 0x20 ) //If transmitter is empty
		U0THR = RBDequeue(&u0s); //Write to the transmitter
	}
}
    326c:	e24bd010 	sub	sp, fp, #16
    3270:	e89d6810 	ldm	sp, {r4, fp, sp, lr}
    3274:	e12fff1e 	bx	lr
    3278:	40001a98 	.word	0x40001a98

0000327c <uart1ISR>:



// GPS Uart
void uart1ISR(void) __irq
{
    327c:	e1a0c00d 	mov	ip, sp
    3280:	e92dd800 	push	{fp, ip, lr, pc}
    3284:	e24cb004 	sub	fp, ip, #4
    3288:	e24dd008 	sub	sp, sp, #8
  unsigned char t;
  IENABLE;
  unsigned iir = U1IIR;
    328c:	e3a0328e 	mov	r3, #-536870904	; 0xe0000008
    3290:	e2833801 	add	r3, r3, #65536	; 0x10000
    3294:	e5933000 	ldr	r3, [r3]
    3298:	e50b3010 	str	r3, [fp, #-16]
      case 6:
        // CTI interrupt
        break;
   }
  IDISABLE;
  VICVectAddr = 0;		/* Acknowledge Interrupt */
    329c:	e3a03000 	mov	r3, #0
    32a0:	e2433efd 	sub	r3, r3, #4048	; 0xfd0
    32a4:	e3a02000 	mov	r2, #0
    32a8:	e5832000 	str	r2, [r3]
}
    32ac:	e24bd00c 	sub	sp, fp, #12
    32b0:	e89d6800 	ldm	sp, {fp, sp, lr}
    32b4:	e12fff1e 	bx	lr

000032b8 <UART1Initialize>:



// Uart1 seems to get used for GPS.
void UART1Initialize(unsigned int baud)
{
    32b8:	e1a0c00d 	mov	ip, sp
    32bc:	e92dd800 	push	{fp, ip, lr, pc}
    32c0:	e24cb004 	sub	fp, ip, #4
    32c4:	e24dd008 	sub	sp, sp, #8
    32c8:	e50b0014 	str	r0, [fp, #-20]
  unsigned int divisor = peripheralClockFrequency() / (16 * baud);
    32cc:	ebfffed7 	bl	2e30 <peripheralClockFrequency>
    32d0:	e1a02000 	mov	r2, r0
    32d4:	e51b3014 	ldr	r3, [fp, #-20]
    32d8:	e1a03203 	lsl	r3, r3, #4
    32dc:	e1a00002 	mov	r0, r2
    32e0:	e1a01003 	mov	r1, r3
    32e4:	eb00296e 	bl	d8a4 <____udivsi3_from_arm>
    32e8:	e1a03000 	mov	r3, r0
    32ec:	e50b3010 	str	r3, [fp, #-16]
//UART1
  U1LCR = 0x83; /* 8 bit, 1 stop bit, no parity, enable DLAB */
    32f0:	e3a032ce 	mov	r3, #-536870900	; 0xe000000c
    32f4:	e2833801 	add	r3, r3, #65536	; 0x10000
    32f8:	e3a02083 	mov	r2, #131	; 0x83
    32fc:	e5832000 	str	r2, [r3]
  U1DLL = divisor & 0xFF;
    3300:	e3a0320e 	mov	r3, #-536870912	; 0xe0000000
    3304:	e2833801 	add	r3, r3, #65536	; 0x10000
    3308:	e51b2010 	ldr	r2, [fp, #-16]
    330c:	e20220ff 	and	r2, r2, #255	; 0xff
    3310:	e5832000 	str	r2, [r3]
  U1DLM = (divisor >> 8) & 0xFF;
    3314:	e3a0224e 	mov	r2, #-536870908	; 0xe0000004
    3318:	e2822801 	add	r2, r2, #65536	; 0x10000
    331c:	e51b3010 	ldr	r3, [fp, #-16]
    3320:	e1a03423 	lsr	r3, r3, #8
    3324:	e20330ff 	and	r3, r3, #255	; 0xff
    3328:	e5823000 	str	r3, [r2]
  U1LCR &= ~0x80; /* Disable DLAB */
    332c:	e3a022ce 	mov	r2, #-536870900	; 0xe000000c
    3330:	e2822801 	add	r2, r2, #65536	; 0x10000
    3334:	e3a032ce 	mov	r3, #-536870900	; 0xe000000c
    3338:	e2833801 	add	r3, r3, #65536	; 0x10000
    333c:	e5933000 	ldr	r3, [r3]
    3340:	e3c33080 	bic	r3, r3, #128	; 0x80
    3344:	e5823000 	str	r3, [r2]
  U1FCR = 1;
    3348:	e3a0328e 	mov	r3, #-536870904	; 0xe0000008
    334c:	e2833801 	add	r3, r3, #65536	; 0x10000
    3350:	e3a02001 	mov	r2, #1
    3354:	e5832000 	str	r2, [r3]
}
    3358:	e24bd00c 	sub	sp, fp, #12
    335c:	e89d6800 	ldm	sp, {fp, sp, lr}
    3360:	e12fff1e 	bx	lr

00003364 <UART1WriteChar>:


//Write to UART1
void UART1WriteChar(unsigned char ch)
{
    3364:	e1a0c00d 	mov	ip, sp
    3368:	e92dd800 	push	{fp, ip, lr, pc}
    336c:	e24cb004 	sub	fp, ip, #4
    3370:	e24dd004 	sub	sp, sp, #4
    3374:	e1a03000 	mov	r3, r0
    3378:	e54b3010 	strb	r3, [fp, #-16]
  while ((U1LSR & 0x20) == 0);
    337c:	e3a0320e 	mov	r3, #-536870912	; 0xe0000000
    3380:	e2833801 	add	r3, r3, #65536	; 0x10000
    3384:	e2833014 	add	r3, r3, #20
    3388:	e5933000 	ldr	r3, [r3]
    338c:	e2033020 	and	r3, r3, #32
    3390:	e3530000 	cmp	r3, #0
    3394:	0afffff8 	beq	337c <UART1WriteChar+0x18>
  U1THR = ch;
    3398:	e3a0320e 	mov	r3, #-536870912	; 0xe0000000
    339c:	e2833801 	add	r3, r3, #65536	; 0x10000
    33a0:	e55b2010 	ldrb	r2, [fp, #-16]
    33a4:	e5832000 	str	r2, [r3]
}
    33a8:	e24bd00c 	sub	sp, fp, #12
    33ac:	e89d6800 	ldm	sp, {fp, sp, lr}
    33b0:	e12fff1e 	bx	lr

000033b4 <UART1ReadChar>:

unsigned char UART1ReadChar(void)
{
    33b4:	e1a0c00d 	mov	ip, sp
    33b8:	e92dd800 	push	{fp, ip, lr, pc}
    33bc:	e24cb004 	sub	fp, ip, #4
  while ((U1LSR & 0x01) == 0);
    33c0:	e3a0320e 	mov	r3, #-536870912	; 0xe0000000
    33c4:	e2833801 	add	r3, r3, #65536	; 0x10000
    33c8:	e2833014 	add	r3, r3, #20
    33cc:	e5933000 	ldr	r3, [r3]
    33d0:	e2033001 	and	r3, r3, #1
    33d4:	e3530000 	cmp	r3, #0
    33d8:	0afffff8 	beq	33c0 <UART1ReadChar+0xc>
  return U1RBR;
    33dc:	e3a0320e 	mov	r3, #-536870912	; 0xe0000000
    33e0:	e2833801 	add	r3, r3, #65536	; 0x10000
    33e4:	e5933000 	ldr	r3, [r3]
    33e8:	e20330ff 	and	r3, r3, #255	; 0xff
}
    33ec:	e1a00003 	mov	r0, r3
    33f0:	e24bd00c 	sub	sp, fp, #12
    33f4:	e89d6800 	ldm	sp, {fp, sp, lr}
    33f8:	e12fff1e 	bx	lr

000033fc <__putchar>:

void __putchar(int ch)
{
    33fc:	e1a0c00d 	mov	ip, sp
    3400:	e92dd800 	push	{fp, ip, lr, pc}
    3404:	e24cb004 	sub	fp, ip, #4
    3408:	e24dd004 	sub	sp, sp, #4
    340c:	e50b0010 	str	r0, [fp, #-16]
  if (ch == '\n')
    3410:	e51b3010 	ldr	r3, [fp, #-16]
    3414:	e353000a 	cmp	r3, #10
    3418:	1a000001 	bne	3424 <__putchar+0x28>
    UART0WriteChar('\r');
    341c:	e3a0000d 	mov	r0, #13
    3420:	ebffff61 	bl	31ac <UART0WriteChar>
  UART0WriteChar(ch);
    3424:	e51b3010 	ldr	r3, [fp, #-16]
    3428:	e20330ff 	and	r3, r3, #255	; 0xff
    342c:	e1a00003 	mov	r0, r3
    3430:	ebffff5d 	bl	31ac <UART0WriteChar>
}
    3434:	e24bd00c 	sub	sp, fp, #12
    3438:	e89d6800 	ldm	sp, {fp, sp, lr}
    343c:	e12fff1e 	bx	lr

00003440 <UART1_send>:

void UART1_send(unsigned char *buffer, unsigned char length)
{
    3440:	e1a0c00d 	mov	ip, sp
    3444:	e92dd800 	push	{fp, ip, lr, pc}
    3448:	e24cb004 	sub	fp, ip, #4
    344c:	e24dd00c 	sub	sp, sp, #12
    3450:	e50b0014 	str	r0, [fp, #-20]
    3454:	e1a03001 	mov	r3, r1
    3458:	e54b3018 	strb	r3, [fp, #-24]
  unsigned char cnt=0;
    345c:	e3a03000 	mov	r3, #0
    3460:	e54b300d 	strb	r3, [fp, #-13]
  while(length--)
    3464:	ea000011 	b	34b0 <UART1_send+0x70>
  {
    while (!(U1LSR & 0x20)); //wait until U1THR is empty
    3468:	e3a0320e 	mov	r3, #-536870912	; 0xe0000000
    346c:	e2833801 	add	r3, r3, #65536	; 0x10000
    3470:	e2833014 	add	r3, r3, #20
    3474:	e5933000 	ldr	r3, [r3]
    3478:	e2033020 	and	r3, r3, #32
    347c:	e3530000 	cmp	r3, #0
    3480:	0afffff8 	beq	3468 <UART1_send+0x28>
    U1THR = buffer[cnt++];
    3484:	e3a0220e 	mov	r2, #-536870912	; 0xe0000000
    3488:	e2822801 	add	r2, r2, #65536	; 0x10000
    348c:	e55b300d 	ldrb	r3, [fp, #-13]
    3490:	e1a01003 	mov	r1, r3
    3494:	e51b3014 	ldr	r3, [fp, #-20]
    3498:	e0813003 	add	r3, r1, r3
    349c:	e5d33000 	ldrb	r3, [r3]
    34a0:	e5823000 	str	r3, [r2]
    34a4:	e55b300d 	ldrb	r3, [fp, #-13]
    34a8:	e2833001 	add	r3, r3, #1
    34ac:	e54b300d 	strb	r3, [fp, #-13]
}

void UART1_send(unsigned char *buffer, unsigned char length)
{
  unsigned char cnt=0;
  while(length--)
    34b0:	e55b3018 	ldrb	r3, [fp, #-24]
    34b4:	e2433001 	sub	r3, r3, #1
    34b8:	e54b3018 	strb	r3, [fp, #-24]
    34bc:	e55b3018 	ldrb	r3, [fp, #-24]
    34c0:	e35300ff 	cmp	r3, #255	; 0xff
    34c4:	1affffe7 	bne	3468 <UART1_send+0x28>
  {
    while (!(U1LSR & 0x20)); //wait until U1THR is empty
    U1THR = buffer[cnt++];
  }
}
    34c8:	e24bd00c 	sub	sp, fp, #12
    34cc:	e89d6800 	ldm	sp, {fp, sp, lr}
    34d0:	e12fff1e 	bx	lr

000034d4 <crc_update>:

//example CRC16 function
unsigned short crc_update (unsigned short crc, unsigned char data)
     {
    34d4:	e1a0c00d 	mov	ip, sp
    34d8:	e92dd800 	push	{fp, ip, lr, pc}
    34dc:	e24cb004 	sub	fp, ip, #4
    34e0:	e24dd008 	sub	sp, sp, #8
    34e4:	e1a03000 	mov	r3, r0
    34e8:	e1a02001 	mov	r2, r1
    34ec:	e14b31b0 	strh	r3, [fp, #-16]
    34f0:	e1a03002 	mov	r3, r2
    34f4:	e54b3014 	strb	r3, [fp, #-20]
         data ^= (crc & 0xff);
    34f8:	e15b31b0 	ldrh	r3, [fp, #-16]
    34fc:	e20330ff 	and	r3, r3, #255	; 0xff
    3500:	e20330ff 	and	r3, r3, #255	; 0xff
    3504:	e55b2014 	ldrb	r2, [fp, #-20]
    3508:	e1a01003 	mov	r1, r3
    350c:	e1a03002 	mov	r3, r2
    3510:	e0213003 	eor	r3, r1, r3
    3514:	e20330ff 	and	r3, r3, #255	; 0xff
    3518:	e54b3014 	strb	r3, [fp, #-20]
         data ^= data << 4;
    351c:	e55b3014 	ldrb	r3, [fp, #-20]
    3520:	e1a03203 	lsl	r3, r3, #4
    3524:	e20330ff 	and	r3, r3, #255	; 0xff
    3528:	e55b2014 	ldrb	r2, [fp, #-20]
    352c:	e1a01003 	mov	r1, r3
    3530:	e1a03002 	mov	r3, r2
    3534:	e0213003 	eor	r3, r1, r3
    3538:	e20330ff 	and	r3, r3, #255	; 0xff
    353c:	e54b3014 	strb	r3, [fp, #-20]

         return ((((unsigned short )data << 8) | ((crc>>8)&0xff)) ^ (unsigned char )(data >> 4)
    3540:	e55b3014 	ldrb	r3, [fp, #-20]
    3544:	e1a03403 	lsl	r3, r3, #8
    3548:	e1a03803 	lsl	r3, r3, #16
    354c:	e1a02823 	lsr	r2, r3, #16
    3550:	e15b31b0 	ldrh	r3, [fp, #-16]
    3554:	e1a03423 	lsr	r3, r3, #8
    3558:	e1a03803 	lsl	r3, r3, #16
    355c:	e1a03823 	lsr	r3, r3, #16
    3560:	e1a03803 	lsl	r3, r3, #16
    3564:	e1a03823 	lsr	r3, r3, #16
    3568:	e20330ff 	and	r3, r3, #255	; 0xff
    356c:	e1823003 	orr	r3, r2, r3
    3570:	e1a03803 	lsl	r3, r3, #16
    3574:	e1a02823 	lsr	r2, r3, #16
    3578:	e55b3014 	ldrb	r3, [fp, #-20]
    357c:	e1a03223 	lsr	r3, r3, #4
    3580:	e20330ff 	and	r3, r3, #255	; 0xff
    3584:	e0223003 	eor	r3, r2, r3
    3588:	e1a03803 	lsl	r3, r3, #16
    358c:	e1a02823 	lsr	r2, r3, #16
    3590:	e55b3014 	ldrb	r3, [fp, #-20]
    3594:	e1a03183 	lsl	r3, r3, #3
    3598:	e1a03803 	lsl	r3, r3, #16
    359c:	e1a03823 	lsr	r3, r3, #16
    35a0:	e0223003 	eor	r3, r2, r3
    35a4:	e1a03803 	lsl	r3, r3, #16
    35a8:	e1a03823 	lsr	r3, r3, #16
    35ac:	e1a03803 	lsl	r3, r3, #16
    35b0:	e1a03823 	lsr	r3, r3, #16
                 ^ ((unsigned short )data << 3));
     }
    35b4:	e1a00003 	mov	r0, r3
    35b8:	e24bd00c 	sub	sp, fp, #12
    35bc:	e89d6800 	ldm	sp, {fp, sp, lr}
    35c0:	e12fff1e 	bx	lr

000035c4 <crc16>:

 unsigned short crc16(void* data, unsigned short cnt)
 {
    35c4:	e1a0c00d 	mov	ip, sp
    35c8:	e92dd800 	push	{fp, ip, lr, pc}
    35cc:	e24cb004 	sub	fp, ip, #4
    35d0:	e24dd014 	sub	sp, sp, #20
    35d4:	e50b001c 	str	r0, [fp, #-28]
    35d8:	e1a03001 	mov	r3, r1
    35dc:	e14b32b0 	strh	r3, [fp, #-32]	; 0xffffffe0
   unsigned short crc=0xff;
    35e0:	e3a030ff 	mov	r3, #255	; 0xff
    35e4:	e14b31b6 	strh	r3, [fp, #-22]	; 0xffffffea
   unsigned char * ptr=(unsigned char *) data;
    35e8:	e51b301c 	ldr	r3, [fp, #-28]
    35ec:	e50b3014 	str	r3, [fp, #-20]
   int i;

   for (i=0;i<cnt;i++)
    35f0:	e3a03000 	mov	r3, #0
    35f4:	e50b3010 	str	r3, [fp, #-16]
    35f8:	ea00000d 	b	3634 <crc16+0x70>
     {
       crc=crc_update(crc,*ptr);
    35fc:	e15b21b6 	ldrh	r2, [fp, #-22]	; 0xffffffea
    3600:	e51b3014 	ldr	r3, [fp, #-20]
    3604:	e5d33000 	ldrb	r3, [r3]
    3608:	e1a00002 	mov	r0, r2
    360c:	e1a01003 	mov	r1, r3
    3610:	ebffffaf 	bl	34d4 <crc_update>
    3614:	e1a03000 	mov	r3, r0
    3618:	e14b31b6 	strh	r3, [fp, #-22]	; 0xffffffea
       ptr++;
    361c:	e51b3014 	ldr	r3, [fp, #-20]
    3620:	e2833001 	add	r3, r3, #1
    3624:	e50b3014 	str	r3, [fp, #-20]
 {
   unsigned short crc=0xff;
   unsigned char * ptr=(unsigned char *) data;
   int i;

   for (i=0;i<cnt;i++)
    3628:	e51b3010 	ldr	r3, [fp, #-16]
    362c:	e2833001 	add	r3, r3, #1
    3630:	e50b3010 	str	r3, [fp, #-16]
    3634:	e15b22b0 	ldrh	r2, [fp, #-32]	; 0xffffffe0
    3638:	e51b3010 	ldr	r3, [fp, #-16]
    363c:	e1520003 	cmp	r2, r3
    3640:	caffffed 	bgt	35fc <crc16+0x38>
     {
       crc=crc_update(crc,*ptr);
       ptr++;
     }
   return crc;
    3644:	e15b31b6 	ldrh	r3, [fp, #-22]	; 0xffffffea
 }
    3648:	e1a00003 	mov	r0, r3
    364c:	e24bd00c 	sub	sp, fp, #12
    3650:	e89d6800 	ldm	sp, {fp, sp, lr}
    3654:	e12fff1e 	bx	lr

00003658 <_read_r>:
#include <sys/stat.h>
#include "uart.h"

// new code for _read_r provided by Alexey Shusharin - Thanks
_ssize_t _read_r(struct _reent *r, int file, void *ptr, size_t len)
{
    3658:	e1a0c00d 	mov	ip, sp
    365c:	e92dd800 	push	{fp, ip, lr, pc}
    3660:	e24cb004 	sub	fp, ip, #4
    3664:	e24dd020 	sub	sp, sp, #32
    3668:	e50b001c 	str	r0, [fp, #-28]
    366c:	e50b1020 	str	r1, [fp, #-32]
    3670:	e50b2024 	str	r2, [fp, #-36]	; 0x24
    3674:	e50b3028 	str	r3, [fp, #-40]	; 0x28
  char c;
  int  i;
  unsigned char *p;

  p = (unsigned char*)ptr;
    3678:	e51b3024 	ldr	r3, [fp, #-36]	; 0x24
    367c:	e50b3010 	str	r3, [fp, #-16]

  for (i = 0; i < len; i++)
    3680:	e3a03000 	mov	r3, #0
    3684:	e50b3014 	str	r3, [fp, #-20]
    3688:	ea000017 	b	36ec <_read_r+0x94>
  {
  //  c = UART0ReadChar();  -- PFG

    *p++ = c;
    368c:	e51b2010 	ldr	r2, [fp, #-16]
    3690:	e55b3015 	ldrb	r3, [fp, #-21]
    3694:	e5c23000 	strb	r3, [r2]
    3698:	e51b3010 	ldr	r3, [fp, #-16]
    369c:	e2833001 	add	r3, r3, #1
    36a0:	e50b3010 	str	r3, [fp, #-16]
    //UART0WriteChar(c);  -- PFG

    if (c == 0x0D && i <= (len - 2))
    36a4:	e55b3015 	ldrb	r3, [fp, #-21]
    36a8:	e353000d 	cmp	r3, #13
    36ac:	1a00000b 	bne	36e0 <_read_r+0x88>
    36b0:	e51b3014 	ldr	r3, [fp, #-20]
    36b4:	e51b2028 	ldr	r2, [fp, #-40]	; 0x28
    36b8:	e2422002 	sub	r2, r2, #2
    36bc:	e1530002 	cmp	r3, r2
    36c0:	8a000006 	bhi	36e0 <_read_r+0x88>
    {
      *p = 0x0A;
    36c4:	e51b2010 	ldr	r2, [fp, #-16]
    36c8:	e3a0300a 	mov	r3, #10
    36cc:	e5c23000 	strb	r3, [r2]
      //UART0WriteChar(0x0A); -- PFG
      return i + 2;
    36d0:	e51b3014 	ldr	r3, [fp, #-20]
    36d4:	e2833002 	add	r3, r3, #2
    36d8:	e50b302c 	str	r3, [fp, #-44]	; 0x2c
    36dc:	ea000008 	b	3704 <_read_r+0xac>
  int  i;
  unsigned char *p;

  p = (unsigned char*)ptr;

  for (i = 0; i < len; i++)
    36e0:	e51b3014 	ldr	r3, [fp, #-20]
    36e4:	e2833001 	add	r3, r3, #1
    36e8:	e50b3014 	str	r3, [fp, #-20]
    36ec:	e51b2014 	ldr	r2, [fp, #-20]
    36f0:	e51b3028 	ldr	r3, [fp, #-40]	; 0x28
    36f4:	e1520003 	cmp	r2, r3
    36f8:	3affffe3 	bcc	368c <_read_r+0x34>
      *p = 0x0A;
      //UART0WriteChar(0x0A); -- PFG
      return i + 2;
    }
  }
  return i;
    36fc:	e51b3014 	ldr	r3, [fp, #-20]
    3700:	e50b302c 	str	r3, [fp, #-44]	; 0x2c
    3704:	e51b302c 	ldr	r3, [fp, #-44]	; 0x2c
}
    3708:	e1a00003 	mov	r0, r3
    370c:	e24bd00c 	sub	sp, fp, #12
    3710:	e89d6800 	ldm	sp, {fp, sp, lr}
    3714:	e12fff1e 	bx	lr

00003718 <_write_r>:
_ssize_t _write_r (
    struct _reent *r, 
    int file, 
    const void *ptr, 
    size_t len)
{
    3718:	e1a0c00d 	mov	ip, sp
    371c:	e92dd800 	push	{fp, ip, lr, pc}
    3720:	e24cb004 	sub	fp, ip, #4
    3724:	e24dd018 	sub	sp, sp, #24
    3728:	e50b0018 	str	r0, [fp, #-24]
    372c:	e50b101c 	str	r1, [fp, #-28]
    3730:	e50b2020 	str	r2, [fp, #-32]
    3734:	e50b3024 	str	r3, [fp, #-36]	; 0x24
	int i;
	const unsigned char *p;
	
	p = (const unsigned char*) ptr;
    3738:	e51b3020 	ldr	r3, [fp, #-32]
    373c:	e50b3010 	str	r3, [fp, #-16]
	
	for (i = 0; i < len; i++) {
    3740:	e3a03000 	mov	r3, #0
    3744:	e50b3014 	str	r3, [fp, #-20]
    3748:	ea000010 	b	3790 <_write_r+0x78>
		if (*p == '\n' ) UART0WriteChar('\r');
    374c:	e51b3010 	ldr	r3, [fp, #-16]
    3750:	e5d33000 	ldrb	r3, [r3]
    3754:	e353000a 	cmp	r3, #10
    3758:	1a000001 	bne	3764 <_write_r+0x4c>
    375c:	e3a0000d 	mov	r0, #13
    3760:	ebfffe91 	bl	31ac <UART0WriteChar>
		UART0WriteChar(*p++);
    3764:	e51b3010 	ldr	r3, [fp, #-16]
    3768:	e5d33000 	ldrb	r3, [r3]
    376c:	e1a02003 	mov	r2, r3
    3770:	e51b3010 	ldr	r3, [fp, #-16]
    3774:	e2833001 	add	r3, r3, #1
    3778:	e50b3010 	str	r3, [fp, #-16]
    377c:	e1a00002 	mov	r0, r2
    3780:	ebfffe89 	bl	31ac <UART0WriteChar>
	int i;
	const unsigned char *p;
	
	p = (const unsigned char*) ptr;
	
	for (i = 0; i < len; i++) {
    3784:	e51b3014 	ldr	r3, [fp, #-20]
    3788:	e2833001 	add	r3, r3, #1
    378c:	e50b3014 	str	r3, [fp, #-20]
    3790:	e51b2014 	ldr	r2, [fp, #-20]
    3794:	e51b3024 	ldr	r3, [fp, #-36]	; 0x24
    3798:	e1520003 	cmp	r2, r3
    379c:	3affffea 	bcc	374c <_write_r+0x34>
		if (*p == '\n' ) UART0WriteChar('\r');
		UART0WriteChar(*p++);
	}
	
	return len;
    37a0:	e51b3024 	ldr	r3, [fp, #-36]	; 0x24
}
    37a4:	e1a00003 	mov	r0, r3
    37a8:	e24bd00c 	sub	sp, fp, #12
    37ac:	e89d6800 	ldm	sp, {fp, sp, lr}
    37b0:	e12fff1e 	bx	lr

000037b4 <_close_r>:

int _close_r(
    struct _reent *r, 
    int file)
{
    37b4:	e1a0c00d 	mov	ip, sp
    37b8:	e92dd800 	push	{fp, ip, lr, pc}
    37bc:	e24cb004 	sub	fp, ip, #4
    37c0:	e24dd008 	sub	sp, sp, #8
    37c4:	e50b0010 	str	r0, [fp, #-16]
    37c8:	e50b1014 	str	r1, [fp, #-20]
	return 0;
    37cc:	e3a03000 	mov	r3, #0
}
    37d0:	e1a00003 	mov	r0, r3
    37d4:	e24bd00c 	sub	sp, fp, #12
    37d8:	e89d6800 	ldm	sp, {fp, sp, lr}
    37dc:	e12fff1e 	bx	lr

000037e0 <_lseek_r>:
_off_t _lseek_r(
    struct _reent *r, 
    int file, 
    _off_t ptr, 
    int dir)
{
    37e0:	e1a0c00d 	mov	ip, sp
    37e4:	e92dd800 	push	{fp, ip, lr, pc}
    37e8:	e24cb004 	sub	fp, ip, #4
    37ec:	e24dd010 	sub	sp, sp, #16
    37f0:	e50b0010 	str	r0, [fp, #-16]
    37f4:	e50b1014 	str	r1, [fp, #-20]
    37f8:	e50b2018 	str	r2, [fp, #-24]
    37fc:	e50b301c 	str	r3, [fp, #-28]
	return (_off_t)0;	/*  Always indicate we are at file beginning.	*/
    3800:	e3a03000 	mov	r3, #0
}
    3804:	e1a00003 	mov	r0, r3
    3808:	e24bd00c 	sub	sp, fp, #12
    380c:	e89d6800 	ldm	sp, {fp, sp, lr}
    3810:	e12fff1e 	bx	lr

00003814 <_fstat_r>:

int _fstat_r(
    struct _reent *r, 
    int file, 
    struct stat *st)
{
    3814:	e1a0c00d 	mov	ip, sp
    3818:	e92dd800 	push	{fp, ip, lr, pc}
    381c:	e24cb004 	sub	fp, ip, #4
    3820:	e24dd00c 	sub	sp, sp, #12
    3824:	e50b0010 	str	r0, [fp, #-16]
    3828:	e50b1014 	str	r1, [fp, #-20]
    382c:	e50b2018 	str	r2, [fp, #-24]
	/*  Always set as character device.				*/
	st->st_mode = S_IFCHR;	
    3830:	e51b2018 	ldr	r2, [fp, #-24]
    3834:	e3a03a02 	mov	r3, #8192	; 0x2000
    3838:	e5823004 	str	r3, [r2, #4]
		/* assigned to strong type with implicit 	*/
		/* signed/unsigned conversion.  Required by 	*/
		/* newlib.					*/

	return 0;
    383c:	e3a03000 	mov	r3, #0
}
    3840:	e1a00003 	mov	r0, r3
    3844:	e24bd00c 	sub	sp, fp, #12
    3848:	e89d6800 	ldm	sp, {fp, sp, lr}
    384c:	e12fff1e 	bx	lr

00003850 <isatty>:

int isatty(int file); /* avoid warning */

int isatty(int file)
{
    3850:	e1a0c00d 	mov	ip, sp
    3854:	e92dd800 	push	{fp, ip, lr, pc}
    3858:	e24cb004 	sub	fp, ip, #4
    385c:	e24dd004 	sub	sp, sp, #4
    3860:	e50b0010 	str	r0, [fp, #-16]
	return 1;
    3864:	e3a03001 	mov	r3, #1
}
    3868:	e1a00003 	mov	r0, r3
    386c:	e24bd00c 	sub	sp, fp, #12
    3870:	e89d6800 	ldm	sp, {fp, sp, lr}
    3874:	e12fff1e 	bx	lr

00003878 <_sbrk_r>:
/* messages must be suppressed.						*/

void * _sbrk_r(
    struct _reent *_s_r, 
    ptrdiff_t nbytes)
{
    3878:	e1a0c00d 	mov	ip, sp
    387c:	e92dd800 	push	{fp, ip, lr, pc}
    3880:	e24cb004 	sub	fp, ip, #4
    3884:	e24dd00c 	sub	sp, sp, #12
    3888:	e50b0014 	str	r0, [fp, #-20]
    388c:	e50b1018 	str	r1, [fp, #-24]
	char  *base;		/*  errno should be set to  ENOMEM on error	*/

	if (!heap_ptr) {	/*  Initialize if first time through.		*/
    3890:	e59f304c 	ldr	r3, [pc, #76]	; 38e4 <_sbrk_r+0x6c>
    3894:	e5933000 	ldr	r3, [r3]
    3898:	e3530000 	cmp	r3, #0
    389c:	1a000002 	bne	38ac <_sbrk_r+0x34>
		heap_ptr = _end;
    38a0:	e59f203c 	ldr	r2, [pc, #60]	; 38e4 <_sbrk_r+0x6c>
    38a4:	e59f303c 	ldr	r3, [pc, #60]	; 38e8 <_sbrk_r+0x70>
    38a8:	e5823000 	str	r3, [r2]
	}
	base = heap_ptr;	/*  Point to end of heap.			*/
    38ac:	e59f3030 	ldr	r3, [pc, #48]	; 38e4 <_sbrk_r+0x6c>
    38b0:	e5933000 	ldr	r3, [r3]
    38b4:	e50b3010 	str	r3, [fp, #-16]
	heap_ptr += nbytes;	/*  Increase heap.				*/
    38b8:	e59f3024 	ldr	r3, [pc, #36]	; 38e4 <_sbrk_r+0x6c>
    38bc:	e5932000 	ldr	r2, [r3]
    38c0:	e51b3018 	ldr	r3, [fp, #-24]
    38c4:	e0822003 	add	r2, r2, r3
    38c8:	e59f3014 	ldr	r3, [pc, #20]	; 38e4 <_sbrk_r+0x6c>
    38cc:	e5832000 	str	r2, [r3]
	
	return base;		/*  Return pointer to start of new heap area.	*/
    38d0:	e51b3010 	ldr	r3, [fp, #-16]
}
    38d4:	e1a00003 	mov	r0, r3
    38d8:	e24bd00c 	sub	sp, fp, #12
    38dc:	e89d6800 	ldm	sp, {fp, sp, lr}
    38e0:	e12fff1e 	bx	lr
    38e4:	400009fc 	.word	0x400009fc
    38e8:	40003880 	.word	0x40003880

000038ec <I2C0MasterHandler>:
** parameters:			None
** Returned value:		None
** 
*****************************************************************************/
void I2C0MasterHandler (void) __irq 
{
    38ec:	e1a0c00d 	mov	ip, sp
    38f0:	e92dd800 	push	{fp, ip, lr, pc}
    38f4:	e24cb004 	sub	fp, ip, #4
    38f8:	e24dd004 	sub	sp, sp, #4
    BYTE StatValue;

    /* this handler deals with master read and master write only */
    StatValue = I20STAT;
    38fc:	e3a0324e 	mov	r3, #-536870908	; 0xe0000004
    3900:	e2833907 	add	r3, r3, #114688	; 0x1c000
    3904:	e5933000 	ldr	r3, [r3]
    3908:	e54b300d 	strb	r3, [fp, #-13]
    
    IENABLE;   
    switch ( StatValue )
    390c:	e55b300d 	ldrb	r3, [fp, #-13]
    3910:	e2433008 	sub	r3, r3, #8
    3914:	e3530050 	cmp	r3, #80	; 0x50
    3918:	979ff103 	ldrls	pc, [pc, r3, lsl #2]
    391c:	ea000106 	b	3d3c <I2C0MasterHandler+0x450>
    3920:	00003a64 	.word	0x00003a64
    3924:	00003d3c 	.word	0x00003d3c
    3928:	00003d3c 	.word	0x00003d3c
    392c:	00003d3c 	.word	0x00003d3c
    3930:	00003d3c 	.word	0x00003d3c
    3934:	00003d3c 	.word	0x00003d3c
    3938:	00003d3c 	.word	0x00003d3c
    393c:	00003d3c 	.word	0x00003d3c
    3940:	00003a9c 	.word	0x00003a9c
    3944:	00003d3c 	.word	0x00003d3c
    3948:	00003d3c 	.word	0x00003d3c
    394c:	00003d3c 	.word	0x00003d3c
    3950:	00003d3c 	.word	0x00003d3c
    3954:	00003d3c 	.word	0x00003d3c
    3958:	00003d3c 	.word	0x00003d3c
    395c:	00003d3c 	.word	0x00003d3c
    3960:	00003af4 	.word	0x00003af4
    3964:	00003d3c 	.word	0x00003d3c
    3968:	00003d3c 	.word	0x00003d3c
    396c:	00003d3c 	.word	0x00003d3c
    3970:	00003d3c 	.word	0x00003d3c
    3974:	00003d3c 	.word	0x00003d3c
    3978:	00003d3c 	.word	0x00003d3c
    397c:	00003d3c 	.word	0x00003d3c
    3980:	00003d18 	.word	0x00003d18
    3984:	00003d3c 	.word	0x00003d3c
    3988:	00003d3c 	.word	0x00003d3c
    398c:	00003d3c 	.word	0x00003d3c
    3990:	00003d3c 	.word	0x00003d3c
    3994:	00003d3c 	.word	0x00003d3c
    3998:	00003d3c 	.word	0x00003d3c
    399c:	00003d3c 	.word	0x00003d3c
    39a0:	00003b5c 	.word	0x00003b5c
    39a4:	00003d3c 	.word	0x00003d3c
    39a8:	00003d3c 	.word	0x00003d3c
    39ac:	00003d3c 	.word	0x00003d3c
    39b0:	00003d3c 	.word	0x00003d3c
    39b4:	00003d3c 	.word	0x00003d3c
    39b8:	00003d3c 	.word	0x00003d3c
    39bc:	00003d3c 	.word	0x00003d3c
    39c0:	00003b5c 	.word	0x00003b5c
    39c4:	00003d3c 	.word	0x00003d3c
    39c8:	00003d3c 	.word	0x00003d3c
    39cc:	00003d3c 	.word	0x00003d3c
    39d0:	00003d3c 	.word	0x00003d3c
    39d4:	00003d3c 	.word	0x00003d3c
    39d8:	00003d3c 	.word	0x00003d3c
    39dc:	00003d3c 	.word	0x00003d3c
    39e0:	00003d3c 	.word	0x00003d3c
    39e4:	00003d3c 	.word	0x00003d3c
    39e8:	00003d3c 	.word	0x00003d3c
    39ec:	00003d3c 	.word	0x00003d3c
    39f0:	00003d3c 	.word	0x00003d3c
    39f4:	00003d3c 	.word	0x00003d3c
    39f8:	00003d3c 	.word	0x00003d3c
    39fc:	00003d3c 	.word	0x00003d3c
    3a00:	00003c60 	.word	0x00003c60
    3a04:	00003d3c 	.word	0x00003d3c
    3a08:	00003d3c 	.word	0x00003d3c
    3a0c:	00003d3c 	.word	0x00003d3c
    3a10:	00003d3c 	.word	0x00003d3c
    3a14:	00003d3c 	.word	0x00003d3c
    3a18:	00003d3c 	.word	0x00003d3c
    3a1c:	00003d3c 	.word	0x00003d3c
    3a20:	00003d18 	.word	0x00003d18
    3a24:	00003d3c 	.word	0x00003d3c
    3a28:	00003d3c 	.word	0x00003d3c
    3a2c:	00003d3c 	.word	0x00003d3c
    3a30:	00003d3c 	.word	0x00003d3c
    3a34:	00003d3c 	.word	0x00003d3c
    3a38:	00003d3c 	.word	0x00003d3c
    3a3c:	00003d3c 	.word	0x00003d3c
    3a40:	00003c78 	.word	0x00003c78
    3a44:	00003d3c 	.word	0x00003d3c
    3a48:	00003d3c 	.word	0x00003d3c
    3a4c:	00003d3c 	.word	0x00003d3c
    3a50:	00003d3c 	.word	0x00003d3c
    3a54:	00003d3c 	.word	0x00003d3c
    3a58:	00003d3c 	.word	0x00003d3c
    3a5c:	00003d3c 	.word	0x00003d3c
    3a60:	00003c78 	.word	0x00003c78
    {
	case 0x08:			/* A Start condition is issued. */
	I20DAT = I2CMasterBuffer[0];
    3a64:	e3a0228e 	mov	r2, #-536870904	; 0xe0000008
    3a68:	e2822907 	add	r2, r2, #114688	; 0x1c000
    3a6c:	e59f32f8 	ldr	r3, [pc, #760]	; 3d6c <I2C0MasterHandler+0x480>
    3a70:	e5d33000 	ldrb	r3, [r3]
    3a74:	e5823000 	str	r3, [r2]
	I20CONCLR = (I2CONCLR_SIC | I2CONCLR_STAC);
    3a78:	e3a0320e 	mov	r3, #-536870912	; 0xe0000000
    3a7c:	e2833907 	add	r3, r3, #114688	; 0x1c000
    3a80:	e2833018 	add	r3, r3, #24
    3a84:	e3a02028 	mov	r2, #40	; 0x28
    3a88:	e5832000 	str	r2, [r3]
	I2CMasterState = I2C_STARTED;
    3a8c:	e59f22dc 	ldr	r2, [pc, #732]	; 3d70 <I2C0MasterHandler+0x484>
    3a90:	e3a03001 	mov	r3, #1
    3a94:	e5823000 	str	r3, [r2]
	break;
    3a98:	ea0000ac 	b	3d50 <I2C0MasterHandler+0x464>
	
	case 0x10:			/* A repeated started is issued */
	if (  I2CCmd == GET_DEVICE_ID || I2CCmd == GET_TEMPERATURE )
    3a9c:	e59f32d0 	ldr	r3, [pc, #720]	; 3d74 <I2C0MasterHandler+0x488>
    3aa0:	e5933000 	ldr	r3, [r3]
    3aa4:	e3530001 	cmp	r3, #1
    3aa8:	0a000003 	beq	3abc <I2C0MasterHandler+0x1d0>
    3aac:	e59f32c0 	ldr	r3, [pc, #704]	; 3d74 <I2C0MasterHandler+0x488>
    3ab0:	e5933000 	ldr	r3, [r3]
    3ab4:	e3530002 	cmp	r3, #2
    3ab8:	1a000004 	bne	3ad0 <I2C0MasterHandler+0x1e4>
	{
	    I20DAT = I2CMasterBuffer[2];
    3abc:	e3a0228e 	mov	r2, #-536870904	; 0xe0000008
    3ac0:	e2822907 	add	r2, r2, #114688	; 0x1c000
    3ac4:	e59f32a0 	ldr	r3, [pc, #672]	; 3d6c <I2C0MasterHandler+0x480>
    3ac8:	e5d33002 	ldrb	r3, [r3, #2]
    3acc:	e5823000 	str	r3, [r2]
	}
	I20CONCLR = (I2CONCLR_SIC | I2CONCLR_STAC);
    3ad0:	e3a0320e 	mov	r3, #-536870912	; 0xe0000000
    3ad4:	e2833907 	add	r3, r3, #114688	; 0x1c000
    3ad8:	e2833018 	add	r3, r3, #24
    3adc:	e3a02028 	mov	r2, #40	; 0x28
    3ae0:	e5832000 	str	r2, [r3]
	I2CMasterState = I2C_RESTARTED;
    3ae4:	e59f2284 	ldr	r2, [pc, #644]	; 3d70 <I2C0MasterHandler+0x484>
    3ae8:	e3a03002 	mov	r3, #2
    3aec:	e5823000 	str	r3, [r2]
	break;
    3af0:	ea000096 	b	3d50 <I2C0MasterHandler+0x464>
	
	case 0x18:			/* Regardless, it's a ACK */
	if ( I2CMasterState == I2C_STARTED )
    3af4:	e59f3274 	ldr	r3, [pc, #628]	; 3d70 <I2C0MasterHandler+0x484>
    3af8:	e5933000 	ldr	r3, [r3]
    3afc:	e3530001 	cmp	r3, #1
    3b00:	1a00000f 	bne	3b44 <I2C0MasterHandler+0x258>
	{
	    I20DAT = I2CMasterBuffer[1+WrIndex];
    3b04:	e3a0228e 	mov	r2, #-536870904	; 0xe0000008
    3b08:	e2822907 	add	r2, r2, #114688	; 0x1c000
    3b0c:	e59f3264 	ldr	r3, [pc, #612]	; 3d78 <I2C0MasterHandler+0x48c>
    3b10:	e5933000 	ldr	r3, [r3]
    3b14:	e2831001 	add	r1, r3, #1
    3b18:	e59f324c 	ldr	r3, [pc, #588]	; 3d6c <I2C0MasterHandler+0x480>
    3b1c:	e7d33001 	ldrb	r3, [r3, r1]
    3b20:	e5823000 	str	r3, [r2]
	    WrIndex++;
    3b24:	e59f324c 	ldr	r3, [pc, #588]	; 3d78 <I2C0MasterHandler+0x48c>
    3b28:	e5933000 	ldr	r3, [r3]
    3b2c:	e2832001 	add	r2, r3, #1
    3b30:	e59f3240 	ldr	r3, [pc, #576]	; 3d78 <I2C0MasterHandler+0x48c>
    3b34:	e5832000 	str	r2, [r3]
	    I2CMasterState = DATA_ACK;
    3b38:	e59f2230 	ldr	r2, [pc, #560]	; 3d70 <I2C0MasterHandler+0x484>
    3b3c:	e3a03004 	mov	r3, #4
    3b40:	e5823000 	str	r3, [r2]
	}
	I20CONCLR = I2CONCLR_SIC;
    3b44:	e3a0320e 	mov	r3, #-536870912	; 0xe0000000
    3b48:	e2833907 	add	r3, r3, #114688	; 0x1c000
    3b4c:	e2833018 	add	r3, r3, #24
    3b50:	e3a02008 	mov	r2, #8
    3b54:	e5832000 	str	r2, [r3]
	break;
    3b58:	ea00007c 	b	3d50 <I2C0MasterHandler+0x464>
	
	case 0x28:	/* Data byte has been transmitted, regardless ACK or NACK */
	case 0x30:
	if ( WrIndex != I2CWriteLength )
    3b5c:	e59f3214 	ldr	r3, [pc, #532]	; 3d78 <I2C0MasterHandler+0x48c>
    3b60:	e5932000 	ldr	r2, [r3]
    3b64:	e59f3210 	ldr	r3, [pc, #528]	; 3d7c <I2C0MasterHandler+0x490>
    3b68:	e5933000 	ldr	r3, [r3]
    3b6c:	e1520003 	cmp	r2, r3
    3b70:	0a000025 	beq	3c0c <I2C0MasterHandler+0x320>
	{   
	    I20DAT = I2CMasterBuffer[1+WrIndex]; /* this should be the last one */
    3b74:	e3a0228e 	mov	r2, #-536870904	; 0xe0000008
    3b78:	e2822907 	add	r2, r2, #114688	; 0x1c000
    3b7c:	e59f31f4 	ldr	r3, [pc, #500]	; 3d78 <I2C0MasterHandler+0x48c>
    3b80:	e5933000 	ldr	r3, [r3]
    3b84:	e2831001 	add	r1, r3, #1
    3b88:	e59f31dc 	ldr	r3, [pc, #476]	; 3d6c <I2C0MasterHandler+0x480>
    3b8c:	e7d33001 	ldrb	r3, [r3, r1]
    3b90:	e5823000 	str	r3, [r2]
	    WrIndex++;
    3b94:	e59f31dc 	ldr	r3, [pc, #476]	; 3d78 <I2C0MasterHandler+0x48c>
    3b98:	e5933000 	ldr	r3, [r3]
    3b9c:	e2832001 	add	r2, r3, #1
    3ba0:	e59f31d0 	ldr	r3, [pc, #464]	; 3d78 <I2C0MasterHandler+0x48c>
    3ba4:	e5832000 	str	r2, [r3]
	    if ( WrIndex != I2CWriteLength )
    3ba8:	e59f31c8 	ldr	r3, [pc, #456]	; 3d78 <I2C0MasterHandler+0x48c>
    3bac:	e5932000 	ldr	r2, [r3]
    3bb0:	e59f31c4 	ldr	r3, [pc, #452]	; 3d7c <I2C0MasterHandler+0x490>
    3bb4:	e5933000 	ldr	r3, [r3]
    3bb8:	e1520003 	cmp	r2, r3
    3bbc:	0a000003 	beq	3bd0 <I2C0MasterHandler+0x2e4>
	    {   
		I2CMasterState = DATA_ACK;
    3bc0:	e59f21a8 	ldr	r2, [pc, #424]	; 3d70 <I2C0MasterHandler+0x484>
    3bc4:	e3a03004 	mov	r3, #4
    3bc8:	e5823000 	str	r3, [r2]
    3bcc:	ea00001d 	b	3c48 <I2C0MasterHandler+0x35c>
	    }
	    else
	    {
		I2CMasterState = DATA_NACK;
    3bd0:	e59f2198 	ldr	r2, [pc, #408]	; 3d70 <I2C0MasterHandler+0x484>
    3bd4:	e3a03005 	mov	r3, #5
    3bd8:	e5823000 	str	r3, [r2]
		if ( I2CReadLength != 0 )
    3bdc:	e59f319c 	ldr	r3, [pc, #412]	; 3d80 <I2C0MasterHandler+0x494>
    3be0:	e5933000 	ldr	r3, [r3]
    3be4:	e3530000 	cmp	r3, #0
    3be8:	0a000016 	beq	3c48 <I2C0MasterHandler+0x35c>
		{
		    I20CONSET = I2CONSET_STA;	/* Set Repeated-start flag */
    3bec:	e3a0320e 	mov	r3, #-536870912	; 0xe0000000
    3bf0:	e2833907 	add	r3, r3, #114688	; 0x1c000
    3bf4:	e3a02020 	mov	r2, #32
    3bf8:	e5832000 	str	r2, [r3]
		    I2CMasterState = I2C_REPEATED_START;
    3bfc:	e59f216c 	ldr	r2, [pc, #364]	; 3d70 <I2C0MasterHandler+0x484>
    3c00:	e3a03003 	mov	r3, #3
    3c04:	e5823000 	str	r3, [r2]
    3c08:	ea00000e 	b	3c48 <I2C0MasterHandler+0x35c>
		}
	    }
	}
	else
	{
	    if ( I2CReadLength != 0 )
    3c0c:	e59f316c 	ldr	r3, [pc, #364]	; 3d80 <I2C0MasterHandler+0x494>
    3c10:	e5933000 	ldr	r3, [r3]
    3c14:	e3530000 	cmp	r3, #0
    3c18:	0a000007 	beq	3c3c <I2C0MasterHandler+0x350>
	    {
		I20CONSET = I2CONSET_STA;	/* Set Repeated-start flag */
    3c1c:	e3a0320e 	mov	r3, #-536870912	; 0xe0000000
    3c20:	e2833907 	add	r3, r3, #114688	; 0x1c000
    3c24:	e3a02020 	mov	r2, #32
    3c28:	e5832000 	str	r2, [r3]
		I2CMasterState = I2C_REPEATED_START;
    3c2c:	e59f213c 	ldr	r2, [pc, #316]	; 3d70 <I2C0MasterHandler+0x484>
    3c30:	e3a03003 	mov	r3, #3
    3c34:	e5823000 	str	r3, [r2]
    3c38:	ea000002 	b	3c48 <I2C0MasterHandler+0x35c>
	    }
	    else
	    {
		I2CMasterState = DATA_NACK;
    3c3c:	e59f212c 	ldr	r2, [pc, #300]	; 3d70 <I2C0MasterHandler+0x484>
    3c40:	e3a03005 	mov	r3, #5
    3c44:	e5823000 	str	r3, [r2]
	    }
	}
	I20CONCLR = I2CONCLR_SIC;
    3c48:	e3a0320e 	mov	r3, #-536870912	; 0xe0000000
    3c4c:	e2833907 	add	r3, r3, #114688	; 0x1c000
    3c50:	e2833018 	add	r3, r3, #24
    3c54:	e3a02008 	mov	r2, #8
    3c58:	e5832000 	str	r2, [r3]
	break;
    3c5c:	ea00003b 	b	3d50 <I2C0MasterHandler+0x464>
	
	case 0x40:	/* Master Receive, SLA_R has been sent */
	I20CONCLR = I2CONCLR_SIC;
    3c60:	e3a0320e 	mov	r3, #-536870912	; 0xe0000000
    3c64:	e2833907 	add	r3, r3, #114688	; 0x1c000
    3c68:	e2833018 	add	r3, r3, #24
    3c6c:	e3a02008 	mov	r2, #8
    3c70:	e5832000 	str	r2, [r3]
	break;
    3c74:	ea000035 	b	3d50 <I2C0MasterHandler+0x464>
	
	case 0x50:	/* Data byte has been received, regardless following ACK or NACK */
	case 0x58:
	I2CMasterBuffer[3+RdIndex] = I20DAT;
    3c78:	e59f3104 	ldr	r3, [pc, #260]	; 3d84 <I2C0MasterHandler+0x498>
    3c7c:	e5933000 	ldr	r3, [r3]
    3c80:	e2831003 	add	r1, r3, #3
    3c84:	e3a0328e 	mov	r3, #-536870904	; 0xe0000008
    3c88:	e2833907 	add	r3, r3, #114688	; 0x1c000
    3c8c:	e5933000 	ldr	r3, [r3]
    3c90:	e20330ff 	and	r3, r3, #255	; 0xff
    3c94:	e59f20d0 	ldr	r2, [pc, #208]	; 3d6c <I2C0MasterHandler+0x480>
    3c98:	e7c23001 	strb	r3, [r2, r1]
	RdIndex++;
    3c9c:	e59f30e0 	ldr	r3, [pc, #224]	; 3d84 <I2C0MasterHandler+0x498>
    3ca0:	e5933000 	ldr	r3, [r3]
    3ca4:	e2832001 	add	r2, r3, #1
    3ca8:	e59f30d4 	ldr	r3, [pc, #212]	; 3d84 <I2C0MasterHandler+0x498>
    3cac:	e5832000 	str	r2, [r3]
	if ( RdIndex != I2CReadLength )
    3cb0:	e59f30cc 	ldr	r3, [pc, #204]	; 3d84 <I2C0MasterHandler+0x498>
    3cb4:	e5932000 	ldr	r2, [r3]
    3cb8:	e59f30c0 	ldr	r3, [pc, #192]	; 3d80 <I2C0MasterHandler+0x494>
    3cbc:	e5933000 	ldr	r3, [r3]
    3cc0:	e1520003 	cmp	r2, r3
    3cc4:	0a000003 	beq	3cd8 <I2C0MasterHandler+0x3ec>
	{   
	    I2CMasterState = DATA_ACK;
    3cc8:	e59f20a0 	ldr	r2, [pc, #160]	; 3d70 <I2C0MasterHandler+0x484>
    3ccc:	e3a03004 	mov	r3, #4
    3cd0:	e5823000 	str	r3, [r2]
    3cd4:	ea000005 	b	3cf0 <I2C0MasterHandler+0x404>
	}
	else
	{
	    RdIndex = 0;
    3cd8:	e59f20a4 	ldr	r2, [pc, #164]	; 3d84 <I2C0MasterHandler+0x498>
    3cdc:	e3a03000 	mov	r3, #0
    3ce0:	e5823000 	str	r3, [r2]
	    I2CMasterState = DATA_NACK;
    3ce4:	e59f2084 	ldr	r2, [pc, #132]	; 3d70 <I2C0MasterHandler+0x484>
    3ce8:	e3a03005 	mov	r3, #5
    3cec:	e5823000 	str	r3, [r2]
	}
	I20CONSET = I2CONSET_AA;	/* assert ACK after data is received */
    3cf0:	e3a0320e 	mov	r3, #-536870912	; 0xe0000000
    3cf4:	e2833907 	add	r3, r3, #114688	; 0x1c000
    3cf8:	e3a02004 	mov	r2, #4
    3cfc:	e5832000 	str	r2, [r3]
	I20CONCLR = I2CONCLR_SIC;
    3d00:	e3a0320e 	mov	r3, #-536870912	; 0xe0000000
    3d04:	e2833907 	add	r3, r3, #114688	; 0x1c000
    3d08:	e2833018 	add	r3, r3, #24
    3d0c:	e3a02008 	mov	r2, #8
    3d10:	e5832000 	str	r2, [r3]
	break;
    3d14:	ea00000d 	b	3d50 <I2C0MasterHandler+0x464>
	
	case 0x20:			/* regardless, it's a NACK */
	case 0x48:
	I20CONCLR = I2CONCLR_SIC;
    3d18:	e3a0320e 	mov	r3, #-536870912	; 0xe0000000
    3d1c:	e2833907 	add	r3, r3, #114688	; 0x1c000
    3d20:	e2833018 	add	r3, r3, #24
    3d24:	e3a02008 	mov	r2, #8
    3d28:	e5832000 	str	r2, [r3]
	I2CMasterState = DATA_NACK;
    3d2c:	e59f203c 	ldr	r2, [pc, #60]	; 3d70 <I2C0MasterHandler+0x484>
    3d30:	e3a03005 	mov	r3, #5
    3d34:	e5823000 	str	r3, [r2]
	break;
    3d38:	ea000004 	b	3d50 <I2C0MasterHandler+0x464>
	
	case 0x38:			/* Arbitration lost, in this example, we don't
					deal with multiple master situation */
	default:
	I20CONCLR = I2CONCLR_SIC;	
    3d3c:	e3a0320e 	mov	r3, #-536870912	; 0xe0000000
    3d40:	e2833907 	add	r3, r3, #114688	; 0x1c000
    3d44:	e2833018 	add	r3, r3, #24
    3d48:	e3a02008 	mov	r2, #8
    3d4c:	e5832000 	str	r2, [r3]
	break;
    }
    
    IDISABLE;
    VICVectAddr = 0;		/* Acknowledge Interrupt */
    3d50:	e3a03000 	mov	r3, #0
    3d54:	e2433efd 	sub	r3, r3, #4048	; 0xfd0
    3d58:	e3a02000 	mov	r2, #0
    3d5c:	e5832000 	str	r2, [r3]

}
    3d60:	e24bd00c 	sub	sp, fp, #12
    3d64:	e89d6800 	ldm	sp, {fp, sp, lr}
    3d68:	e12fff1e 	bx	lr
    3d6c:	40001bb0 	.word	0x40001bb0
    3d70:	40000a00 	.word	0x40000a00
    3d74:	40001bd0 	.word	0x40001bd0
    3d78:	40000a10 	.word	0x40000a10
    3d7c:	40001bd4 	.word	0x40001bd4
    3d80:	40001b88 	.word	0x40001b88
    3d84:	40000a0c 	.word	0x40000a0c

00003d88 <I2C0_send_motordata>:


void I2C0_send_motordata(void)
{
    3d88:	e1a0c00d 	mov	ip, sp
    3d8c:	e92dd800 	push	{fp, ip, lr, pc}
    3d90:	e24cb004 	sub	fp, ip, #4
	WrIndex=0;
    3d94:	e59f2080 	ldr	r2, [pc, #128]	; 3e1c <I2C0_send_motordata+0x94>
    3d98:	e3a03000 	mov	r3, #0
    3d9c:	e5823000 	str	r3, [r2]
	RdIndex=0;
    3da0:	e59f2078 	ldr	r2, [pc, #120]	; 3e20 <I2C0_send_motordata+0x98>
    3da4:	e3a03000 	mov	r3, #0
    3da8:	e5823000 	str	r3, [r2]
	I2CWriteLength = 5;
    3dac:	e59f2070 	ldr	r2, [pc, #112]	; 3e24 <I2C0_send_motordata+0x9c>
    3db0:	e3a03005 	mov	r3, #5
    3db4:	e5823000 	str	r3, [r2]
	I2CReadLength = 0;
    3db8:	e59f2068 	ldr	r2, [pc, #104]	; 3e28 <I2C0_send_motordata+0xa0>
    3dbc:	e3a03000 	mov	r3, #0
    3dc0:	e5823000 	str	r3, [r2]
    I2CMasterBuffer[0] = 0x02;
    3dc4:	e59f2060 	ldr	r2, [pc, #96]	; 3e2c <I2C0_send_motordata+0xa4>
    3dc8:	e3a03002 	mov	r3, #2
    3dcc:	e5c23000 	strb	r3, [r2]
    I2CMasterBuffer[1] = 100;
    3dd0:	e59f2054 	ldr	r2, [pc, #84]	; 3e2c <I2C0_send_motordata+0xa4>
    3dd4:	e3a03064 	mov	r3, #100	; 0x64
    3dd8:	e5c23001 	strb	r3, [r2, #1]
    I2CMasterBuffer[2] = 100;
    3ddc:	e59f2048 	ldr	r2, [pc, #72]	; 3e2c <I2C0_send_motordata+0xa4>
    3de0:	e3a03064 	mov	r3, #100	; 0x64
    3de4:	e5c23002 	strb	r3, [r2, #2]
    I2CMasterBuffer[3] = 100;
    3de8:	e59f203c 	ldr	r2, [pc, #60]	; 3e2c <I2C0_send_motordata+0xa4>
    3dec:	e3a03064 	mov	r3, #100	; 0x64
    3df0:	e5c23003 	strb	r3, [r2, #3]
    I2CMasterBuffer[4] = 1;
    3df4:	e59f2030 	ldr	r2, [pc, #48]	; 3e2c <I2C0_send_motordata+0xa4>
    3df8:	e3a03001 	mov	r3, #1
    3dfc:	e5c23004 	strb	r3, [r2, #4]

    //I20CONSET = I2CONSET_STA;	/* Set Start flag */
    //if ( !I2CStart() ) I2CStop();
    I2CCmd = GET_TEMPERATURE;
    3e00:	e59f2028 	ldr	r2, [pc, #40]	; 3e30 <I2C0_send_motordata+0xa8>
    3e04:	e3a03002 	mov	r3, #2
    3e08:	e5823000 	str	r3, [r2]
	I2CEngine();
    3e0c:	eb000066 	bl	3fac <I2CEngine>
}
    3e10:	e24bd00c 	sub	sp, fp, #12
    3e14:	e89d6800 	ldm	sp, {fp, sp, lr}
    3e18:	e12fff1e 	bx	lr
    3e1c:	40000a10 	.word	0x40000a10
    3e20:	40000a0c 	.word	0x40000a0c
    3e24:	40001bd4 	.word	0x40001bd4
    3e28:	40001b88 	.word	0x40001b88
    3e2c:	40001bb0 	.word	0x40001bb0
    3e30:	40001bd0 	.word	0x40001bd0

00003e34 <I2CStart>:
** parameters:			None
** Returned value:		true or false, return false if timed out
** 
*****************************************************************************/
unsigned int I2CStart( void )
{
    3e34:	e1a0c00d 	mov	ip, sp
    3e38:	e92dd800 	push	{fp, ip, lr, pc}
    3e3c:	e24cb004 	sub	fp, ip, #4
    3e40:	e24dd008 	sub	sp, sp, #8
    unsigned int timeout = 0;
    3e44:	e3a03000 	mov	r3, #0
    3e48:	e50b3014 	str	r3, [fp, #-20]
    unsigned int returnValue = FALSE;
    3e4c:	e3a03000 	mov	r3, #0
    3e50:	e50b3010 	str	r3, [fp, #-16]
 
    /*--- Issue a start condition ---*/
    I20CONSET = I2CONSET_STA;	/* Set Start flag */
    3e54:	e3a0320e 	mov	r3, #-536870912	; 0xe0000000
    3e58:	e2833907 	add	r3, r3, #114688	; 0x1c000
    3e5c:	e3a02020 	mov	r2, #32
    3e60:	e5832000 	str	r2, [r3]
    
    /*--- Wait until START transmitted ---*/
    while( 1 )
    {
	if ( I2CMasterState == I2C_STARTED )
    3e64:	e59f3058 	ldr	r3, [pc, #88]	; 3ec4 <I2CStart+0x90>
    3e68:	e5933000 	ldr	r3, [r3]
    3e6c:	e3530001 	cmp	r3, #1
    3e70:	1a000002 	bne	3e80 <I2CStart+0x4c>
	{
	    returnValue = TRUE;
    3e74:	e3a03001 	mov	r3, #1
    3e78:	e50b3010 	str	r3, [fp, #-16]
	    break;	
    3e7c:	ea00000b 	b	3eb0 <I2CStart+0x7c>
	}
	if ( timeout >= MAX_TIMEOUT )
    3e80:	e51b2014 	ldr	r2, [fp, #-20]
    3e84:	e3a03401 	mov	r3, #16777216	; 0x1000000
    3e88:	e2433002 	sub	r3, r3, #2
    3e8c:	e1520003 	cmp	r2, r3
    3e90:	9a000002 	bls	3ea0 <I2CStart+0x6c>
	{
	    returnValue = FALSE;
    3e94:	e3a03000 	mov	r3, #0
    3e98:	e50b3010 	str	r3, [fp, #-16]
	    break;
    3e9c:	ea000003 	b	3eb0 <I2CStart+0x7c>
	}
	timeout++;
    3ea0:	e51b3014 	ldr	r3, [fp, #-20]
    3ea4:	e2833001 	add	r3, r3, #1
    3ea8:	e50b3014 	str	r3, [fp, #-20]
    }
    3eac:	eaffffec 	b	3e64 <I2CStart+0x30>
    return( returnValue );
    3eb0:	e51b3010 	ldr	r3, [fp, #-16]
}
    3eb4:	e1a00003 	mov	r0, r3
    3eb8:	e24bd00c 	sub	sp, fp, #12
    3ebc:	e89d6800 	ldm	sp, {fp, sp, lr}
    3ec0:	e12fff1e 	bx	lr
    3ec4:	40000a00 	.word	0x40000a00

00003ec8 <I2CStop>:
** parameters:			None
** Returned value:		true or never return
** 
*****************************************************************************/
unsigned int I2CStop( void )
{
    3ec8:	e1a0c00d 	mov	ip, sp
    3ecc:	e92dd800 	push	{fp, ip, lr, pc}
    3ed0:	e24cb004 	sub	fp, ip, #4
    I20CONSET = I2CONSET_STO;      /* Set Stop flag */ 
    3ed4:	e3a0320e 	mov	r3, #-536870912	; 0xe0000000
    3ed8:	e2833907 	add	r3, r3, #114688	; 0x1c000
    3edc:	e3a02010 	mov	r2, #16
    3ee0:	e5832000 	str	r2, [r3]
    I20CONCLR = I2CONCLR_SIC;  /* Clear SI flag */ 
    3ee4:	e3a0320e 	mov	r3, #-536870912	; 0xe0000000
    3ee8:	e2833907 	add	r3, r3, #114688	; 0x1c000
    3eec:	e2833018 	add	r3, r3, #24
    3ef0:	e3a02008 	mov	r2, #8
    3ef4:	e5832000 	str	r2, [r3]
            
    /*--- Wait for STOP detected ---*/
    while( I20CONSET & I2CONSET_STO );
    3ef8:	e3a0320e 	mov	r3, #-536870912	; 0xe0000000
    3efc:	e2833907 	add	r3, r3, #114688	; 0x1c000
    3f00:	e5933000 	ldr	r3, [r3]
    3f04:	e2033010 	and	r3, r3, #16
    3f08:	e3530000 	cmp	r3, #0
    3f0c:	1afffff9 	bne	3ef8 <I2CStop+0x30>
    return TRUE;
    3f10:	e3a03001 	mov	r3, #1
}
    3f14:	e1a00003 	mov	r0, r3
    3f18:	e24bd00c 	sub	sp, fp, #12
    3f1c:	e89d6800 	ldm	sp, {fp, sp, lr}
    3f20:	e12fff1e 	bx	lr

00003f24 <I2CInit>:
** Returned value:		true or false, return false if the I2C
**				interrupt handler was not installed correctly
** 
*****************************************************************************/
void I2CInit( unsigned int I2cMode ) 
{
    3f24:	e1a0c00d 	mov	ip, sp
    3f28:	e92dd800 	push	{fp, ip, lr, pc}
    3f2c:	e24cb004 	sub	fp, ip, #4
    3f30:	e24dd004 	sub	sp, sp, #4
    3f34:	e50b0010 	str	r0, [fp, #-16]
    IODIR0|= 0x0C;	/* set port 0.2 and port 0.3 to output, high */
    3f38:	e3a0228e 	mov	r2, #-536870904	; 0xe0000008
    3f3c:	e282290a 	add	r2, r2, #163840	; 0x28000
    3f40:	e3a0328e 	mov	r3, #-536870904	; 0xe0000008
    3f44:	e283390a 	add	r3, r3, #163840	; 0x28000
    3f48:	e5933000 	ldr	r3, [r3]
    3f4c:	e383300c 	orr	r3, r3, #12
    3f50:	e5823000 	str	r3, [r2]
    IOSET0 = 0x0C;
    3f54:	e3a0324e 	mov	r3, #-536870908	; 0xe0000004
    3f58:	e283390a 	add	r3, r3, #163840	; 0x28000
    3f5c:	e3a0200c 	mov	r2, #12
    3f60:	e5832000 	str	r2, [r3]

    /*--- Clear flags ---*/
    I20CONCLR = I2CONCLR_AAC | I2CONCLR_SIC | I2CONCLR_STAC | I2CONCLR_I2ENC;    
    3f64:	e3a0320e 	mov	r3, #-536870912	; 0xe0000000
    3f68:	e2833907 	add	r3, r3, #114688	; 0x1c000
    3f6c:	e2833018 	add	r3, r3, #24
    3f70:	e3a0206c 	mov	r2, #108	; 0x6c
    3f74:	e5832000 	str	r2, [r3]

    /*--- Reset registers ---*/
    I20SCLL   = I2SCLL_SCLL;
    3f78:	e3a0320e 	mov	r3, #-536870912	; 0xe0000000
    3f7c:	e2833907 	add	r3, r3, #114688	; 0x1c000
    3f80:	e2833014 	add	r3, r3, #20
    3f84:	e3a02080 	mov	r2, #128	; 0x80
    3f88:	e5832000 	str	r2, [r3]
    I20SCLH   = I2SCLH_SCLH;
    3f8c:	e3a0320e 	mov	r3, #-536870912	; 0xe0000000
    3f90:	e2833907 	add	r3, r3, #114688	; 0x1c000
    3f94:	e2833010 	add	r3, r3, #16
    3f98:	e3a02080 	mov	r2, #128	; 0x80
    3f9c:	e5832000 	str	r2, [r3]
}
    3fa0:	e24bd00c 	sub	sp, fp, #12
    3fa4:	e89d6800 	ldm	sp, {fp, sp, lr}
    3fa8:	e12fff1e 	bx	lr

00003fac <I2CEngine>:
**				start condition can never be generated and
**				timed out. 
** 
*****************************************************************************/
unsigned int I2CEngine( void ) 
{
    3fac:	e1a0c00d 	mov	ip, sp
    3fb0:	e92dd800 	push	{fp, ip, lr, pc}
    3fb4:	e24cb004 	sub	fp, ip, #4
    3fb8:	e24dd004 	sub	sp, sp, #4
    I2CMasterState = I2C_IDLE;
    3fbc:	e59f206c 	ldr	r2, [pc, #108]	; 4030 <I2CEngine+0x84>
    3fc0:	e3a03000 	mov	r3, #0
    3fc4:	e5823000 	str	r3, [r2]
    RdIndex = 0;
    3fc8:	e59f2064 	ldr	r2, [pc, #100]	; 4034 <I2CEngine+0x88>
    3fcc:	e3a03000 	mov	r3, #0
    3fd0:	e5823000 	str	r3, [r2]
    WrIndex = 0;
    3fd4:	e59f205c 	ldr	r2, [pc, #92]	; 4038 <I2CEngine+0x8c>
    3fd8:	e3a03000 	mov	r3, #0
    3fdc:	e5823000 	str	r3, [r2]
    if ( I2CStart() != TRUE )
    3fe0:	ebffff93 	bl	3e34 <I2CStart>
    3fe4:	e1a03000 	mov	r3, r0
    3fe8:	e3530001 	cmp	r3, #1
    3fec:	0a000003 	beq	4000 <I2CEngine+0x54>
    {
		I2CStop();
    3ff0:	ebffffb4 	bl	3ec8 <I2CStop>
	return ( FALSE );
    3ff4:	e3a03000 	mov	r3, #0
    3ff8:	e50b3010 	str	r3, [fp, #-16]
    3ffc:	ea000006 	b	401c <I2CEngine+0x70>
    }
    while ( 1 )
    {
	if ( I2CMasterState == DATA_NACK )
    4000:	e59f3028 	ldr	r3, [pc, #40]	; 4030 <I2CEngine+0x84>
    4004:	e5933000 	ldr	r3, [r3]
    4008:	e3530005 	cmp	r3, #5
    400c:	1afffffb 	bne	4000 <I2CEngine+0x54>
	{
	    I2CStop();
    4010:	ebffffac 	bl	3ec8 <I2CStop>
	    break;
	}
    }    
    return ( TRUE );      
    4014:	e3a03001 	mov	r3, #1
    4018:	e50b3010 	str	r3, [fp, #-16]
	if ( I2CMasterState == DATA_NACK )
	{
	    I2CStop();
	    break;
	}
    }    
    401c:	e51b3010 	ldr	r3, [fp, #-16]
    return ( TRUE );      
}
    4020:	e1a00003 	mov	r0, r3
    4024:	e24bd00c 	sub	sp, fp, #12
    4028:	e89d6800 	ldm	sp, {fp, sp, lr}
    402c:	e12fff1e 	bx	lr
    4030:	40000a00 	.word	0x40000a00
    4034:	40000a0c 	.word	0x40000a0c
    4038:	40000a10 	.word	0x40000a10

0000403c <I2C1MasterHandler>:
** Returned value:		None
**
*****************************************************************************/

void I2C1MasterHandler (void) __irq
{
    403c:	e1a0c00d 	mov	ip, sp
    4040:	e92dd800 	push	{fp, ip, lr, pc}
    4044:	e24cb004 	sub	fp, ip, #4
    4048:	e24dd004 	sub	sp, sp, #4
    BYTE StatValue;

    /* this handler deals with master read and master write only */
    StatValue = I21STAT;
    404c:	e3a0324e 	mov	r3, #-536870908	; 0xe0000004
    4050:	e2833917 	add	r3, r3, #376832	; 0x5c000
    4054:	e5933000 	ldr	r3, [r3]
    4058:	e54b300d 	strb	r3, [fp, #-13]

    IENABLE;
    switch ( StatValue )
    405c:	e55b300d 	ldrb	r3, [fp, #-13]
    4060:	e2433008 	sub	r3, r3, #8
    4064:	e3530028 	cmp	r3, #40	; 0x28
    4068:	979ff103 	ldrls	pc, [pc, r3, lsl #2]
    406c:	ea00009e 	b	42ec <I2C1MasterHandler+0x2b0>
    4070:	00004114 	.word	0x00004114
    4074:	000042ec 	.word	0x000042ec
    4078:	000042ec 	.word	0x000042ec
    407c:	000042ec 	.word	0x000042ec
    4080:	000042ec 	.word	0x000042ec
    4084:	000042ec 	.word	0x000042ec
    4088:	000042ec 	.word	0x000042ec
    408c:	000042ec 	.word	0x000042ec
    4090:	000042ec 	.word	0x000042ec
    4094:	000042ec 	.word	0x000042ec
    4098:	000042ec 	.word	0x000042ec
    409c:	000042ec 	.word	0x000042ec
    40a0:	000042ec 	.word	0x000042ec
    40a4:	000042ec 	.word	0x000042ec
    40a8:	000042ec 	.word	0x000042ec
    40ac:	000042ec 	.word	0x000042ec
    40b0:	0000414c 	.word	0x0000414c
    40b4:	000042ec 	.word	0x000042ec
    40b8:	000042ec 	.word	0x000042ec
    40bc:	000042ec 	.word	0x000042ec
    40c0:	000042ec 	.word	0x000042ec
    40c4:	000042ec 	.word	0x000042ec
    40c8:	000042ec 	.word	0x000042ec
    40cc:	000042ec 	.word	0x000042ec
    40d0:	00004298 	.word	0x00004298
    40d4:	000042ec 	.word	0x000042ec
    40d8:	000042ec 	.word	0x000042ec
    40dc:	000042ec 	.word	0x000042ec
    40e0:	000042ec 	.word	0x000042ec
    40e4:	000042ec 	.word	0x000042ec
    40e8:	000042ec 	.word	0x000042ec
    40ec:	000042ec 	.word	0x000042ec
    40f0:	000041a8 	.word	0x000041a8
    40f4:	000042ec 	.word	0x000042ec
    40f8:	000042ec 	.word	0x000042ec
    40fc:	000042ec 	.word	0x000042ec
    4100:	000042ec 	.word	0x000042ec
    4104:	000042ec 	.word	0x000042ec
    4108:	000042ec 	.word	0x000042ec
    410c:	000042ec 	.word	0x000042ec
    4110:	00004258 	.word	0x00004258
    {
	case 0x08:			/* A Start condition is issued. */
	I21DAT = I2C1MasterBuffer[0];
    4114:	e3a0228e 	mov	r2, #-536870904	; 0xe0000008
    4118:	e2822917 	add	r2, r2, #376832	; 0x5c000
    411c:	e59f31f8 	ldr	r3, [pc, #504]	; 431c <I2C1MasterHandler+0x2e0>
    4120:	e5d33000 	ldrb	r3, [r3]
    4124:	e5823000 	str	r3, [r2]
	I21CONCLR = (I2CONCLR_SIC | I2CONCLR_STAC);
    4128:	e3a0320e 	mov	r3, #-536870912	; 0xe0000000
    412c:	e2833917 	add	r3, r3, #376832	; 0x5c000
    4130:	e2833018 	add	r3, r3, #24
    4134:	e3a02028 	mov	r2, #40	; 0x28
    4138:	e5832000 	str	r2, [r3]
	I2C1MasterState = I2C_STARTED;
    413c:	e59f21dc 	ldr	r2, [pc, #476]	; 4320 <I2C1MasterHandler+0x2e4>
    4140:	e3a03001 	mov	r3, #1
    4144:	e5823000 	str	r3, [r2]
	break;
    4148:	ea00006c 	b	4300 <I2C1MasterHandler+0x2c4>


	case 0x18:			/* Regardless, it's a ACK */
	if ( I2C1MasterState == I2C_STARTED )
    414c:	e59f31cc 	ldr	r3, [pc, #460]	; 4320 <I2C1MasterHandler+0x2e4>
    4150:	e5933000 	ldr	r3, [r3]
    4154:	e3530001 	cmp	r3, #1
    4158:	1a00000c 	bne	4190 <I2C1MasterHandler+0x154>
	{
	    I21DAT = I2C1MasterBuffer[1];
    415c:	e3a0228e 	mov	r2, #-536870904	; 0xe0000008
    4160:	e2822917 	add	r2, r2, #376832	; 0x5c000
    4164:	e59f31b0 	ldr	r3, [pc, #432]	; 431c <I2C1MasterHandler+0x2e0>
    4168:	e5d33001 	ldrb	r3, [r3, #1]
    416c:	e5823000 	str	r3, [r2]
	    WrIndex1++;
    4170:	e59f31ac 	ldr	r3, [pc, #428]	; 4324 <I2C1MasterHandler+0x2e8>
    4174:	e5933000 	ldr	r3, [r3]
    4178:	e2832001 	add	r2, r3, #1
    417c:	e59f31a0 	ldr	r3, [pc, #416]	; 4324 <I2C1MasterHandler+0x2e8>
    4180:	e5832000 	str	r2, [r3]
	    I2C1MasterState = DATA_ACK;
    4184:	e59f2194 	ldr	r2, [pc, #404]	; 4320 <I2C1MasterHandler+0x2e4>
    4188:	e3a03004 	mov	r3, #4
    418c:	e5823000 	str	r3, [r2]
	}
	I21CONCLR = I2CONCLR_SIC;
    4190:	e3a0320e 	mov	r3, #-536870912	; 0xe0000000
    4194:	e2833917 	add	r3, r3, #376832	; 0x5c000
    4198:	e2833018 	add	r3, r3, #24
    419c:	e3a02008 	mov	r2, #8
    41a0:	e5832000 	str	r2, [r3]
	break;
    41a4:	ea000055 	b	4300 <I2C1MasterHandler+0x2c4>

	case 0x28:	/* Data byte has been transmitted, regardless ACK or NACK */
	if ( WrIndex1 < I2C1WriteLength )
    41a8:	e59f3174 	ldr	r3, [pc, #372]	; 4324 <I2C1MasterHandler+0x2e8>
    41ac:	e5932000 	ldr	r2, [r3]
    41b0:	e59f3170 	ldr	r3, [pc, #368]	; 4328 <I2C1MasterHandler+0x2ec>
    41b4:	e5933000 	ldr	r3, [r3]
    41b8:	e1520003 	cmp	r2, r3
    41bc:	2a000010 	bcs	4204 <I2C1MasterHandler+0x1c8>
	{
	    I21DAT = I2C1MasterBuffer[1+WrIndex1]; /* this should be the last one */
    41c0:	e3a0228e 	mov	r2, #-536870904	; 0xe0000008
    41c4:	e2822917 	add	r2, r2, #376832	; 0x5c000
    41c8:	e59f3154 	ldr	r3, [pc, #340]	; 4324 <I2C1MasterHandler+0x2e8>
    41cc:	e5933000 	ldr	r3, [r3]
    41d0:	e2831001 	add	r1, r3, #1
    41d4:	e59f3140 	ldr	r3, [pc, #320]	; 431c <I2C1MasterHandler+0x2e0>
    41d8:	e7d33001 	ldrb	r3, [r3, r1]
    41dc:	e5823000 	str	r3, [r2]
	    WrIndex1++;
    41e0:	e59f313c 	ldr	r3, [pc, #316]	; 4324 <I2C1MasterHandler+0x2e8>
    41e4:	e5933000 	ldr	r3, [r3]
    41e8:	e2832001 	add	r2, r3, #1
    41ec:	e59f3130 	ldr	r3, [pc, #304]	; 4324 <I2C1MasterHandler+0x2e8>
    41f0:	e5832000 	str	r2, [r3]
	    I2C1MasterState = DATA_ACK;
    41f4:	e59f2124 	ldr	r2, [pc, #292]	; 4320 <I2C1MasterHandler+0x2e4>
    41f8:	e3a03004 	mov	r3, #4
    41fc:	e5823000 	str	r3, [r2]
    4200:	ea00000b 	b	4234 <I2C1MasterHandler+0x1f8>

	}
	else
	{
		I2C1MasterState = DATA_WRITE_DONE;
    4204:	e59f2114 	ldr	r2, [pc, #276]	; 4320 <I2C1MasterHandler+0x2e4>
    4208:	e3a03007 	mov	r3, #7
    420c:	e5823000 	str	r3, [r2]
		  	//I2C Stop
		I21CONSET = I2CONSET_STO;      /* Set Stop flag */
    4210:	e3a0320e 	mov	r3, #-536870912	; 0xe0000000
    4214:	e2833917 	add	r3, r3, #376832	; 0x5c000
    4218:	e3a02010 	mov	r2, #16
    421c:	e5832000 	str	r2, [r3]
		I21CONCLR = I2CONCLR_SIC;  /* Clear SI flag */
    4220:	e3a0320e 	mov	r3, #-536870912	; 0xe0000000
    4224:	e2833917 	add	r3, r3, #376832	; 0x5c000
    4228:	e2833018 	add	r3, r3, #24
    422c:	e3a02008 	mov	r2, #8
    4230:	e5832000 	str	r2, [r3]
	}
	I21CONCLR = I2CONCLR_SIC;
    4234:	e3a0320e 	mov	r3, #-536870912	; 0xe0000000
    4238:	e2833917 	add	r3, r3, #376832	; 0x5c000
    423c:	e2833018 	add	r3, r3, #24
    4240:	e3a02008 	mov	r2, #8
    4244:	e5832000 	str	r2, [r3]
	lastI2c1Error=I2C_ERROR_NONE;
    4248:	e59f20dc 	ldr	r2, [pc, #220]	; 432c <I2C1MasterHandler+0x2f0>
    424c:	e3a03000 	mov	r3, #0
    4250:	e5c23000 	strb	r3, [r2]

	break;
    4254:	ea000029 	b	4300 <I2C1MasterHandler+0x2c4>

	case 0x30: //data has been transmited but NACK was received
		I2C1MasterState = DATA_NACK;
    4258:	e59f20c0 	ldr	r2, [pc, #192]	; 4320 <I2C1MasterHandler+0x2e4>
    425c:	e3a03005 	mov	r3, #5
    4260:	e5823000 	str	r3, [r2]
		  	//I2C Stop
		I21CONSET = I2CONSET_STO;      /* Set Stop flag */
    4264:	e3a0320e 	mov	r3, #-536870912	; 0xe0000000
    4268:	e2833917 	add	r3, r3, #376832	; 0x5c000
    426c:	e3a02010 	mov	r2, #16
    4270:	e5832000 	str	r2, [r3]
		I21CONCLR = I2CONCLR_SIC;  /* Clear SI flag */
    4274:	e3a0320e 	mov	r3, #-536870912	; 0xe0000000
    4278:	e2833917 	add	r3, r3, #376832	; 0x5c000
    427c:	e2833018 	add	r3, r3, #24
    4280:	e3a02008 	mov	r2, #8
    4284:	e5832000 	str	r2, [r3]
		lastI2c1Error=I2C_ERROR_NACKAFTERWRITE;
    4288:	e59f209c 	ldr	r2, [pc, #156]	; 432c <I2C1MasterHandler+0x2f0>
    428c:	e3a03002 	mov	r3, #2
    4290:	e5c23000 	strb	r3, [r2]
	break;
    4294:	ea000019 	b	4300 <I2C1MasterHandler+0x2c4>

	case 0x20: //NACK received, receiver not found
				I21CONCLR = I2CONCLR_SIC;
    4298:	e3a0320e 	mov	r3, #-536870912	; 0xe0000000
    429c:	e2833917 	add	r3, r3, #376832	; 0x5c000
    42a0:	e2833018 	add	r3, r3, #24
    42a4:	e3a02008 	mov	r2, #8
    42a8:	e5832000 	str	r2, [r3]
				I2C1MasterState = DATA_NACK;
    42ac:	e59f206c 	ldr	r2, [pc, #108]	; 4320 <I2C1MasterHandler+0x2e4>
    42b0:	e3a03005 	mov	r3, #5
    42b4:	e5823000 	str	r3, [r2]
				//I2C Stop
				I21CONSET = I2CONSET_STO;      /* Set Stop flag */
    42b8:	e3a0320e 	mov	r3, #-536870912	; 0xe0000000
    42bc:	e2833917 	add	r3, r3, #376832	; 0x5c000
    42c0:	e3a02010 	mov	r2, #16
    42c4:	e5832000 	str	r2, [r3]
				I21CONCLR = I2CONCLR_SIC;  /* Clear SI flag */
    42c8:	e3a0320e 	mov	r3, #-536870912	; 0xe0000000
    42cc:	e2833917 	add	r3, r3, #376832	; 0x5c000
    42d0:	e2833018 	add	r3, r3, #24
    42d4:	e3a02008 	mov	r2, #8
    42d8:	e5832000 	str	r2, [r3]
				lastI2c1Error=I2C_ERROR_NACKAFTERSTART;
    42dc:	e59f2048 	ldr	r2, [pc, #72]	; 432c <I2C1MasterHandler+0x2f0>
    42e0:	e3a03001 	mov	r3, #1
    42e4:	e5c23000 	strb	r3, [r2]
	break;
    42e8:	ea000004 	b	4300 <I2C1MasterHandler+0x2c4>



	default:
	I21CONCLR = I2CONCLR_SIC;
    42ec:	e3a0320e 	mov	r3, #-536870912	; 0xe0000000
    42f0:	e2833917 	add	r3, r3, #376832	; 0x5c000
    42f4:	e2833018 	add	r3, r3, #24
    42f8:	e3a02008 	mov	r2, #8
    42fc:	e5832000 	str	r2, [r3]
	break;
    }

    IDISABLE;
    VICVectAddr = 0;		/* Acknowledge Interrupt */
    4300:	e3a03000 	mov	r3, #0
    4304:	e2433efd 	sub	r3, r3, #4048	; 0xfd0
    4308:	e3a02000 	mov	r2, #0
    430c:	e5832000 	str	r2, [r3]

}
    4310:	e24bd00c 	sub	sp, fp, #12
    4314:	e89d6800 	ldm	sp, {fp, sp, lr}
    4318:	e12fff1e 	bx	lr
    431c:	40001bdc 	.word	0x40001bdc
    4320:	40000a14 	.word	0x40000a14
    4324:	40000a1c 	.word	0x40000a1c
    4328:	40001bd8 	.word	0x40001bd8
    432c:	40000a20 	.word	0x40000a20

00004330 <fireFlyLedHandler>:

void fireFlyLedHandler(void) 	//called with 100Hz
{
    4330:	e1a0c00d 	mov	ip, sp
    4334:	e92dd800 	push	{fp, ip, lr, pc}
    4338:	e24cb004 	sub	fp, ip, #4
    433c:	e24dd00c 	sub	sp, sp, #12
	static unsigned short cnt=0;
	static unsigned char mfsCnt=0;
	static unsigned char mincCnt=0;
	static unsigned char ceCnt=0;

	errorFlags=0;
    4340:	e3a03000 	mov	r3, #0
    4344:	e14b31b2 	strh	r3, [fp, #-18]	; 0xffffffee


	if (LL_1khz_attitude_data.flightMode&FM_CALIBRATION_ERROR_GYROS)
    4348:	e59f3af4 	ldr	r3, [pc, #2804]	; 4e44 <fireFlyLedHandler+0xb14>
    434c:	e1d335b2 	ldrh	r3, [r3, #82]	; 0x52
    4350:	e1a03803 	lsl	r3, r3, #16
    4354:	e1a03823 	lsr	r3, r3, #16
    4358:	e2033c02 	and	r3, r3, #512	; 0x200
    435c:	e3530000 	cmp	r3, #0
    4360:	0a000002 	beq	4370 <fireFlyLedHandler+0x40>
	{
		errorFlags|=0x02;
    4364:	e15b31b2 	ldrh	r3, [fp, #-18]	; 0xffffffee
    4368:	e3833002 	orr	r3, r3, #2
    436c:	e14b31b2 	strh	r3, [fp, #-18]	; 0xffffffee
	}

	if (LL_1khz_attitude_data.flightMode&FM_CALIBRATION_ERROR_ACC)
    4370:	e59f3acc 	ldr	r3, [pc, #2764]	; 4e44 <fireFlyLedHandler+0xb14>
    4374:	e1d335b2 	ldrh	r3, [r3, #82]	; 0x52
    4378:	e1a03803 	lsl	r3, r3, #16
    437c:	e1a03823 	lsr	r3, r3, #16
    4380:	e2033b01 	and	r3, r3, #1024	; 0x400
    4384:	e3530000 	cmp	r3, #0
    4388:	0a000002 	beq	4398 <fireFlyLedHandler+0x68>
	{
		errorFlags|=0x04;
    438c:	e15b31b2 	ldrh	r3, [fp, #-18]	; 0xffffffee
    4390:	e3833004 	orr	r3, r3, #4
    4394:	e14b31b2 	strh	r3, [fp, #-18]	; 0xffffffee
	}

	if ((LL_1khz_attitude_data.flightMode&FM_COMPASS_FAILURE) && (ceCnt<5))
    4398:	e59f3aa4 	ldr	r3, [pc, #2724]	; 4e44 <fireFlyLedHandler+0xb14>
    439c:	e1d335b2 	ldrh	r3, [r3, #82]	; 0x52
    43a0:	e1a03803 	lsl	r3, r3, #16
    43a4:	e1a03823 	lsr	r3, r3, #16
    43a8:	e2033010 	and	r3, r3, #16
    43ac:	e3530000 	cmp	r3, #0
    43b0:	0a000006 	beq	43d0 <fireFlyLedHandler+0xa0>
    43b4:	e59f3a8c 	ldr	r3, [pc, #2700]	; 4e48 <fireFlyLedHandler+0xb18>
    43b8:	e5d33000 	ldrb	r3, [r3]
    43bc:	e3530004 	cmp	r3, #4
    43c0:	8a000002 	bhi	43d0 <fireFlyLedHandler+0xa0>
	{
		errorFlags|=0x08;
    43c4:	e15b31b2 	ldrh	r3, [fp, #-18]	; 0xffffffee
    43c8:	e3833008 	orr	r3, r3, #8
    43cc:	e14b31b2 	strh	r3, [fp, #-18]	; 0xffffffee
	}

	if ((LL_1khz_attitude_data.flightMode&FM_MAG_INCLINATION_ERROR) && (mincCnt<5) && ((LL_1khz_attitude_data.flightMode&FM_COMPASS_FAILURE)==0))
    43d0:	e59f3a6c 	ldr	r3, [pc, #2668]	; 4e44 <fireFlyLedHandler+0xb14>
    43d4:	e1d335b2 	ldrh	r3, [r3, #82]	; 0x52
    43d8:	e1a03803 	lsl	r3, r3, #16
    43dc:	e1a03843 	asr	r3, r3, #16
    43e0:	e3530000 	cmp	r3, #0
    43e4:	aa00000d 	bge	4420 <fireFlyLedHandler+0xf0>
    43e8:	e59f3a5c 	ldr	r3, [pc, #2652]	; 4e4c <fireFlyLedHandler+0xb1c>
    43ec:	e5d33000 	ldrb	r3, [r3]
    43f0:	e3530004 	cmp	r3, #4
    43f4:	8a000009 	bhi	4420 <fireFlyLedHandler+0xf0>
    43f8:	e59f3a44 	ldr	r3, [pc, #2628]	; 4e44 <fireFlyLedHandler+0xb14>
    43fc:	e1d335b2 	ldrh	r3, [r3, #82]	; 0x52
    4400:	e1a03803 	lsl	r3, r3, #16
    4404:	e1a03823 	lsr	r3, r3, #16
    4408:	e2033010 	and	r3, r3, #16
    440c:	e3530000 	cmp	r3, #0
    4410:	1a000002 	bne	4420 <fireFlyLedHandler+0xf0>
	{
		errorFlags|=0x10;
    4414:	e15b31b2 	ldrh	r3, [fp, #-18]	; 0xffffffee
    4418:	e3833010 	orr	r3, r3, #16
    441c:	e14b31b2 	strh	r3, [fp, #-18]	; 0xffffffee
	}

	if ((LL_1khz_attitude_data.flightMode&FM_MAG_FIELD_STRENGTH_ERROR) && (mfsCnt<5) && ((LL_1khz_attitude_data.flightMode&FM_COMPASS_FAILURE)==0))
    4420:	e59f3a1c 	ldr	r3, [pc, #2588]	; 4e44 <fireFlyLedHandler+0xb14>
    4424:	e1d335b2 	ldrh	r3, [r3, #82]	; 0x52
    4428:	e1a03803 	lsl	r3, r3, #16
    442c:	e1a03823 	lsr	r3, r3, #16
    4430:	e2033901 	and	r3, r3, #16384	; 0x4000
    4434:	e3530000 	cmp	r3, #0
    4438:	0a00000d 	beq	4474 <fireFlyLedHandler+0x144>
    443c:	e59f3a0c 	ldr	r3, [pc, #2572]	; 4e50 <fireFlyLedHandler+0xb20>
    4440:	e5d33000 	ldrb	r3, [r3]
    4444:	e3530004 	cmp	r3, #4
    4448:	8a000009 	bhi	4474 <fireFlyLedHandler+0x144>
    444c:	e59f39f0 	ldr	r3, [pc, #2544]	; 4e44 <fireFlyLedHandler+0xb14>
    4450:	e1d335b2 	ldrh	r3, [r3, #82]	; 0x52
    4454:	e1a03803 	lsl	r3, r3, #16
    4458:	e1a03823 	lsr	r3, r3, #16
    445c:	e2033010 	and	r3, r3, #16
    4460:	e3530000 	cmp	r3, #0
    4464:	1a000002 	bne	4474 <fireFlyLedHandler+0x144>
	{
		errorFlags|=0x20;
    4468:	e15b31b2 	ldrh	r3, [fp, #-18]	; 0xffffffee
    446c:	e3833020 	orr	r3, r3, #32
    4470:	e14b31b2 	strh	r3, [fp, #-18]	; 0xffffffee
	}

	cnt++;
    4474:	e59f39d8 	ldr	r3, [pc, #2520]	; 4e54 <fireFlyLedHandler+0xb24>
    4478:	e1d330b0 	ldrh	r3, [r3]
    447c:	e2833001 	add	r3, r3, #1
    4480:	e1a03803 	lsl	r3, r3, #16
    4484:	e1a02823 	lsr	r2, r3, #16
    4488:	e59f39c4 	ldr	r3, [pc, #2500]	; 4e54 <fireFlyLedHandler+0xb24>
    448c:	e1c320b0 	strh	r2, [r3]
	if (cnt==200)
    4490:	e59f39bc 	ldr	r3, [pc, #2492]	; 4e54 <fireFlyLedHandler+0xb24>
    4494:	e1d330b0 	ldrh	r3, [r3]
    4498:	e35300c8 	cmp	r3, #200	; 0xc8
    449c:	1a000002 	bne	44ac <fireFlyLedHandler+0x17c>
		cnt=0;
    44a0:	e59f39ac 	ldr	r3, [pc, #2476]	; 4e54 <fireFlyLedHandler+0xb24>
    44a4:	e3a02000 	mov	r2, #0
    44a8:	e1c320b0 	strh	r2, [r3]
	if(!SYSTEM_initialized)
    44ac:	e59f39a4 	ldr	r3, [pc, #2468]	; 4e58 <fireFlyLedHandler+0xb28>
    44b0:	e5d33000 	ldrb	r3, [r3]
    44b4:	e20330ff 	and	r3, r3, #255	; 0xff
    44b8:	e3530000 	cmp	r3, #0
    44bc:	1a000009 	bne	44e8 <fireFlyLedHandler+0x1b8>
		{
			errorFlags|=0x01;
    44c0:	e15b31b2 	ldrh	r3, [fp, #-18]	; 0xffffffee
    44c4:	e3833001 	orr	r3, r3, #1
    44c8:	e14b31b2 	strh	r3, [fp, #-18]	; 0xffffffee
			r=0;
    44cc:	e3a03000 	mov	r3, #0
    44d0:	e54b3015 	strb	r3, [fp, #-21]
			g=0;
    44d4:	e3a03000 	mov	r3, #0
    44d8:	e54b3014 	strb	r3, [fp, #-20]
			b=255;
    44dc:	e3e03000 	mvn	r3, #0
    44e0:	e54b3013 	strb	r3, [fp, #-19]
    44e4:	ea000080 	b	46ec <fireFlyLedHandler+0x3bc>
		}
	else if (((GPS_Data.status&0xFF)==3) && (HL_Status.battery_voltage_1>11000))
    44e8:	e59f396c 	ldr	r3, [pc, #2412]	; 4e5c <fireFlyLedHandler+0xb2c>
    44ec:	e5933028 	ldr	r3, [r3, #40]	; 0x28
    44f0:	e20330ff 	and	r3, r3, #255	; 0xff
    44f4:	e3530003 	cmp	r3, #3
    44f8:	1a00000e 	bne	4538 <fireFlyLedHandler+0x208>
    44fc:	e59f395c 	ldr	r3, [pc, #2396]	; 4e60 <fireFlyLedHandler+0xb30>
    4500:	e1d330b0 	ldrh	r3, [r3]
    4504:	e1a03803 	lsl	r3, r3, #16
    4508:	e1a02843 	asr	r2, r3, #16
    450c:	e3a03dab 	mov	r3, #10944	; 0x2ac0
    4510:	e2833038 	add	r3, r3, #56	; 0x38
    4514:	e1520003 	cmp	r2, r3
    4518:	da000006 	ble	4538 <fireFlyLedHandler+0x208>
    {
    	r=0;
    451c:	e3a03000 	mov	r3, #0
    4520:	e54b3015 	strb	r3, [fp, #-21]
    	g=255;
    4524:	e3e03000 	mvn	r3, #0
    4528:	e54b3014 	strb	r3, [fp, #-20]
    	b=0;
    452c:	e3a03000 	mov	r3, #0
    4530:	e54b3013 	strb	r3, [fp, #-19]
			errorFlags|=0x01;
			r=0;
			g=0;
			b=255;
		}
	else if (((GPS_Data.status&0xFF)==3) && (HL_Status.battery_voltage_1>11000))
    4534:	ea00006c 	b	46ec <fireFlyLedHandler+0x3bc>
    {
    	r=0;
    	g=255;
    	b=0;
    }else if (HL_Status.battery_voltage_1<11000)
    4538:	e59f3920 	ldr	r3, [pc, #2336]	; 4e60 <fireFlyLedHandler+0xb30>
    453c:	e1d330b0 	ldrh	r3, [r3]
    4540:	e1a03803 	lsl	r3, r3, #16
    4544:	e1a02843 	asr	r2, r3, #16
    4548:	e3a03dab 	mov	r3, #10944	; 0x2ac0
    454c:	e2833037 	add	r3, r3, #55	; 0x37
    4550:	e1520003 	cmp	r2, r3
    4554:	ca000059 	bgt	46c0 <fireFlyLedHandler+0x390>
    {
    	unsigned int dim=11000-HL_Status.battery_voltage_1;
    4558:	e59f3900 	ldr	r3, [pc, #2304]	; 4e60 <fireFlyLedHandler+0xb30>
    455c:	e1d330b0 	ldrh	r3, [r3]
    4560:	e1a03803 	lsl	r3, r3, #16
    4564:	e1a03843 	asr	r3, r3, #16
    4568:	e2633dab 	rsb	r3, r3, #10944	; 0x2ac0
    456c:	e2833038 	add	r3, r3, #56	; 0x38
    4570:	e50b3010 	str	r3, [fp, #-16]

    	if (dim>1000)
    4574:	e51b3010 	ldr	r3, [fp, #-16]
    4578:	e3530ffa 	cmp	r3, #1000	; 0x3e8
    457c:	9a000001 	bls	4588 <fireFlyLedHandler+0x258>
    		dim=1000;
    4580:	e3a03ffa 	mov	r3, #1000	; 0x3e8
    4584:	e50b3010 	str	r3, [fp, #-16]


    	if ((GPS_Data.status&0xFF)!=3)
    4588:	e59f38cc 	ldr	r3, [pc, #2252]	; 4e5c <fireFlyLedHandler+0xb2c>
    458c:	e5933028 	ldr	r3, [r3, #40]	; 0x28
    4590:	e20330ff 	and	r3, r3, #255	; 0xff
    4594:	e3530003 	cmp	r3, #3
    4598:	0a000018 	beq	4600 <fireFlyLedHandler+0x2d0>
    	{
        	dim/=6;
    459c:	e51b2010 	ldr	r2, [fp, #-16]
    45a0:	e59f38bc 	ldr	r3, [pc, #2236]	; 4e64 <fireFlyLedHandler+0xb34>
    45a4:	e0831392 	umull	r1, r3, r2, r3
    45a8:	e1a03123 	lsr	r3, r3, #2
    45ac:	e50b3010 	str	r3, [fp, #-16]
        	dim+=10;
    45b0:	e51b3010 	ldr	r3, [fp, #-16]
    45b4:	e283300a 	add	r3, r3, #10
    45b8:	e50b3010 	str	r3, [fp, #-16]
        	if (dim>165)
    45bc:	e51b3010 	ldr	r3, [fp, #-16]
    45c0:	e35300a5 	cmp	r3, #165	; 0xa5
    45c4:	9a000001 	bls	45d0 <fireFlyLedHandler+0x2a0>
        		dim=165;
    45c8:	e3a030a5 	mov	r3, #165	; 0xa5
    45cc:	e50b3010 	str	r3, [fp, #-16]
    		r=255;
    45d0:	e3e03000 	mvn	r3, #0
    45d4:	e54b3015 	strb	r3, [fp, #-21]
    		g=165-dim;
    45d8:	e51b3010 	ldr	r3, [fp, #-16]
    45dc:	e20330ff 	and	r3, r3, #255	; 0xff
    45e0:	e26334ff 	rsb	r3, r3, #-16777216	; 0xff000000
    45e4:	e28338ff 	add	r3, r3, #16711680	; 0xff0000
    45e8:	e2833cff 	add	r3, r3, #65280	; 0xff00
    45ec:	e28330a5 	add	r3, r3, #165	; 0xa5
    45f0:	e54b3014 	strb	r3, [fp, #-20]
    		b=0;
    45f4:	e3a03000 	mov	r3, #0
    45f8:	e54b3013 	strb	r3, [fp, #-19]
    45fc:	ea000012 	b	464c <fireFlyLedHandler+0x31c>
    	}else
    	{
        	dim/=4;
    4600:	e51b3010 	ldr	r3, [fp, #-16]
    4604:	e1a03123 	lsr	r3, r3, #2
    4608:	e50b3010 	str	r3, [fp, #-16]
        	dim+=5;
    460c:	e51b3010 	ldr	r3, [fp, #-16]
    4610:	e2833005 	add	r3, r3, #5
    4614:	e50b3010 	str	r3, [fp, #-16]
        	if (dim>255)
    4618:	e51b3010 	ldr	r3, [fp, #-16]
    461c:	e35300ff 	cmp	r3, #255	; 0xff
    4620:	9a000001 	bls	462c <fireFlyLedHandler+0x2fc>
        		dim=255;
    4624:	e3a030ff 	mov	r3, #255	; 0xff
    4628:	e50b3010 	str	r3, [fp, #-16]
    		r=dim;
    462c:	e51b3010 	ldr	r3, [fp, #-16]
    4630:	e54b3015 	strb	r3, [fp, #-21]
    		g=255-dim;
    4634:	e51b3010 	ldr	r3, [fp, #-16]
    4638:	e20330ff 	and	r3, r3, #255	; 0xff
    463c:	e1e03003 	mvn	r3, r3
    4640:	e54b3014 	strb	r3, [fp, #-20]
    		b=0;
    4644:	e3a03000 	mov	r3, #0
    4648:	e54b3013 	strb	r3, [fp, #-19]
    	}
    	if(HL_Status.battery_voltage_1<10300) //blink LED @ very low voltage
    464c:	e59f380c 	ldr	r3, [pc, #2060]	; 4e60 <fireFlyLedHandler+0xb30>
    4650:	e1d330b0 	ldrh	r3, [r3]
    4654:	e1a03803 	lsl	r3, r3, #16
    4658:	e1a02843 	asr	r2, r3, #16
    465c:	e3a03b0a 	mov	r3, #10240	; 0x2800
    4660:	e283303b 	add	r3, r3, #59	; 0x3b
    4664:	e1520003 	cmp	r2, r3
    4668:	ca00001f 	bgt	46ec <fireFlyLedHandler+0x3bc>
    	{
    		if((cnt%20)<10) {r=0;g=0;b=0;};
    466c:	e59f37e0 	ldr	r3, [pc, #2016]	; 4e54 <fireFlyLedHandler+0xb24>
    4670:	e1d310b0 	ldrh	r1, [r3]
    4674:	e59f37ec 	ldr	r3, [pc, #2028]	; 4e68 <fireFlyLedHandler+0xb38>
    4678:	e0832391 	umull	r2, r3, r1, r3
    467c:	e1a02223 	lsr	r2, r3, #4
    4680:	e1a03002 	mov	r3, r2
    4684:	e1a03103 	lsl	r3, r3, #2
    4688:	e0833002 	add	r3, r3, r2
    468c:	e1a03103 	lsl	r3, r3, #2
    4690:	e0633001 	rsb	r3, r3, r1
    4694:	e1a03803 	lsl	r3, r3, #16
    4698:	e1a03823 	lsr	r3, r3, #16
    469c:	e3530009 	cmp	r3, #9
    46a0:	8a000011 	bhi	46ec <fireFlyLedHandler+0x3bc>
    46a4:	e3a03000 	mov	r3, #0
    46a8:	e54b3015 	strb	r3, [fp, #-21]
    46ac:	e3a03000 	mov	r3, #0
    46b0:	e54b3014 	strb	r3, [fp, #-20]
    46b4:	e3a03000 	mov	r3, #0
    46b8:	e54b3013 	strb	r3, [fp, #-19]
    46bc:	ea00000a 	b	46ec <fireFlyLedHandler+0x3bc>
    	}
    }else if ((GPS_Data.status&0xFF)!=3)
    46c0:	e59f3794 	ldr	r3, [pc, #1940]	; 4e5c <fireFlyLedHandler+0xb2c>
    46c4:	e5933028 	ldr	r3, [r3, #40]	; 0x28
    46c8:	e20330ff 	and	r3, r3, #255	; 0xff
    46cc:	e3530003 	cmp	r3, #3
    46d0:	0a000005 	beq	46ec <fireFlyLedHandler+0x3bc>
    {
    	r=255;
    46d4:	e3e03000 	mvn	r3, #0
    46d8:	e54b3015 	strb	r3, [fp, #-21]
    	g=165;
    46dc:	e3e0305a 	mvn	r3, #90	; 0x5a
    46e0:	e54b3014 	strb	r3, [fp, #-20]
    	b=0;
    46e4:	e3a03000 	mov	r3, #0
    46e8:	e54b3013 	strb	r3, [fp, #-19]
    }

	if ((cnt<=100) && (errorFlags))
    46ec:	e59f3760 	ldr	r3, [pc, #1888]	; 4e54 <fireFlyLedHandler+0xb24>
    46f0:	e1d330b0 	ldrh	r3, [r3]
    46f4:	e3530064 	cmp	r3, #100	; 0x64
    46f8:	8a000008 	bhi	4720 <fireFlyLedHandler+0x3f0>
    46fc:	e15b31b2 	ldrh	r3, [fp, #-18]	; 0xffffffee
    4700:	e3530000 	cmp	r3, #0
    4704:	0a000005 	beq	4720 <fireFlyLedHandler+0x3f0>
	{
		r=g=b=0;
    4708:	e3a03000 	mov	r3, #0
    470c:	e54b3013 	strb	r3, [fp, #-19]
    4710:	e55b3013 	ldrb	r3, [fp, #-19]
    4714:	e54b3014 	strb	r3, [fp, #-20]
    4718:	e55b3014 	ldrb	r3, [fp, #-20]
    471c:	e54b3015 	strb	r3, [fp, #-21]
	}

	if ((cnt>100) && (cnt<200) && (errorFlags)) //always signal errors for 1 second.
    4720:	e59f372c 	ldr	r3, [pc, #1836]	; 4e54 <fireFlyLedHandler+0xb24>
    4724:	e1d330b0 	ldrh	r3, [r3]
    4728:	e3530064 	cmp	r3, #100	; 0x64
    472c:	9a0001ba 	bls	4e1c <fireFlyLedHandler+0xaec>
    4730:	e59f371c 	ldr	r3, [pc, #1820]	; 4e54 <fireFlyLedHandler+0xb24>
    4734:	e1d330b0 	ldrh	r3, [r3]
    4738:	e35300c7 	cmp	r3, #199	; 0xc7
    473c:	8a0001b6 	bhi	4e1c <fireFlyLedHandler+0xaec>
    4740:	e15b31b2 	ldrh	r3, [fp, #-18]	; 0xffffffee
    4744:	e3530000 	cmp	r3, #0
    4748:	0a0001b3 	beq	4e1c <fireFlyLedHandler+0xaec>
	{
		//overwrite rgb with error signaling
		if (errorFlags & 0x02) //gyros
    474c:	e15b31b2 	ldrh	r3, [fp, #-18]	; 0xffffffee
    4750:	e2033002 	and	r3, r3, #2
    4754:	e3530000 	cmp	r3, #0
    4758:	0a000027 	beq	47fc <fireFlyLedHandler+0x4cc>
		{
			if (cnt < 125) {
    475c:	e59f36f0 	ldr	r3, [pc, #1776]	; 4e54 <fireFlyLedHandler+0xb24>
    4760:	e1d330b0 	ldrh	r3, [r3]
    4764:	e353007c 	cmp	r3, #124	; 0x7c
    4768:	8a000006 	bhi	4788 <fireFlyLedHandler+0x458>
				r = 0;
    476c:	e3a03000 	mov	r3, #0
    4770:	e54b3015 	strb	r3, [fp, #-21]
				g = 0;
    4774:	e3a03000 	mov	r3, #0
    4778:	e54b3014 	strb	r3, [fp, #-20]
				b = 0;
    477c:	e3a03000 	mov	r3, #0
    4780:	e54b3013 	strb	r3, [fp, #-19]
    4784:	ea0001a4 	b	4e1c <fireFlyLedHandler+0xaec>
			} else if (cnt < 150) {
    4788:	e59f36c4 	ldr	r3, [pc, #1732]	; 4e54 <fireFlyLedHandler+0xb24>
    478c:	e1d330b0 	ldrh	r3, [r3]
    4790:	e3530095 	cmp	r3, #149	; 0x95
    4794:	8a000006 	bhi	47b4 <fireFlyLedHandler+0x484>
				r = 255;
    4798:	e3e03000 	mvn	r3, #0
    479c:	e54b3015 	strb	r3, [fp, #-21]
				g = 0;
    47a0:	e3a03000 	mov	r3, #0
    47a4:	e54b3014 	strb	r3, [fp, #-20]
				b = 0;
    47a8:	e3a03000 	mov	r3, #0
    47ac:	e54b3013 	strb	r3, [fp, #-19]
    47b0:	ea000199 	b	4e1c <fireFlyLedHandler+0xaec>

			} else if (cnt < 175) {
    47b4:	e59f3698 	ldr	r3, [pc, #1688]	; 4e54 <fireFlyLedHandler+0xb24>
    47b8:	e1d330b0 	ldrh	r3, [r3]
    47bc:	e35300ae 	cmp	r3, #174	; 0xae
    47c0:	8a000006 	bhi	47e0 <fireFlyLedHandler+0x4b0>
				r = 0;
    47c4:	e3a03000 	mov	r3, #0
    47c8:	e54b3015 	strb	r3, [fp, #-21]
				g = 0;
    47cc:	e3a03000 	mov	r3, #0
    47d0:	e54b3014 	strb	r3, [fp, #-20]
				b = 0;
    47d4:	e3a03000 	mov	r3, #0
    47d8:	e54b3013 	strb	r3, [fp, #-19]
    47dc:	ea00018e 	b	4e1c <fireFlyLedHandler+0xaec>
			} else {
				r = 255;
    47e0:	e3e03000 	mvn	r3, #0
    47e4:	e54b3015 	strb	r3, [fp, #-21]
				g = 0;
    47e8:	e3a03000 	mov	r3, #0
    47ec:	e54b3014 	strb	r3, [fp, #-20]
				b = 0;
    47f0:	e3a03000 	mov	r3, #0
    47f4:	e54b3013 	strb	r3, [fp, #-19]
    47f8:	ea000187 	b	4e1c <fireFlyLedHandler+0xaec>
			}
		} else if (errorFlags & 0x04) {
    47fc:	e15b31b2 	ldrh	r3, [fp, #-18]	; 0xffffffee
    4800:	e2033004 	and	r3, r3, #4
    4804:	e3530000 	cmp	r3, #0
    4808:	0a000031 	beq	48d4 <fireFlyLedHandler+0x5a4>
			//blink 3x
			if (cnt < 125) {
    480c:	e59f3640 	ldr	r3, [pc, #1600]	; 4e54 <fireFlyLedHandler+0xb24>
    4810:	e1d330b0 	ldrh	r3, [r3]
    4814:	e353007c 	cmp	r3, #124	; 0x7c
    4818:	8a000005 	bhi	4834 <fireFlyLedHandler+0x504>
				r = 255;
    481c:	e3e03000 	mvn	r3, #0
    4820:	e54b3015 	strb	r3, [fp, #-21]
				g = 0;
    4824:	e3a03000 	mov	r3, #0
    4828:	e54b3014 	strb	r3, [fp, #-20]
				b = 0;
    482c:	e3a03000 	mov	r3, #0
    4830:	e54b3013 	strb	r3, [fp, #-19]
			}
			if (cnt < 140) {
    4834:	e59f3618 	ldr	r3, [pc, #1560]	; 4e54 <fireFlyLedHandler+0xb24>
    4838:	e1d330b0 	ldrh	r3, [r3]
    483c:	e353008b 	cmp	r3, #139	; 0x8b
    4840:	8a000006 	bhi	4860 <fireFlyLedHandler+0x530>
				r = 0;
    4844:	e3a03000 	mov	r3, #0
    4848:	e54b3015 	strb	r3, [fp, #-21]
				g = 0;
    484c:	e3a03000 	mov	r3, #0
    4850:	e54b3014 	strb	r3, [fp, #-20]
				b = 0;
    4854:	e3a03000 	mov	r3, #0
    4858:	e54b3013 	strb	r3, [fp, #-19]
    485c:	ea00016e 	b	4e1c <fireFlyLedHandler+0xaec>

			} else if (cnt < 175) {
    4860:	e59f35ec 	ldr	r3, [pc, #1516]	; 4e54 <fireFlyLedHandler+0xb24>
    4864:	e1d330b0 	ldrh	r3, [r3]
    4868:	e35300ae 	cmp	r3, #174	; 0xae
    486c:	8a000006 	bhi	488c <fireFlyLedHandler+0x55c>
				r = 255;
    4870:	e3e03000 	mvn	r3, #0
    4874:	e54b3015 	strb	r3, [fp, #-21]
				g = 0;
    4878:	e3a03000 	mov	r3, #0
    487c:	e54b3014 	strb	r3, [fp, #-20]
				b = 0;
    4880:	e3a03000 	mov	r3, #0
    4884:	e54b3013 	strb	r3, [fp, #-19]
    4888:	ea000163 	b	4e1c <fireFlyLedHandler+0xaec>
			} else if (cnt < 190) {
    488c:	e59f35c0 	ldr	r3, [pc, #1472]	; 4e54 <fireFlyLedHandler+0xb24>
    4890:	e1d330b0 	ldrh	r3, [r3]
    4894:	e35300bd 	cmp	r3, #189	; 0xbd
    4898:	8a000006 	bhi	48b8 <fireFlyLedHandler+0x588>
				r = 0;
    489c:	e3a03000 	mov	r3, #0
    48a0:	e54b3015 	strb	r3, [fp, #-21]
				g = 0;
    48a4:	e3a03000 	mov	r3, #0
    48a8:	e54b3014 	strb	r3, [fp, #-20]
				b = 0;
    48ac:	e3a03000 	mov	r3, #0
    48b0:	e54b3013 	strb	r3, [fp, #-19]
    48b4:	ea000158 	b	4e1c <fireFlyLedHandler+0xaec>
			} else {
				r = 255;
    48b8:	e3e03000 	mvn	r3, #0
    48bc:	e54b3015 	strb	r3, [fp, #-21]
				g = 0;
    48c0:	e3a03000 	mov	r3, #0
    48c4:	e54b3014 	strb	r3, [fp, #-20]
				b = 0;
    48c8:	e3a03000 	mov	r3, #0
    48cc:	e54b3013 	strb	r3, [fp, #-19]
    48d0:	ea000151 	b	4e1c <fireFlyLedHandler+0xaec>
			}
		} else if (errorFlags & 0x08) {
    48d4:	e15b31b2 	ldrh	r3, [fp, #-18]	; 0xffffffee
    48d8:	e2033008 	and	r3, r3, #8
    48dc:	e3530000 	cmp	r3, #0
    48e0:	0a000082 	beq	4af0 <fireFlyLedHandler+0x7c0>
			if ((ceCnt < 5) && (cnt == 195))
    48e4:	e59f355c 	ldr	r3, [pc, #1372]	; 4e48 <fireFlyLedHandler+0xb18>
    48e8:	e5d33000 	ldrb	r3, [r3]
    48ec:	e3530004 	cmp	r3, #4
    48f0:	8a000009 	bhi	491c <fireFlyLedHandler+0x5ec>
    48f4:	e59f3558 	ldr	r3, [pc, #1368]	; 4e54 <fireFlyLedHandler+0xb24>
    48f8:	e1d330b0 	ldrh	r3, [r3]
    48fc:	e35300c3 	cmp	r3, #195	; 0xc3
    4900:	1a000005 	bne	491c <fireFlyLedHandler+0x5ec>
				ceCnt++;
    4904:	e59f353c 	ldr	r3, [pc, #1340]	; 4e48 <fireFlyLedHandler+0xb18>
    4908:	e5d33000 	ldrb	r3, [r3]
    490c:	e2833001 	add	r3, r3, #1
    4910:	e20330ff 	and	r3, r3, #255	; 0xff
    4914:	e59f252c 	ldr	r2, [pc, #1324]	; 4e48 <fireFlyLedHandler+0xb18>
    4918:	e5c23000 	strb	r3, [r2]
			//blink 5x
			if (cnt < 105) {
    491c:	e59f3530 	ldr	r3, [pc, #1328]	; 4e54 <fireFlyLedHandler+0xb24>
    4920:	e1d330b0 	ldrh	r3, [r3]
    4924:	e3530068 	cmp	r3, #104	; 0x68
    4928:	8a000006 	bhi	4948 <fireFlyLedHandler+0x618>
				r = 0;
    492c:	e3a03000 	mov	r3, #0
    4930:	e54b3015 	strb	r3, [fp, #-21]
				g = 0;
    4934:	e3a03000 	mov	r3, #0
    4938:	e54b3014 	strb	r3, [fp, #-20]
				b = 0;
    493c:	e3a03000 	mov	r3, #0
    4940:	e54b3013 	strb	r3, [fp, #-19]
    4944:	ea000134 	b	4e1c <fireFlyLedHandler+0xaec>
			} else if (cnt < 115) {
    4948:	e59f3504 	ldr	r3, [pc, #1284]	; 4e54 <fireFlyLedHandler+0xb24>
    494c:	e1d330b0 	ldrh	r3, [r3]
    4950:	e3530072 	cmp	r3, #114	; 0x72
    4954:	8a000006 	bhi	4974 <fireFlyLedHandler+0x644>
				r = 255;
    4958:	e3e03000 	mvn	r3, #0
    495c:	e54b3015 	strb	r3, [fp, #-21]
				g = 0;
    4960:	e3a03000 	mov	r3, #0
    4964:	e54b3014 	strb	r3, [fp, #-20]
				b = 0;
    4968:	e3a03000 	mov	r3, #0
    496c:	e54b3013 	strb	r3, [fp, #-19]
    4970:	ea000129 	b	4e1c <fireFlyLedHandler+0xaec>
			} else if (cnt < 125) {
    4974:	e59f34d8 	ldr	r3, [pc, #1240]	; 4e54 <fireFlyLedHandler+0xb24>
    4978:	e1d330b0 	ldrh	r3, [r3]
    497c:	e353007c 	cmp	r3, #124	; 0x7c
    4980:	8a000006 	bhi	49a0 <fireFlyLedHandler+0x670>
				r = 0;
    4984:	e3a03000 	mov	r3, #0
    4988:	e54b3015 	strb	r3, [fp, #-21]
				g = 0;
    498c:	e3a03000 	mov	r3, #0
    4990:	e54b3014 	strb	r3, [fp, #-20]
				b = 0;
    4994:	e3a03000 	mov	r3, #0
    4998:	e54b3013 	strb	r3, [fp, #-19]
    499c:	ea00011e 	b	4e1c <fireFlyLedHandler+0xaec>
			} else if (cnt < 135) {
    49a0:	e59f34ac 	ldr	r3, [pc, #1196]	; 4e54 <fireFlyLedHandler+0xb24>
    49a4:	e1d330b0 	ldrh	r3, [r3]
    49a8:	e3530086 	cmp	r3, #134	; 0x86
    49ac:	8a000006 	bhi	49cc <fireFlyLedHandler+0x69c>
				r = 255;
    49b0:	e3e03000 	mvn	r3, #0
    49b4:	e54b3015 	strb	r3, [fp, #-21]
				g = 0;
    49b8:	e3a03000 	mov	r3, #0
    49bc:	e54b3014 	strb	r3, [fp, #-20]
				b = 0;
    49c0:	e3a03000 	mov	r3, #0
    49c4:	e54b3013 	strb	r3, [fp, #-19]
    49c8:	ea000113 	b	4e1c <fireFlyLedHandler+0xaec>
			} else if (cnt < 145) {
    49cc:	e59f3480 	ldr	r3, [pc, #1152]	; 4e54 <fireFlyLedHandler+0xb24>
    49d0:	e1d330b0 	ldrh	r3, [r3]
    49d4:	e3530090 	cmp	r3, #144	; 0x90
    49d8:	8a000006 	bhi	49f8 <fireFlyLedHandler+0x6c8>
				r = 0;
    49dc:	e3a03000 	mov	r3, #0
    49e0:	e54b3015 	strb	r3, [fp, #-21]
				g = 0;
    49e4:	e3a03000 	mov	r3, #0
    49e8:	e54b3014 	strb	r3, [fp, #-20]
				b = 0;
    49ec:	e3a03000 	mov	r3, #0
    49f0:	e54b3013 	strb	r3, [fp, #-19]
    49f4:	ea000108 	b	4e1c <fireFlyLedHandler+0xaec>
			} else if (cnt < 155) {
    49f8:	e59f3454 	ldr	r3, [pc, #1108]	; 4e54 <fireFlyLedHandler+0xb24>
    49fc:	e1d330b0 	ldrh	r3, [r3]
    4a00:	e353009a 	cmp	r3, #154	; 0x9a
    4a04:	8a000006 	bhi	4a24 <fireFlyLedHandler+0x6f4>
				r = 255;
    4a08:	e3e03000 	mvn	r3, #0
    4a0c:	e54b3015 	strb	r3, [fp, #-21]
				g = 0;
    4a10:	e3a03000 	mov	r3, #0
    4a14:	e54b3014 	strb	r3, [fp, #-20]
				b = 0;
    4a18:	e3a03000 	mov	r3, #0
    4a1c:	e54b3013 	strb	r3, [fp, #-19]
    4a20:	ea0000fd 	b	4e1c <fireFlyLedHandler+0xaec>
			} else if (cnt < 165) {
    4a24:	e59f3428 	ldr	r3, [pc, #1064]	; 4e54 <fireFlyLedHandler+0xb24>
    4a28:	e1d330b0 	ldrh	r3, [r3]
    4a2c:	e35300a4 	cmp	r3, #164	; 0xa4
    4a30:	8a000006 	bhi	4a50 <fireFlyLedHandler+0x720>
				r = 0;
    4a34:	e3a03000 	mov	r3, #0
    4a38:	e54b3015 	strb	r3, [fp, #-21]
				g = 0;
    4a3c:	e3a03000 	mov	r3, #0
    4a40:	e54b3014 	strb	r3, [fp, #-20]
				b = 0;
    4a44:	e3a03000 	mov	r3, #0
    4a48:	e54b3013 	strb	r3, [fp, #-19]
    4a4c:	ea0000f2 	b	4e1c <fireFlyLedHandler+0xaec>
			} else if (cnt < 175) {
    4a50:	e59f33fc 	ldr	r3, [pc, #1020]	; 4e54 <fireFlyLedHandler+0xb24>
    4a54:	e1d330b0 	ldrh	r3, [r3]
    4a58:	e35300ae 	cmp	r3, #174	; 0xae
    4a5c:	8a000006 	bhi	4a7c <fireFlyLedHandler+0x74c>
				r = 255;
    4a60:	e3e03000 	mvn	r3, #0
    4a64:	e54b3015 	strb	r3, [fp, #-21]
				g = 0;
    4a68:	e3a03000 	mov	r3, #0
    4a6c:	e54b3014 	strb	r3, [fp, #-20]
				b = 0;
    4a70:	e3a03000 	mov	r3, #0
    4a74:	e54b3013 	strb	r3, [fp, #-19]
    4a78:	ea0000e7 	b	4e1c <fireFlyLedHandler+0xaec>
			} else if (cnt < 185) {
    4a7c:	e59f33d0 	ldr	r3, [pc, #976]	; 4e54 <fireFlyLedHandler+0xb24>
    4a80:	e1d330b0 	ldrh	r3, [r3]
    4a84:	e35300b8 	cmp	r3, #184	; 0xb8
    4a88:	8a000006 	bhi	4aa8 <fireFlyLedHandler+0x778>
				r = 0;
    4a8c:	e3a03000 	mov	r3, #0
    4a90:	e54b3015 	strb	r3, [fp, #-21]
				g = 0;
    4a94:	e3a03000 	mov	r3, #0
    4a98:	e54b3014 	strb	r3, [fp, #-20]
				b = 0;
    4a9c:	e3a03000 	mov	r3, #0
    4aa0:	e54b3013 	strb	r3, [fp, #-19]
    4aa4:	ea0000dc 	b	4e1c <fireFlyLedHandler+0xaec>
			} else if (cnt < 195) {
    4aa8:	e59f33a4 	ldr	r3, [pc, #932]	; 4e54 <fireFlyLedHandler+0xb24>
    4aac:	e1d330b0 	ldrh	r3, [r3]
    4ab0:	e35300c2 	cmp	r3, #194	; 0xc2
    4ab4:	8a000006 	bhi	4ad4 <fireFlyLedHandler+0x7a4>
				r = 255;
    4ab8:	e3e03000 	mvn	r3, #0
    4abc:	e54b3015 	strb	r3, [fp, #-21]
				g = 0;
    4ac0:	e3a03000 	mov	r3, #0
    4ac4:	e54b3014 	strb	r3, [fp, #-20]
				b = 0;
    4ac8:	e3a03000 	mov	r3, #0
    4acc:	e54b3013 	strb	r3, [fp, #-19]
    4ad0:	ea0000d1 	b	4e1c <fireFlyLedHandler+0xaec>
			} else {
				r = 0;
    4ad4:	e3a03000 	mov	r3, #0
    4ad8:	e54b3015 	strb	r3, [fp, #-21]
				g = 0;
    4adc:	e3a03000 	mov	r3, #0
    4ae0:	e54b3014 	strb	r3, [fp, #-20]
				b = 0;
    4ae4:	e3a03000 	mov	r3, #0
    4ae8:	e54b3013 	strb	r3, [fp, #-19]
    4aec:	ea0000ca 	b	4e1c <fireFlyLedHandler+0xaec>
			}
		} else if (errorFlags & 0x10) {
    4af0:	e15b31b2 	ldrh	r3, [fp, #-18]	; 0xffffffee
    4af4:	e2033010 	and	r3, r3, #16
    4af8:	e3530000 	cmp	r3, #0
    4afc:	0a00006c 	beq	4cb4 <fireFlyLedHandler+0x984>
			if ((mincCnt < 5) && (cnt == 195))
    4b00:	e59f3344 	ldr	r3, [pc, #836]	; 4e4c <fireFlyLedHandler+0xb1c>
    4b04:	e5d33000 	ldrb	r3, [r3]
    4b08:	e3530004 	cmp	r3, #4
    4b0c:	8a000009 	bhi	4b38 <fireFlyLedHandler+0x808>
    4b10:	e59f333c 	ldr	r3, [pc, #828]	; 4e54 <fireFlyLedHandler+0xb24>
    4b14:	e1d330b0 	ldrh	r3, [r3]
    4b18:	e35300c3 	cmp	r3, #195	; 0xc3
    4b1c:	1a000005 	bne	4b38 <fireFlyLedHandler+0x808>
				mincCnt++;
    4b20:	e59f3324 	ldr	r3, [pc, #804]	; 4e4c <fireFlyLedHandler+0xb1c>
    4b24:	e5d33000 	ldrb	r3, [r3]
    4b28:	e2833001 	add	r3, r3, #1
    4b2c:	e20330ff 	and	r3, r3, #255	; 0xff
    4b30:	e59f2314 	ldr	r2, [pc, #788]	; 4e4c <fireFlyLedHandler+0xb1c>
    4b34:	e5c23000 	strb	r3, [r2]
			//blink 4x
			if (cnt < 105) {
    4b38:	e59f3314 	ldr	r3, [pc, #788]	; 4e54 <fireFlyLedHandler+0xb24>
    4b3c:	e1d330b0 	ldrh	r3, [r3]
    4b40:	e3530068 	cmp	r3, #104	; 0x68
    4b44:	8a000006 	bhi	4b64 <fireFlyLedHandler+0x834>
				r = 0;
    4b48:	e3a03000 	mov	r3, #0
    4b4c:	e54b3015 	strb	r3, [fp, #-21]
				g = 0;
    4b50:	e3a03000 	mov	r3, #0
    4b54:	e54b3014 	strb	r3, [fp, #-20]
				b = 0;
    4b58:	e3a03000 	mov	r3, #0
    4b5c:	e54b3013 	strb	r3, [fp, #-19]
    4b60:	ea0000ad 	b	4e1c <fireFlyLedHandler+0xaec>
			} else if (cnt < 115) {
    4b64:	e59f32e8 	ldr	r3, [pc, #744]	; 4e54 <fireFlyLedHandler+0xb24>
    4b68:	e1d330b0 	ldrh	r3, [r3]
    4b6c:	e3530072 	cmp	r3, #114	; 0x72
    4b70:	8a000006 	bhi	4b90 <fireFlyLedHandler+0x860>
				r = 0;
    4b74:	e3a03000 	mov	r3, #0
    4b78:	e54b3015 	strb	r3, [fp, #-21]
				g = 0;
    4b7c:	e3a03000 	mov	r3, #0
    4b80:	e54b3014 	strb	r3, [fp, #-20]
				b = 255;
    4b84:	e3e03000 	mvn	r3, #0
    4b88:	e54b3013 	strb	r3, [fp, #-19]
    4b8c:	ea0000a2 	b	4e1c <fireFlyLedHandler+0xaec>
			} else if (cnt < 125) {
    4b90:	e59f32bc 	ldr	r3, [pc, #700]	; 4e54 <fireFlyLedHandler+0xb24>
    4b94:	e1d330b0 	ldrh	r3, [r3]
    4b98:	e353007c 	cmp	r3, #124	; 0x7c
    4b9c:	8a000006 	bhi	4bbc <fireFlyLedHandler+0x88c>
				r = 0;
    4ba0:	e3a03000 	mov	r3, #0
    4ba4:	e54b3015 	strb	r3, [fp, #-21]
				g = 0;
    4ba8:	e3a03000 	mov	r3, #0
    4bac:	e54b3014 	strb	r3, [fp, #-20]
				b = 0;
    4bb0:	e3a03000 	mov	r3, #0
    4bb4:	e54b3013 	strb	r3, [fp, #-19]
    4bb8:	ea000097 	b	4e1c <fireFlyLedHandler+0xaec>
			} else if (cnt < 135) {
    4bbc:	e59f3290 	ldr	r3, [pc, #656]	; 4e54 <fireFlyLedHandler+0xb24>
    4bc0:	e1d330b0 	ldrh	r3, [r3]
    4bc4:	e3530086 	cmp	r3, #134	; 0x86
    4bc8:	8a000006 	bhi	4be8 <fireFlyLedHandler+0x8b8>
				r = 0;
    4bcc:	e3a03000 	mov	r3, #0
    4bd0:	e54b3015 	strb	r3, [fp, #-21]
				g = 0;
    4bd4:	e3a03000 	mov	r3, #0
    4bd8:	e54b3014 	strb	r3, [fp, #-20]
				b = 255;
    4bdc:	e3e03000 	mvn	r3, #0
    4be0:	e54b3013 	strb	r3, [fp, #-19]
    4be4:	ea00008c 	b	4e1c <fireFlyLedHandler+0xaec>
			} else if (cnt < 145) {
    4be8:	e59f3264 	ldr	r3, [pc, #612]	; 4e54 <fireFlyLedHandler+0xb24>
    4bec:	e1d330b0 	ldrh	r3, [r3]
    4bf0:	e3530090 	cmp	r3, #144	; 0x90
    4bf4:	8a000006 	bhi	4c14 <fireFlyLedHandler+0x8e4>
				r = 0;
    4bf8:	e3a03000 	mov	r3, #0
    4bfc:	e54b3015 	strb	r3, [fp, #-21]
				g = 0;
    4c00:	e3a03000 	mov	r3, #0
    4c04:	e54b3014 	strb	r3, [fp, #-20]
				b = 0;
    4c08:	e3a03000 	mov	r3, #0
    4c0c:	e54b3013 	strb	r3, [fp, #-19]
    4c10:	ea000081 	b	4e1c <fireFlyLedHandler+0xaec>
			} else if (cnt < 155) {
    4c14:	e59f3238 	ldr	r3, [pc, #568]	; 4e54 <fireFlyLedHandler+0xb24>
    4c18:	e1d330b0 	ldrh	r3, [r3]
    4c1c:	e353009a 	cmp	r3, #154	; 0x9a
    4c20:	8a000006 	bhi	4c40 <fireFlyLedHandler+0x910>
				r = 0;
    4c24:	e3a03000 	mov	r3, #0
    4c28:	e54b3015 	strb	r3, [fp, #-21]
				g = 0;
    4c2c:	e3a03000 	mov	r3, #0
    4c30:	e54b3014 	strb	r3, [fp, #-20]
				b = 255;
    4c34:	e3e03000 	mvn	r3, #0
    4c38:	e54b3013 	strb	r3, [fp, #-19]
    4c3c:	ea000076 	b	4e1c <fireFlyLedHandler+0xaec>
			} else if (cnt < 165) {
    4c40:	e59f320c 	ldr	r3, [pc, #524]	; 4e54 <fireFlyLedHandler+0xb24>
    4c44:	e1d330b0 	ldrh	r3, [r3]
    4c48:	e35300a4 	cmp	r3, #164	; 0xa4
    4c4c:	8a000006 	bhi	4c6c <fireFlyLedHandler+0x93c>
				r = 0;
    4c50:	e3a03000 	mov	r3, #0
    4c54:	e54b3015 	strb	r3, [fp, #-21]
				g = 0;
    4c58:	e3a03000 	mov	r3, #0
    4c5c:	e54b3014 	strb	r3, [fp, #-20]
				b = 0;
    4c60:	e3a03000 	mov	r3, #0
    4c64:	e54b3013 	strb	r3, [fp, #-19]
    4c68:	ea00006b 	b	4e1c <fireFlyLedHandler+0xaec>
			} else if (cnt < 175) {
    4c6c:	e59f31e0 	ldr	r3, [pc, #480]	; 4e54 <fireFlyLedHandler+0xb24>
    4c70:	e1d330b0 	ldrh	r3, [r3]
    4c74:	e35300ae 	cmp	r3, #174	; 0xae
    4c78:	8a000006 	bhi	4c98 <fireFlyLedHandler+0x968>
				r = 0;
    4c7c:	e3a03000 	mov	r3, #0
    4c80:	e54b3015 	strb	r3, [fp, #-21]
				g = 0;
    4c84:	e3a03000 	mov	r3, #0
    4c88:	e54b3014 	strb	r3, [fp, #-20]
				b = 255;
    4c8c:	e3e03000 	mvn	r3, #0
    4c90:	e54b3013 	strb	r3, [fp, #-19]
    4c94:	ea000060 	b	4e1c <fireFlyLedHandler+0xaec>
			} else {
				r = 0;
    4c98:	e3a03000 	mov	r3, #0
    4c9c:	e54b3015 	strb	r3, [fp, #-21]
				g = 0;
    4ca0:	e3a03000 	mov	r3, #0
    4ca4:	e54b3014 	strb	r3, [fp, #-20]
				b = 0;
    4ca8:	e3a03000 	mov	r3, #0
    4cac:	e54b3013 	strb	r3, [fp, #-19]
    4cb0:	ea000059 	b	4e1c <fireFlyLedHandler+0xaec>
			}
		} else if (errorFlags & 0x20) {
    4cb4:	e15b31b2 	ldrh	r3, [fp, #-18]	; 0xffffffee
    4cb8:	e2033020 	and	r3, r3, #32
    4cbc:	e3530000 	cmp	r3, #0
    4cc0:	0a000055 	beq	4e1c <fireFlyLedHandler+0xaec>
			if ((mfsCnt < 5) && (cnt == 195))
    4cc4:	e59f3184 	ldr	r3, [pc, #388]	; 4e50 <fireFlyLedHandler+0xb20>
    4cc8:	e5d33000 	ldrb	r3, [r3]
    4ccc:	e3530004 	cmp	r3, #4
    4cd0:	8a000009 	bhi	4cfc <fireFlyLedHandler+0x9cc>
    4cd4:	e59f3178 	ldr	r3, [pc, #376]	; 4e54 <fireFlyLedHandler+0xb24>
    4cd8:	e1d330b0 	ldrh	r3, [r3]
    4cdc:	e35300c3 	cmp	r3, #195	; 0xc3
    4ce0:	1a000005 	bne	4cfc <fireFlyLedHandler+0x9cc>
				mfsCnt++;
    4ce4:	e59f3164 	ldr	r3, [pc, #356]	; 4e50 <fireFlyLedHandler+0xb20>
    4ce8:	e5d33000 	ldrb	r3, [r3]
    4cec:	e2833001 	add	r3, r3, #1
    4cf0:	e20330ff 	and	r3, r3, #255	; 0xff
    4cf4:	e59f2154 	ldr	r2, [pc, #340]	; 4e50 <fireFlyLedHandler+0xb20>
    4cf8:	e5c23000 	strb	r3, [r2]
			//blink 3x !
			if (cnt < 105) {
    4cfc:	e59f3150 	ldr	r3, [pc, #336]	; 4e54 <fireFlyLedHandler+0xb24>
    4d00:	e1d330b0 	ldrh	r3, [r3]
    4d04:	e3530068 	cmp	r3, #104	; 0x68
    4d08:	8a000006 	bhi	4d28 <fireFlyLedHandler+0x9f8>
				r = 0;
    4d0c:	e3a03000 	mov	r3, #0
    4d10:	e54b3015 	strb	r3, [fp, #-21]
				g = 0;
    4d14:	e3a03000 	mov	r3, #0
    4d18:	e54b3014 	strb	r3, [fp, #-20]
				b = 0;
    4d1c:	e3a03000 	mov	r3, #0
    4d20:	e54b3013 	strb	r3, [fp, #-19]
    4d24:	ea00003c 	b	4e1c <fireFlyLedHandler+0xaec>
			} else if (cnt < 115) {
    4d28:	e59f3124 	ldr	r3, [pc, #292]	; 4e54 <fireFlyLedHandler+0xb24>
    4d2c:	e1d330b0 	ldrh	r3, [r3]
    4d30:	e3530072 	cmp	r3, #114	; 0x72
    4d34:	8a000006 	bhi	4d54 <fireFlyLedHandler+0xa24>
				r = 0;
    4d38:	e3a03000 	mov	r3, #0
    4d3c:	e54b3015 	strb	r3, [fp, #-21]
				g = 0;
    4d40:	e3a03000 	mov	r3, #0
    4d44:	e54b3014 	strb	r3, [fp, #-20]
				b = 255;
    4d48:	e3e03000 	mvn	r3, #0
    4d4c:	e54b3013 	strb	r3, [fp, #-19]
    4d50:	ea000031 	b	4e1c <fireFlyLedHandler+0xaec>
			} else if (cnt < 125) {
    4d54:	e59f30f8 	ldr	r3, [pc, #248]	; 4e54 <fireFlyLedHandler+0xb24>
    4d58:	e1d330b0 	ldrh	r3, [r3]
    4d5c:	e353007c 	cmp	r3, #124	; 0x7c
    4d60:	8a000006 	bhi	4d80 <fireFlyLedHandler+0xa50>
				r = 0;
    4d64:	e3a03000 	mov	r3, #0
    4d68:	e54b3015 	strb	r3, [fp, #-21]
				g = 0;
    4d6c:	e3a03000 	mov	r3, #0
    4d70:	e54b3014 	strb	r3, [fp, #-20]
				b = 0;
    4d74:	e3a03000 	mov	r3, #0
    4d78:	e54b3013 	strb	r3, [fp, #-19]
    4d7c:	ea000026 	b	4e1c <fireFlyLedHandler+0xaec>
			} else if (cnt < 135) {
    4d80:	e59f30cc 	ldr	r3, [pc, #204]	; 4e54 <fireFlyLedHandler+0xb24>
    4d84:	e1d330b0 	ldrh	r3, [r3]
    4d88:	e3530086 	cmp	r3, #134	; 0x86
    4d8c:	8a000006 	bhi	4dac <fireFlyLedHandler+0xa7c>
				r = 0;
    4d90:	e3a03000 	mov	r3, #0
    4d94:	e54b3015 	strb	r3, [fp, #-21]
				g = 0;
    4d98:	e3a03000 	mov	r3, #0
    4d9c:	e54b3014 	strb	r3, [fp, #-20]
				b = 255;
    4da0:	e3e03000 	mvn	r3, #0
    4da4:	e54b3013 	strb	r3, [fp, #-19]
    4da8:	ea00001b 	b	4e1c <fireFlyLedHandler+0xaec>
			} else if (cnt < 145) {
    4dac:	e59f30a0 	ldr	r3, [pc, #160]	; 4e54 <fireFlyLedHandler+0xb24>
    4db0:	e1d330b0 	ldrh	r3, [r3]
    4db4:	e3530090 	cmp	r3, #144	; 0x90
    4db8:	8a000006 	bhi	4dd8 <fireFlyLedHandler+0xaa8>
				r = 0;
    4dbc:	e3a03000 	mov	r3, #0
    4dc0:	e54b3015 	strb	r3, [fp, #-21]
				g = 0;
    4dc4:	e3a03000 	mov	r3, #0
    4dc8:	e54b3014 	strb	r3, [fp, #-20]
				b = 0;
    4dcc:	e3a03000 	mov	r3, #0
    4dd0:	e54b3013 	strb	r3, [fp, #-19]
    4dd4:	ea000010 	b	4e1c <fireFlyLedHandler+0xaec>
			} else if (cnt < 155) {
    4dd8:	e59f3074 	ldr	r3, [pc, #116]	; 4e54 <fireFlyLedHandler+0xb24>
    4ddc:	e1d330b0 	ldrh	r3, [r3]
    4de0:	e353009a 	cmp	r3, #154	; 0x9a
    4de4:	8a000006 	bhi	4e04 <fireFlyLedHandler+0xad4>
				r = 0;
    4de8:	e3a03000 	mov	r3, #0
    4dec:	e54b3015 	strb	r3, [fp, #-21]
				g = 0;
    4df0:	e3a03000 	mov	r3, #0
    4df4:	e54b3014 	strb	r3, [fp, #-20]
				b = 255;
    4df8:	e3e03000 	mvn	r3, #0
    4dfc:	e54b3013 	strb	r3, [fp, #-19]
    4e00:	ea000005 	b	4e1c <fireFlyLedHandler+0xaec>
			} else {
				r = 0;
    4e04:	e3a03000 	mov	r3, #0
    4e08:	e54b3015 	strb	r3, [fp, #-21]
				g = 0;
    4e0c:	e3a03000 	mov	r3, #0
    4e10:	e54b3014 	strb	r3, [fp, #-20]
				b = 0;
    4e14:	e3a03000 	mov	r3, #0
    4e18:	e54b3013 	strb	r3, [fp, #-19]
			}
		}
	}
	I2C1_setRGBLed(r, g, b);
    4e1c:	e55b3015 	ldrb	r3, [fp, #-21]
    4e20:	e55b2014 	ldrb	r2, [fp, #-20]
    4e24:	e55bc013 	ldrb	ip, [fp, #-19]
    4e28:	e1a00003 	mov	r0, r3
    4e2c:	e1a01002 	mov	r1, r2
    4e30:	e1a0200c 	mov	r2, ip
    4e34:	eb00000c 	bl	4e6c <I2C1_setRGBLed>
}
    4e38:	e24bd00c 	sub	sp, fp, #12
    4e3c:	e89d6800 	ldm	sp, {fp, sp, lr}
    4e40:	e12fff1e 	bx	lr
    4e44:	40001700 	.word	0x40001700
    4e48:	40000a21 	.word	0x40000a21
    4e4c:	40000a22 	.word	0x40000a22
    4e50:	40000a23 	.word	0x40000a23
    4e54:	40000a24 	.word	0x40000a24
    4e58:	400009e0 	.word	0x400009e0
    4e5c:	400017b4 	.word	0x400017b4
    4e60:	40001984 	.word	0x40001984
    4e64:	aaaaaaab 	.word	0xaaaaaaab
    4e68:	cccccccd 	.word	0xcccccccd

00004e6c <I2C1_setRGBLed>:


char I2C1_setRGBLed(unsigned char r,unsigned char g,unsigned char b)
{
    4e6c:	e1a0c00d 	mov	ip, sp
    4e70:	e92dd800 	push	{fp, ip, lr, pc}
    4e74:	e24cb004 	sub	fp, ip, #4
    4e78:	e24dd010 	sub	sp, sp, #16
    4e7c:	e1a03000 	mov	r3, r0
    4e80:	e54b3010 	strb	r3, [fp, #-16]
    4e84:	e1a03001 	mov	r3, r1
    4e88:	e54b3014 	strb	r3, [fp, #-20]
    4e8c:	e1a03002 	mov	r3, r2
    4e90:	e54b3018 	strb	r3, [fp, #-24]
	if ((I2C1MasterState == I2C_STARTED) || (I2C1MasterState == DATA_ACK))
    4e94:	e59f30c4 	ldr	r3, [pc, #196]	; 4f60 <I2C1_setRGBLed+0xf4>
    4e98:	e5933000 	ldr	r3, [r3]
    4e9c:	e3530001 	cmp	r3, #1
    4ea0:	0a000003 	beq	4eb4 <I2C1_setRGBLed+0x48>
    4ea4:	e59f30b4 	ldr	r3, [pc, #180]	; 4f60 <I2C1_setRGBLed+0xf4>
    4ea8:	e5933000 	ldr	r3, [r3]
    4eac:	e3530004 	cmp	r3, #4
    4eb0:	1a000002 	bne	4ec0 <I2C1_setRGBLed+0x54>
			return I2C_ERROR_BUSBUSY;
    4eb4:	e3a03005 	mov	r3, #5
    4eb8:	e50b301c 	str	r3, [fp, #-28]
    4ebc:	ea000022 	b	4f4c <I2C1_setRGBLed+0xe0>
	WrIndex1=0;
    4ec0:	e59f209c 	ldr	r2, [pc, #156]	; 4f64 <I2C1_setRGBLed+0xf8>
    4ec4:	e3a03000 	mov	r3, #0
    4ec8:	e5823000 	str	r3, [r2]
	I2C1WriteLength = 5;
    4ecc:	e59f2094 	ldr	r2, [pc, #148]	; 4f68 <I2C1_setRGBLed+0xfc>
    4ed0:	e3a03005 	mov	r3, #5
    4ed4:	e5823000 	str	r3, [r2]
	I2C1MasterBuffer[0] = 0x30;	//address
    4ed8:	e59f208c 	ldr	r2, [pc, #140]	; 4f6c <I2C1_setRGBLed+0x100>
    4edc:	e3a03030 	mov	r3, #48	; 0x30
    4ee0:	e5c23000 	strb	r3, [r2]
    I2C1MasterBuffer[1] = r;
    4ee4:	e59f2080 	ldr	r2, [pc, #128]	; 4f6c <I2C1_setRGBLed+0x100>
    4ee8:	e55b3010 	ldrb	r3, [fp, #-16]
    4eec:	e5c23001 	strb	r3, [r2, #1]
    I2C1MasterBuffer[2] = g;
    4ef0:	e59f2074 	ldr	r2, [pc, #116]	; 4f6c <I2C1_setRGBLed+0x100>
    4ef4:	e55b3014 	ldrb	r3, [fp, #-20]
    4ef8:	e5c23002 	strb	r3, [r2, #2]
    I2C1MasterBuffer[3] = b;
    4efc:	e59f2068 	ldr	r2, [pc, #104]	; 4f6c <I2C1_setRGBLed+0x100>
    4f00:	e55b3018 	ldrb	r3, [fp, #-24]
    4f04:	e5c23003 	strb	r3, [r2, #3]
    I2C1MasterBuffer[4] = 255-(unsigned char)(r+g+b);
    4f08:	e55b2010 	ldrb	r2, [fp, #-16]
    4f0c:	e55b3014 	ldrb	r3, [fp, #-20]
    4f10:	e0823003 	add	r3, r2, r3
    4f14:	e20320ff 	and	r2, r3, #255	; 0xff
    4f18:	e55b3018 	ldrb	r3, [fp, #-24]
    4f1c:	e0823003 	add	r3, r2, r3
    4f20:	e20330ff 	and	r3, r3, #255	; 0xff
    4f24:	e1e03003 	mvn	r3, r3
    4f28:	e20330ff 	and	r3, r3, #255	; 0xff
    4f2c:	e59f2038 	ldr	r2, [pc, #56]	; 4f6c <I2C1_setRGBLed+0x100>
    4f30:	e5c23004 	strb	r3, [r2, #4]

    I2C1MasterState = I2C_STARTED;
    4f34:	e59f2024 	ldr	r2, [pc, #36]	; 4f60 <I2C1_setRGBLed+0xf4>
    4f38:	e3a03001 	mov	r3, #1
    4f3c:	e5823000 	str	r3, [r2]
    I2C1Engine();
    4f40:	eb000027 	bl	4fe4 <I2C1Engine>

    return 0;
    4f44:	e3a03000 	mov	r3, #0
    4f48:	e50b301c 	str	r3, [fp, #-28]
    4f4c:	e51b301c 	ldr	r3, [fp, #-28]
}
    4f50:	e1a00003 	mov	r0, r3
    4f54:	e24bd00c 	sub	sp, fp, #12
    4f58:	e89d6800 	ldm	sp, {fp, sp, lr}
    4f5c:	e12fff1e 	bx	lr
    4f60:	40000a14 	.word	0x40000a14
    4f64:	40000a1c 	.word	0x40000a1c
    4f68:	40001bd8 	.word	0x40001bd8
    4f6c:	40001bdc 	.word	0x40001bdc

00004f70 <I2C1Init>:



void I2C1Init(void)
{
    4f70:	e1a0c00d 	mov	ip, sp
    4f74:	e92dd800 	push	{fp, ip, lr, pc}
    4f78:	e24cb004 	sub	fp, ip, #4
    /*--- Clear flags ---*/
    I21CONCLR = I2CONCLR_AAC | I2CONCLR_SIC | I2CONCLR_STAC | I2CONCLR_I2ENC;
    4f7c:	e3a0320e 	mov	r3, #-536870912	; 0xe0000000
    4f80:	e2833917 	add	r3, r3, #376832	; 0x5c000
    4f84:	e2833018 	add	r3, r3, #24
    4f88:	e3a0206c 	mov	r2, #108	; 0x6c
    4f8c:	e5832000 	str	r2, [r3]

    /*--- Reset registers ---*/
    I21SCLL   = I21SCLL_SCLL;
    4f90:	e3a0320e 	mov	r3, #-536870912	; 0xe0000000
    4f94:	e2833917 	add	r3, r3, #376832	; 0x5c000
    4f98:	e2833014 	add	r3, r3, #20
    4f9c:	e3a02c02 	mov	r2, #512	; 0x200
    4fa0:	e5832000 	str	r2, [r3]
    I21SCLH   = I21SCLH_SCLH;
    4fa4:	e3a0320e 	mov	r3, #-536870912	; 0xe0000000
    4fa8:	e2833917 	add	r3, r3, #376832	; 0x5c000
    4fac:	e2833010 	add	r3, r3, #16
    4fb0:	e3a02c02 	mov	r2, #512	; 0x200
    4fb4:	e5832000 	str	r2, [r3]

    install_irq( I2C1_INT, (void *) I2C1MasterHandler );
    4fb8:	e3a00013 	mov	r0, #19
    4fbc:	e59f101c 	ldr	r1, [pc, #28]	; 4fe0 <I2C1Init+0x70>
    4fc0:	eb00006a 	bl	5170 <install_irq>
    I21CONSET = I2CONSET_I2EN;
    4fc4:	e3a0320e 	mov	r3, #-536870912	; 0xe0000000
    4fc8:	e2833917 	add	r3, r3, #376832	; 0x5c000
    4fcc:	e3a02040 	mov	r2, #64	; 0x40
    4fd0:	e5832000 	str	r2, [r3]
}
    4fd4:	e24bd00c 	sub	sp, fp, #12
    4fd8:	e89d6800 	ldm	sp, {fp, sp, lr}
    4fdc:	e12fff1e 	bx	lr
    4fe0:	0000403c 	.word	0x0000403c

00004fe4 <I2C1Engine>:

unsigned int I2C1Engine( void )
{
    4fe4:	e1a0c00d 	mov	ip, sp
    4fe8:	e92dd800 	push	{fp, ip, lr, pc}
    4fec:	e24cb004 	sub	fp, ip, #4
	I21CONSET = I2CONSET_STO;      /* Set Stop flag */
    4ff0:	e3a0320e 	mov	r3, #-536870912	; 0xe0000000
    4ff4:	e2833917 	add	r3, r3, #376832	; 0x5c000
    4ff8:	e3a02010 	mov	r2, #16
    4ffc:	e5832000 	str	r2, [r3]
	I21CONCLR = I2CONCLR_SIC;  /* Clear SI flag */
    5000:	e3a0320e 	mov	r3, #-536870912	; 0xe0000000
    5004:	e2833917 	add	r3, r3, #376832	; 0x5c000
    5008:	e2833018 	add	r3, r3, #24
    500c:	e3a02008 	mov	r2, #8
    5010:	e5832000 	str	r2, [r3]
	I2C1MasterState = I2C_IDLE;
    5014:	e59f2034 	ldr	r2, [pc, #52]	; 5050 <I2C1Engine+0x6c>
    5018:	e3a03000 	mov	r3, #0
    501c:	e5823000 	str	r3, [r2]
    WrIndex1 = 0;
    5020:	e59f202c 	ldr	r2, [pc, #44]	; 5054 <I2C1Engine+0x70>
    5024:	e3a03000 	mov	r3, #0
    5028:	e5823000 	str	r3, [r2]
    I21CONSET = I2CONSET_STA;	/* Set Start flag */
    502c:	e3a0320e 	mov	r3, #-536870912	; 0xe0000000
    5030:	e2833917 	add	r3, r3, #376832	; 0x5c000
    5034:	e3a02020 	mov	r2, #32
    5038:	e5832000 	str	r2, [r3]
    return ( TRUE );
    503c:	e3a03001 	mov	r3, #1
}
    5040:	e1a00003 	mov	r0, r3
    5044:	e24bd00c 	sub	sp, fp, #12
    5048:	e89d6800 	ldm	sp, {fp, sp, lr}
    504c:	e12fff1e 	bx	lr
    5050:	40000a14 	.word	0x40000a14
    5054:	40000a1c 	.word	0x40000a1c

00005058 <I2C1State>:

unsigned char I2C1State(void)
{
    5058:	e1a0c00d 	mov	ip, sp
    505c:	e92dd800 	push	{fp, ip, lr, pc}
    5060:	e24cb004 	sub	fp, ip, #4
	return I2C1MasterState;
    5064:	e59f3014 	ldr	r3, [pc, #20]	; 5080 <I2C1State+0x28>
    5068:	e5933000 	ldr	r3, [r3]
    506c:	e20330ff 	and	r3, r3, #255	; 0xff
}
    5070:	e1a00003 	mov	r0, r3
    5074:	e24bd00c 	sub	sp, fp, #12
    5078:	e89d6800 	ldm	sp, {fp, sp, lr}
    507c:	e12fff1e 	bx	lr
    5080:	40000a14 	.word	0x40000a14

00005084 <DefaultVICHandler>:
** Returned value:		None
**
******************************************************************************/
// mthomas: inserted static to avoid gcc-warning
static void DefaultVICHandler (void) __irq
{
    5084:	e1a0c00d 	mov	ip, sp
    5088:	e92dd800 	push	{fp, ip, lr, pc}
    508c:	e24cb004 	sub	fp, ip, #4
    /* if the IRQ is not installed into the VIC, and interrupt occurs, the
    default interrupt VIC address will be used. This could happen in a race
    condition. For debugging, use this endless loop to trace back. */
    /* For more details, see Philips appnote AN10414 */
    VICVectAddr = 0;		/* Acknowledge Interrupt */
    5090:	e3a03000 	mov	r3, #0
    5094:	e2433efd 	sub	r3, r3, #4048	; 0xfd0
    5098:	e3a02000 	mov	r2, #0
    509c:	e5832000 	str	r2, [r3]
    // while ( 1 ); to find unknown interrupts while debugging
}
    50a0:	e24bd00c 	sub	sp, fp, #12
    50a4:	e89d6800 	ldm	sp, {fp, sp, lr}
    50a8:	e12fff1e 	bx	lr

000050ac <init_VIC>:
** parameters:			None
** Returned value:		None
**
******************************************************************************/
void init_VIC(void)
{
    50ac:	e1a0c00d 	mov	ip, sp
    50b0:	e92dd800 	push	{fp, ip, lr, pc}
    50b4:	e24cb004 	sub	fp, ip, #4
    50b8:	e24dd00c 	sub	sp, sp, #12
    unsigned long i = 0;
    50bc:	e3a03000 	mov	r3, #0
    50c0:	e50b3018 	str	r3, [fp, #-24]
    unsigned long *vect_addr, *vect_cntl;

    /* initialize VIC*/
    VICIntEnClr = 0xffffffff;
    50c4:	e3e03efe 	mvn	r3, #4064	; 0xfe0
    50c8:	e243300b 	sub	r3, r3, #11
    50cc:	e3e02000 	mvn	r2, #0
    50d0:	e5832000 	str	r2, [r3]
    VICVectAddr = 0;
    50d4:	e3a03000 	mov	r3, #0
    50d8:	e2433efd 	sub	r3, r3, #4048	; 0xfd0
    50dc:	e3a02000 	mov	r2, #0
    50e0:	e5832000 	str	r2, [r3]
    VICIntSelect = 0;
    50e4:	e3e03eff 	mvn	r3, #4080	; 0xff0
    50e8:	e2433003 	sub	r3, r3, #3
    50ec:	e3a02000 	mov	r2, #0
    50f0:	e5832000 	str	r2, [r3]

    /* set all the vector and vector control register to 0 */
    for ( i = 0; i < VIC_SIZE; i++ )
    50f4:	e3a03000 	mov	r3, #0
    50f8:	e50b3018 	str	r3, [fp, #-24]
    50fc:	ea000010 	b	5144 <init_VIC+0x98>
    {
        vect_addr = (unsigned long *)(VIC_BASE_ADDR + VECT_ADDR_INDEX + i*4);
    5100:	e51b3018 	ldr	r3, [fp, #-24]
    5104:	e1a03103 	lsl	r3, r3, #2
    5108:	e2433c0f 	sub	r3, r3, #3840	; 0xf00
    510c:	e50b3014 	str	r3, [fp, #-20]
        vect_cntl = (unsigned long *)(VIC_BASE_ADDR + VECT_CNTL_INDEX + i*4);
    5110:	e51b3018 	ldr	r3, [fp, #-24]
    5114:	e1a03103 	lsl	r3, r3, #2
    5118:	e2433c0e 	sub	r3, r3, #3584	; 0xe00
    511c:	e50b3010 	str	r3, [fp, #-16]
        *vect_addr = 0;
    5120:	e51b2014 	ldr	r2, [fp, #-20]
    5124:	e3a03000 	mov	r3, #0
    5128:	e5823000 	str	r3, [r2]
        *vect_cntl = 0;
    512c:	e51b2010 	ldr	r2, [fp, #-16]
    5130:	e3a03000 	mov	r3, #0
    5134:	e5823000 	str	r3, [r2]
    VICIntEnClr = 0xffffffff;
    VICVectAddr = 0;
    VICIntSelect = 0;

    /* set all the vector and vector control register to 0 */
    for ( i = 0; i < VIC_SIZE; i++ )
    5138:	e51b3018 	ldr	r3, [fp, #-24]
    513c:	e2833001 	add	r3, r3, #1
    5140:	e50b3018 	str	r3, [fp, #-24]
    5144:	e51b3018 	ldr	r3, [fp, #-24]
    5148:	e353000f 	cmp	r3, #15
    514c:	9affffeb 	bls	5100 <init_VIC+0x54>
        *vect_addr = 0;
        *vect_cntl = 0;
    }

    /* Install the default VIC handler here */
    VICDefVectAddr = (unsigned long)DefaultVICHandler;
    5150:	e3e03d3f 	mvn	r3, #4032	; 0xfc0
    5154:	e243300b 	sub	r3, r3, #11
    5158:	e59f200c 	ldr	r2, [pc, #12]	; 516c <init_VIC+0xc0>
    515c:	e5832000 	str	r2, [r3]
    return;
}
    5160:	e24bd00c 	sub	sp, fp, #12
    5164:	e89d6800 	ldm	sp, {fp, sp, lr}
    5168:	e12fff1e 	bx	lr
    516c:	00005084 	.word	0x00005084

00005170 <install_irq>:
** parameters:			Interrupt number and interrupt handler address
** Returned value:		true or false, when the table is full, return false
**
******************************************************************************/
unsigned long install_irq( unsigned long IntNumber, void *HandlerAddr )
{
    5170:	e1a0c00d 	mov	ip, sp
    5174:	e92dd800 	push	{fp, ip, lr, pc}
    5178:	e24cb004 	sub	fp, ip, #4
    517c:	e24dd018 	sub	sp, sp, #24
    5180:	e50b001c 	str	r0, [fp, #-28]
    5184:	e50b1020 	str	r1, [fp, #-32]
    unsigned long i;
    unsigned long *vect_addr;
    unsigned long *vect_cntl;

    VICIntEnClr = 1 << IntNumber;	/* Disable Interrupt */
    5188:	e3e02efe 	mvn	r2, #4064	; 0xfe0
    518c:	e242200b 	sub	r2, r2, #11
    5190:	e51b101c 	ldr	r1, [fp, #-28]
    5194:	e3a03001 	mov	r3, #1
    5198:	e1a03113 	lsl	r3, r3, r1
    519c:	e5823000 	str	r3, [r2]

    for ( i = 0; i < VIC_SIZE; i++ )
    51a0:	e3a03000 	mov	r3, #0
    51a4:	e50b3018 	str	r3, [fp, #-24]
    51a8:	ea000017 	b	520c <install_irq+0x9c>
    {
        /* find first un-assigned VIC address for the handler */

        vect_addr = (unsigned long *)(VIC_BASE_ADDR + VECT_ADDR_INDEX + i*4);
    51ac:	e51b3018 	ldr	r3, [fp, #-24]
    51b0:	e1a03103 	lsl	r3, r3, #2
    51b4:	e2433c0f 	sub	r3, r3, #3840	; 0xf00
    51b8:	e50b3014 	str	r3, [fp, #-20]
        vect_cntl = (unsigned long *)(VIC_BASE_ADDR + VECT_CNTL_INDEX + i*4);
    51bc:	e51b3018 	ldr	r3, [fp, #-24]
    51c0:	e1a03103 	lsl	r3, r3, #2
    51c4:	e2433c0e 	sub	r3, r3, #3584	; 0xe00
    51c8:	e50b3010 	str	r3, [fp, #-16]
        if ( *vect_addr == (unsigned long)NULL )
    51cc:	e51b3014 	ldr	r3, [fp, #-20]
    51d0:	e5933000 	ldr	r3, [r3]
    51d4:	e3530000 	cmp	r3, #0
    51d8:	1a000008 	bne	5200 <install_irq+0x90>
        {
            *vect_addr = (unsigned long)HandlerAddr;	/* set interrupt vector */
    51dc:	e51b3020 	ldr	r3, [fp, #-32]
    51e0:	e1a02003 	mov	r2, r3
    51e4:	e51b3014 	ldr	r3, [fp, #-20]
    51e8:	e5832000 	str	r2, [r3]
            *vect_cntl = (unsigned long)(IRQ_SLOT_EN | IntNumber);
    51ec:	e51b301c 	ldr	r3, [fp, #-28]
    51f0:	e3832020 	orr	r2, r3, #32
    51f4:	e51b3010 	ldr	r3, [fp, #-16]
    51f8:	e5832000 	str	r2, [r3]
            break;
    51fc:	ea000005 	b	5218 <install_irq+0xa8>
    unsigned long *vect_addr;
    unsigned long *vect_cntl;

    VICIntEnClr = 1 << IntNumber;	/* Disable Interrupt */

    for ( i = 0; i < VIC_SIZE; i++ )
    5200:	e51b3018 	ldr	r3, [fp, #-24]
    5204:	e2833001 	add	r3, r3, #1
    5208:	e50b3018 	str	r3, [fp, #-24]
    520c:	e51b3018 	ldr	r3, [fp, #-24]
    5210:	e353000f 	cmp	r3, #15
    5214:	9affffe4 	bls	51ac <install_irq+0x3c>
            *vect_addr = (unsigned long)HandlerAddr;	/* set interrupt vector */
            *vect_cntl = (unsigned long)(IRQ_SLOT_EN | IntNumber);
            break;
        }
    }
    if ( i == VIC_SIZE )
    5218:	e51b3018 	ldr	r3, [fp, #-24]
    521c:	e3530010 	cmp	r3, #16
    5220:	1a000002 	bne	5230 <install_irq+0xc0>
    {
        return( FALSE );		/* fatal error, can't find empty vector slot */
    5224:	e3a03000 	mov	r3, #0
    5228:	e50b3024 	str	r3, [fp, #-36]	; 0x24
    522c:	ea000007 	b	5250 <install_irq+0xe0>
    }
    VICIntEnable = 1 << IntNumber;	/* Enable Interrupt */
    5230:	e3a02000 	mov	r2, #0
    5234:	e2422eff 	sub	r2, r2, #4080	; 0xff0
    5238:	e51b101c 	ldr	r1, [fp, #-28]
    523c:	e3a03001 	mov	r3, #1
    5240:	e1a03113 	lsl	r3, r3, r1
    5244:	e5823000 	str	r3, [r2]
    return( TRUE );
    5248:	e3a03001 	mov	r3, #1
    524c:	e50b3024 	str	r3, [fp, #-36]	; 0x24
    5250:	e51b3024 	ldr	r3, [fp, #-36]	; 0x24
}
    5254:	e1a00003 	mov	r0, r3
    5258:	e24bd00c 	sub	sp, fp, #12
    525c:	e89d6800 	ldm	sp, {fp, sp, lr}
    5260:	e12fff1e 	bx	lr

00005264 <uninstall_irq>:
** Returned value:		true or false, when the interrupt number is not found,
**				return false
**
******************************************************************************/
unsigned long uninstall_irq( unsigned long IntNumber )
{
    5264:	e1a0c00d 	mov	ip, sp
    5268:	e92dd800 	push	{fp, ip, lr, pc}
    526c:	e24cb004 	sub	fp, ip, #4
    5270:	e24dd014 	sub	sp, sp, #20
    5274:	e50b001c 	str	r0, [fp, #-28]
    unsigned long i;
    unsigned long *vect_addr;
    unsigned long *vect_cntl;

    VICIntEnClr = 1 << IntNumber;	/* Disable Interrupt */
    5278:	e3e02efe 	mvn	r2, #4064	; 0xfe0
    527c:	e242200b 	sub	r2, r2, #11
    5280:	e51b101c 	ldr	r1, [fp, #-28]
    5284:	e3a03001 	mov	r3, #1
    5288:	e1a03113 	lsl	r3, r3, r1
    528c:	e5823000 	str	r3, [r2]

    for ( i = 0; i < VIC_SIZE; i++ )
    5290:	e3a03000 	mov	r3, #0
    5294:	e50b3018 	str	r3, [fp, #-24]
    5298:	ea000019 	b	5304 <uninstall_irq+0xa0>
    {
        /* find first un-assigned VIC address for the handler */
        vect_addr = (unsigned long *)(VIC_BASE_ADDR + VECT_ADDR_INDEX + i*4);
    529c:	e51b3018 	ldr	r3, [fp, #-24]
    52a0:	e1a03103 	lsl	r3, r3, #2
    52a4:	e2433c0f 	sub	r3, r3, #3840	; 0xf00
    52a8:	e50b3014 	str	r3, [fp, #-20]
        vect_cntl = (unsigned long *)(VIC_BASE_ADDR + VECT_CNTL_INDEX + i*4);
    52ac:	e51b3018 	ldr	r3, [fp, #-24]
    52b0:	e1a03103 	lsl	r3, r3, #2
    52b4:	e2433c0e 	sub	r3, r3, #3584	; 0xe00
    52b8:	e50b3010 	str	r3, [fp, #-16]
        if ( (*vect_cntl & ~IRQ_SLOT_EN ) == IntNumber )
    52bc:	e51b3010 	ldr	r3, [fp, #-16]
    52c0:	e5933000 	ldr	r3, [r3]
    52c4:	e3c32020 	bic	r2, r3, #32
    52c8:	e51b301c 	ldr	r3, [fp, #-28]
    52cc:	e1520003 	cmp	r2, r3
    52d0:	1a000008 	bne	52f8 <uninstall_irq+0x94>
        {
            *vect_addr = (unsigned long)NULL;	/* clear the VIC entry in the VIC table */
    52d4:	e51b2014 	ldr	r2, [fp, #-20]
    52d8:	e3a03000 	mov	r3, #0
    52dc:	e5823000 	str	r3, [r2]
            *vect_cntl &= ~IRQ_SLOT_EN;	/* disable SLOT_EN bit */
    52e0:	e51b3010 	ldr	r3, [fp, #-16]
    52e4:	e5933000 	ldr	r3, [r3]
    52e8:	e3c32020 	bic	r2, r3, #32
    52ec:	e51b3010 	ldr	r3, [fp, #-16]
    52f0:	e5832000 	str	r2, [r3]
            break;
    52f4:	ea000005 	b	5310 <uninstall_irq+0xac>
    unsigned long *vect_addr;
    unsigned long *vect_cntl;

    VICIntEnClr = 1 << IntNumber;	/* Disable Interrupt */

    for ( i = 0; i < VIC_SIZE; i++ )
    52f8:	e51b3018 	ldr	r3, [fp, #-24]
    52fc:	e2833001 	add	r3, r3, #1
    5300:	e50b3018 	str	r3, [fp, #-24]
    5304:	e51b3018 	ldr	r3, [fp, #-24]
    5308:	e353000f 	cmp	r3, #15
    530c:	9affffe2 	bls	529c <uninstall_irq+0x38>
            *vect_addr = (unsigned long)NULL;	/* clear the VIC entry in the VIC table */
            *vect_cntl &= ~IRQ_SLOT_EN;	/* disable SLOT_EN bit */
            break;
        }
    }
    if ( i == VIC_SIZE )
    5310:	e51b3018 	ldr	r3, [fp, #-24]
    5314:	e3530010 	cmp	r3, #16
    5318:	1a000002 	bne	5328 <uninstall_irq+0xc4>
    {
        return( FALSE );		/* fatal error, can't find interrupt number
    531c:	e3a03000 	mov	r3, #0
    5320:	e50b3020 	str	r3, [fp, #-32]
    5324:	ea000007 	b	5348 <uninstall_irq+0xe4>
					in vector slot */
    }
    VICIntEnable = 1 << IntNumber;	/* Enable Interrupt */
    5328:	e3a02000 	mov	r2, #0
    532c:	e2422eff 	sub	r2, r2, #4080	; 0xff0
    5330:	e51b101c 	ldr	r1, [fp, #-28]
    5334:	e3a03001 	mov	r3, #1
    5338:	e1a03113 	lsl	r3, r3, r1
    533c:	e5823000 	str	r3, [r2]
    return( TRUE );
    5340:	e3a03001 	mov	r3, #1
    5344:	e50b3020 	str	r3, [fp, #-32]
    5348:	e51b3020 	ldr	r3, [fp, #-32]
}
    534c:	e1a00003 	mov	r0, r3
    5350:	e24bd00c 	sub	sp, fp, #12
    5354:	e89d6800 	ldm	sp, {fp, sp, lr}
    5358:	e12fff1e 	bx	lr

0000535c <ADCInit>:
** parameters:			ADC clock rate
** Returned value:		true or false
**
*****************************************************************************/
unsigned int ADCInit( unsigned int ADC_Clk )
{
    535c:	e1a0c00d 	mov	ip, sp
    5360:	e92dd810 	push	{r4, fp, ip, lr, pc}
    5364:	e24cb004 	sub	fp, ip, #4
    5368:	e24dd004 	sub	sp, sp, #4
    536c:	e50b0014 	str	r0, [fp, #-20]
	   AD0CR = ( 0x01 ) | 	// SEL=1,select channel 0, 1 to 4 on ADC0
    5370:	e3a0420e 	mov	r4, #-536870912	; 0xe0000000
    5374:	e284490d 	add	r4, r4, #212992	; 0x34000
    5378:	e3a008e5 	mov	r0, #15007744	; 0xe50000
    537c:	e2400d79 	sub	r0, r0, #7744	; 0x1e40
    5380:	e51b1014 	ldr	r1, [fp, #-20]
    5384:	eb002146 	bl	d8a4 <____udivsi3_from_arm>
    5388:	e1a03000 	mov	r3, r0
    538c:	e2433001 	sub	r3, r3, #1
    5390:	e1a03403 	lsl	r3, r3, #8
    5394:	e3833821 	orr	r3, r3, #2162688	; 0x210000
    5398:	e3833001 	orr	r3, r3, #1
    539c:	e5843000 	str	r3, [r4]
	( 0 << 22 ) |  		// TEST1:0 = 00
	( 0 << 24 ) |  		// START = 0 A/D conversion stops
	( 0 << 27 );		// EDGE = 0 (CAP/MAT singal falling,trigger A/D
				conversion) */

    AD1CR = ( 0x01 << 0 ) | 	// SEL=1,select channel 0, 0 to 7 on ADC1
    53a0:	e3a0420e 	mov	r4, #-536870912	; 0xe0000000
    53a4:	e2844806 	add	r4, r4, #393216	; 0x60000
    53a8:	e3a008e5 	mov	r0, #15007744	; 0xe50000
    53ac:	e2400d79 	sub	r0, r0, #7744	; 0x1e40
    53b0:	e51b1014 	ldr	r1, [fp, #-20]
    53b4:	eb00213a 	bl	d8a4 <____udivsi3_from_arm>
    53b8:	e1a03000 	mov	r3, r0
    53bc:	e2433001 	sub	r3, r3, #1
    53c0:	e1a03403 	lsl	r3, r3, #8
    53c4:	e3833602 	orr	r3, r3, #2097152	; 0x200000
    53c8:	e3833001 	orr	r3, r3, #1
    53cc:	e5843000 	str	r3, [r4]
    {
	return (FALSE);
    }
#endif

    return (TRUE);
    53d0:	e3a03001 	mov	r3, #1
}
    53d4:	e1a00003 	mov	r0, r3
    53d8:	e24bd010 	sub	sp, fp, #16
    53dc:	e89d6810 	ldm	sp, {r4, fp, sp, lr}
    53e0:	e12fff1e 	bx	lr

000053e4 <ADC0Read>:
** parameters:			Channel number
** Returned value:		Value read, if interrupt driven, return channel #
**
*****************************************************************************/
unsigned int ADC0Read( unsigned char channelNum )
{
    53e4:	e1a0c00d 	mov	ip, sp
    53e8:	e92dd800 	push	{fp, ip, lr, pc}
    53ec:	e24cb004 	sub	fp, ip, #4
    53f0:	e24dd014 	sub	sp, sp, #20
    53f4:	e1a03000 	mov	r3, r0
    53f8:	e54b301c 	strb	r3, [fp, #-28]
#if !ADC_INTERRUPT_FLAG
    unsigned int regVal, ADC_Data;
    volatile unsigned int timeout=0;
    53fc:	e3a03000 	mov	r3, #0
    5400:	e50b3018 	str	r3, [fp, #-24]
#endif

    /* channel number is 0 through 7 */
    if ( channelNum >= ADC_NUM )
    5404:	e55b301c 	ldrb	r3, [fp, #-28]
    5408:	e3530007 	cmp	r3, #7
    540c:	9a000001 	bls	5418 <ADC0Read+0x34>
    {
	channelNum = 0;		/* reset channel number to 0 */
    5410:	e3a03000 	mov	r3, #0
    5414:	e54b301c 	strb	r3, [fp, #-28]
    }
    AD0CR &= 0xFFFFFF00;
    5418:	e3a0220e 	mov	r2, #-536870912	; 0xe0000000
    541c:	e282290d 	add	r2, r2, #212992	; 0x34000
    5420:	e3a0320e 	mov	r3, #-536870912	; 0xe0000000
    5424:	e283390d 	add	r3, r3, #212992	; 0x34000
    5428:	e5933000 	ldr	r3, [r3]
    542c:	e3c330ff 	bic	r3, r3, #255	; 0xff
    5430:	e5823000 	str	r3, [r2]
    AD0CR |= (1 << 24) | (1 << channelNum);
    5434:	e3a0120e 	mov	r1, #-536870912	; 0xe0000000
    5438:	e281190d 	add	r1, r1, #212992	; 0x34000
    543c:	e3a0320e 	mov	r3, #-536870912	; 0xe0000000
    5440:	e283390d 	add	r3, r3, #212992	; 0x34000
    5444:	e5930000 	ldr	r0, [r3]
    5448:	e55b201c 	ldrb	r2, [fp, #-28]
    544c:	e3a03001 	mov	r3, #1
    5450:	e1a03213 	lsl	r3, r3, r2
    5454:	e1803003 	orr	r3, r0, r3
    5458:	e3833401 	orr	r3, r3, #16777216	; 0x1000000
    545c:	e5813000 	str	r3, [r1]
				/* switch channel,start A/D convert */
#if !ADC_INTERRUPT_FLAG
    while ( timeout++<5000 )			/* wait until end of A/D convert */
    5460:	ea000009 	b	548c <ADC0Read+0xa8>
    {
	regVal = *(volatile unsigned long *)(AD0_BASE_ADDR
    5464:	e55b301c 	ldrb	r3, [fp, #-28]
    5468:	e1a03103 	lsl	r3, r3, #2
    546c:	e283320e 	add	r3, r3, #-536870912	; 0xe0000000
    5470:	e283390d 	add	r3, r3, #212992	; 0x34000
    5474:	e2833010 	add	r3, r3, #16
    5478:	e5933000 	ldr	r3, [r3]
    547c:	e50b3014 	str	r3, [fp, #-20]
			+ ADC_OFFSET + ADC_INDEX * channelNum);
				/* read result of A/D conversion */
	if ( regVal & ADC_DONE )
    5480:	e51b3014 	ldr	r3, [fp, #-20]
    5484:	e3530000 	cmp	r3, #0
    5488:	ba00000a 	blt	54b8 <ADC0Read+0xd4>
    }
    AD0CR &= 0xFFFFFF00;
    AD0CR |= (1 << 24) | (1 << channelNum);
				/* switch channel,start A/D convert */
#if !ADC_INTERRUPT_FLAG
    while ( timeout++<5000 )			/* wait until end of A/D convert */
    548c:	e51b1018 	ldr	r1, [fp, #-24]
    5490:	e3a03d4e 	mov	r3, #4992	; 0x1380
    5494:	e2833007 	add	r3, r3, #7
    5498:	e1510003 	cmp	r1, r3
    549c:	83a03000 	movhi	r3, #0
    54a0:	93a03001 	movls	r3, #1
    54a4:	e20320ff 	and	r2, r3, #255	; 0xff
    54a8:	e2813001 	add	r3, r1, #1
    54ac:	e50b3018 	str	r3, [fp, #-24]
    54b0:	e3520000 	cmp	r2, #0
    54b4:	1affffea 	bne	5464 <ADC0Read+0x80>
	{
	    break;
	}
    }

    AD0CR &= 0xF8FFFFFF;	/* stop ADC now */
    54b8:	e3a0220e 	mov	r2, #-536870912	; 0xe0000000
    54bc:	e282290d 	add	r2, r2, #212992	; 0x34000
    54c0:	e3a0320e 	mov	r3, #-536870912	; 0xe0000000
    54c4:	e283390d 	add	r3, r3, #212992	; 0x34000
    54c8:	e5933000 	ldr	r3, [r3]
    54cc:	e3c33407 	bic	r3, r3, #117440512	; 0x7000000
    54d0:	e5823000 	str	r3, [r2]
    if ( regVal & ADC_OVERRUN )	/* save data when it's not overrun
    54d4:	e51b3014 	ldr	r3, [fp, #-20]
    54d8:	e2033101 	and	r3, r3, #1073741824	; 0x40000000
    54dc:	e3530000 	cmp	r3, #0
    54e0:	0a000002 	beq	54f0 <ADC0Read+0x10c>
				otherwise, return zero */
    {
	return ( 0 );
    54e4:	e3a03000 	mov	r3, #0
    54e8:	e50b3020 	str	r3, [fp, #-32]
    54ec:	ea000006 	b	550c <ADC0Read+0x128>
    }
    ADC_Data = ( regVal >> 6 ) & 0x3FF;
    54f0:	e51b3014 	ldr	r3, [fp, #-20]
    54f4:	e1a03323 	lsr	r3, r3, #6
    54f8:	e1a03b03 	lsl	r3, r3, #22
    54fc:	e1a03b23 	lsr	r3, r3, #22
    5500:	e50b3010 	str	r3, [fp, #-16]
    return ( ADC_Data );	/* return A/D conversion value */
    5504:	e51b3010 	ldr	r3, [fp, #-16]
    5508:	e50b3020 	str	r3, [fp, #-32]
    550c:	e51b3020 	ldr	r3, [fp, #-32]
#else
    return ( channelNum );	/* if it's interrupt driven, the
				ADC reading is done inside the handler.
				so, return channel number */
#endif
}
    5510:	e1a00003 	mov	r0, r3
    5514:	e24bd00c 	sub	sp, fp, #12
    5518:	e89d6800 	ldm	sp, {fp, sp, lr}
    551c:	e12fff1e 	bx	lr

00005520 <ADC1Read>:
** parameters:			Channel number
** Returned value:		Value read, if interrupt driven, return channel #
**
*****************************************************************************/
unsigned int ADC1Read( unsigned char channelNum )
{
    5520:	e1a0c00d 	mov	ip, sp
    5524:	e92dd800 	push	{fp, ip, lr, pc}
    5528:	e24cb004 	sub	fp, ip, #4
    552c:	e24dd010 	sub	sp, sp, #16
    5530:	e1a03000 	mov	r3, r0
    5534:	e54b3018 	strb	r3, [fp, #-24]
    unsigned int regVal;
	unsigned int ADC_Data;
#endif

    /* channel number is 0 through 7 */
    if ( channelNum >= ADC_NUM )
    5538:	e55b3018 	ldrb	r3, [fp, #-24]
    553c:	e3530007 	cmp	r3, #7
    5540:	9a000001 	bls	554c <ADC1Read+0x2c>
    {
	channelNum = 0;		/* reset channel number to 0 */
    5544:	e3a03000 	mov	r3, #0
    5548:	e54b3018 	strb	r3, [fp, #-24]
    }
    AD1CR &= 0xFFFFFF00;
    554c:	e3a0220e 	mov	r2, #-536870912	; 0xe0000000
    5550:	e2822806 	add	r2, r2, #393216	; 0x60000
    5554:	e3a0320e 	mov	r3, #-536870912	; 0xe0000000
    5558:	e2833806 	add	r3, r3, #393216	; 0x60000
    555c:	e5933000 	ldr	r3, [r3]
    5560:	e3c330ff 	bic	r3, r3, #255	; 0xff
    5564:	e5823000 	str	r3, [r2]
    AD1CR |= (1 << 24) | (1 << channelNum);
    5568:	e3a0120e 	mov	r1, #-536870912	; 0xe0000000
    556c:	e2811806 	add	r1, r1, #393216	; 0x60000
    5570:	e3a0320e 	mov	r3, #-536870912	; 0xe0000000
    5574:	e2833806 	add	r3, r3, #393216	; 0x60000
    5578:	e5930000 	ldr	r0, [r3]
    557c:	e55b2018 	ldrb	r2, [fp, #-24]
    5580:	e3a03001 	mov	r3, #1
    5584:	e1a03213 	lsl	r3, r3, r2
    5588:	e1803003 	orr	r3, r0, r3
    558c:	e3833401 	orr	r3, r3, #16777216	; 0x1000000
    5590:	e5813000 	str	r3, [r1]
				/* switch channel,start A/D convert */
#if !ADC_INTERRUPT_FLAG
    while ( 1 )			/* wait until end of A/D convert */
    {
	regVal = *(volatile unsigned long *)(AD1_BASE_ADDR
    5594:	e55b3018 	ldrb	r3, [fp, #-24]
    5598:	e1a03103 	lsl	r3, r3, #2
    559c:	e283320e 	add	r3, r3, #-536870912	; 0xe0000000
    55a0:	e2833806 	add	r3, r3, #393216	; 0x60000
    55a4:	e2833010 	add	r3, r3, #16
    55a8:	e5933000 	ldr	r3, [r3]
    55ac:	e50b3014 	str	r3, [fp, #-20]
			+ ADC_OFFSET + ADC_INDEX * channelNum);
				/* read result of A/D conversion */
	if ( regVal & ADC_DONE )
    55b0:	e51b3014 	ldr	r3, [fp, #-20]
    55b4:	e3530000 	cmp	r3, #0
    55b8:	ba000000 	blt	55c0 <ADC1Read+0xa0>
	{
	    break;
	}
    }
    55bc:	eafffff4 	b	5594 <ADC1Read+0x74>

    AD1CR &= 0xF8FFFFFF;	/* stop ADC now */
    55c0:	e3a0220e 	mov	r2, #-536870912	; 0xe0000000
    55c4:	e2822806 	add	r2, r2, #393216	; 0x60000
    55c8:	e3a0320e 	mov	r3, #-536870912	; 0xe0000000
    55cc:	e2833806 	add	r3, r3, #393216	; 0x60000
    55d0:	e5933000 	ldr	r3, [r3]
    55d4:	e3c33407 	bic	r3, r3, #117440512	; 0x7000000
    55d8:	e5823000 	str	r3, [r2]
    if ( regVal & ADC_OVERRUN )	/* save data when it's not overrun
    55dc:	e51b3014 	ldr	r3, [fp, #-20]
    55e0:	e2033101 	and	r3, r3, #1073741824	; 0x40000000
    55e4:	e3530000 	cmp	r3, #0
    55e8:	0a000002 	beq	55f8 <ADC1Read+0xd8>
				otherwise, return zero */
    {
	return ( 0 );
    55ec:	e3a03000 	mov	r3, #0
    55f0:	e50b301c 	str	r3, [fp, #-28]
    55f4:	ea000006 	b	5614 <ADC1Read+0xf4>
    }

    ADC_Data = ( regVal >> 6 ) & 0x3FF;
    55f8:	e51b3014 	ldr	r3, [fp, #-20]
    55fc:	e1a03323 	lsr	r3, r3, #6
    5600:	e1a03b03 	lsl	r3, r3, #22
    5604:	e1a03b23 	lsr	r3, r3, #22
    5608:	e50b3010 	str	r3, [fp, #-16]
    return ( ADC_Data );	/* return A/D conversion value */
    560c:	e51b3010 	ldr	r3, [fp, #-16]
    5610:	e50b301c 	str	r3, [fp, #-28]
    5614:	e51b301c 	ldr	r3, [fp, #-28]
#else
    return ( channelNum );
#endif
}
    5618:	e1a00003 	mov	r0, r3
    561c:	e24bd00c 	sub	sp, fp, #12
    5620:	e89d6800 	ldm	sp, {fp, sp, lr}
    5624:	e12fff1e 	bx	lr

00005628 <ADC0triggerSampling>:

void ADC0triggerSampling(unsigned char selectChannels)
{
    5628:	e1a0c00d 	mov	ip, sp
    562c:	e92dd800 	push	{fp, ip, lr, pc}
    5630:	e24cb004 	sub	fp, ip, #4
    5634:	e24dd004 	sub	sp, sp, #4
    5638:	e1a03000 	mov	r3, r0
    563c:	e54b3010 	strb	r3, [fp, #-16]
	AD0CR |= (selectChannels);
    5640:	e3a0220e 	mov	r2, #-536870912	; 0xe0000000
    5644:	e282290d 	add	r2, r2, #212992	; 0x34000
    5648:	e3a0320e 	mov	r3, #-536870912	; 0xe0000000
    564c:	e283390d 	add	r3, r3, #212992	; 0x34000
    5650:	e5931000 	ldr	r1, [r3]
    5654:	e55b3010 	ldrb	r3, [fp, #-16]
    5658:	e1813003 	orr	r3, r1, r3
    565c:	e5823000 	str	r3, [r2]

}
    5660:	e24bd00c 	sub	sp, fp, #12
    5664:	e89d6800 	ldm	sp, {fp, sp, lr}
    5668:	e12fff1e 	bx	lr

0000566c <ADC0getSamplingResults>:

void ADC0getSamplingResults(unsigned char selectChannels, unsigned int * channelValues)
{
    566c:	e1a0c00d 	mov	ip, sp
    5670:	e92dd800 	push	{fp, ip, lr, pc}
    5674:	e24cb004 	sub	fp, ip, #4
    5678:	e24dd010 	sub	sp, sp, #16
    567c:	e1a03000 	mov	r3, r0
    5680:	e50b101c 	str	r1, [fp, #-28]
    5684:	e54b3018 	strb	r3, [fp, #-24]
	int i;
	//get last result from all selected channels
	for (i=0;i<8;i++)
    5688:	e3a03000 	mov	r3, #0
    568c:	e50b3014 	str	r3, [fp, #-20]
    5690:	ea000026 	b	5730 <ADC0getSamplingResults+0xc4>
		if (selectChannels&(1<<i))
    5694:	e55b2018 	ldrb	r2, [fp, #-24]
    5698:	e51b3014 	ldr	r3, [fp, #-20]
    569c:	e1a03352 	asr	r3, r2, r3
    56a0:	e2033001 	and	r3, r3, #1
    56a4:	e20330ff 	and	r3, r3, #255	; 0xff
    56a8:	e3530000 	cmp	r3, #0
    56ac:	0a00001c 	beq	5724 <ADC0getSamplingResults+0xb8>
		{
		    unsigned int regVal;

			regVal=*(volatile unsigned long *)(AD0_BASE_ADDR
    56b0:	e51b3014 	ldr	r3, [fp, #-20]
    56b4:	e1a03103 	lsl	r3, r3, #2
    56b8:	e283320e 	add	r3, r3, #-536870912	; 0xe0000000
    56bc:	e283390d 	add	r3, r3, #212992	; 0x34000
    56c0:	e2833010 	add	r3, r3, #16
    56c4:	e5933000 	ldr	r3, [r3]
    56c8:	e50b3010 	str	r3, [fp, #-16]
					+ ADC_OFFSET + ADC_INDEX * i);

			if ((regVal&(ADC_OVERRUN|ADC_DONE))==0)
    56cc:	e51b3010 	ldr	r3, [fp, #-16]
    56d0:	e2033103 	and	r3, r3, #-1073741824	; 0xc0000000
    56d4:	e3530000 	cmp	r3, #0
    56d8:	1a000007 	bne	56fc <ADC0getSamplingResults+0x90>
					channelValues[i]=0;
    56dc:	e51b3014 	ldr	r3, [fp, #-20]
    56e0:	e1a03103 	lsl	r3, r3, #2
    56e4:	e1a02003 	mov	r2, r3
    56e8:	e51b301c 	ldr	r3, [fp, #-28]
    56ec:	e0822003 	add	r2, r2, r3
    56f0:	e3a03000 	mov	r3, #0
    56f4:	e5823000 	str	r3, [r2]
    56f8:	ea000009 	b	5724 <ADC0getSamplingResults+0xb8>
			else
					channelValues[i]=( regVal >> 6 ) & 0x3FF;
    56fc:	e51b3014 	ldr	r3, [fp, #-20]
    5700:	e1a03103 	lsl	r3, r3, #2
    5704:	e1a02003 	mov	r2, r3
    5708:	e51b301c 	ldr	r3, [fp, #-28]
    570c:	e0822003 	add	r2, r2, r3
    5710:	e51b3010 	ldr	r3, [fp, #-16]
    5714:	e1a03323 	lsr	r3, r3, #6
    5718:	e1a03b03 	lsl	r3, r3, #22
    571c:	e1a03b23 	lsr	r3, r3, #22
    5720:	e5823000 	str	r3, [r2]

void ADC0getSamplingResults(unsigned char selectChannels, unsigned int * channelValues)
{
	int i;
	//get last result from all selected channels
	for (i=0;i<8;i++)
    5724:	e51b3014 	ldr	r3, [fp, #-20]
    5728:	e2833001 	add	r3, r3, #1
    572c:	e50b3014 	str	r3, [fp, #-20]
    5730:	e51b3014 	ldr	r3, [fp, #-20]
    5734:	e3530007 	cmp	r3, #7
    5738:	daffffd5 	ble	5694 <ADC0getSamplingResults+0x28>
			if ((regVal&(ADC_OVERRUN|ADC_DONE))==0)
					channelValues[i]=0;
			else
					channelValues[i]=( regVal >> 6 ) & 0x3FF;
		}
}
    573c:	e24bd00c 	sub	sp, fp, #12
    5740:	e89d6800 	ldm	sp, {fp, sp, lr}
    5744:	e12fff1e 	bx	lr

00005748 <SSPHandler>:
char data_sent_to_HL=1;

inline void SSPReceive(unsigned char);

void SSPHandler (void) __irq
{
    5748:	e1a0c00d 	mov	ip, sp
    574c:	e92dd800 	push	{fp, ip, lr, pc}
    5750:	e24cb004 	sub	fp, ip, #4
    5754:	e24dd008 	sub	sp, sp, #8
    unsigned short input_data;
//    unsigned char timeout=0;

    IENABLE;				/* handles nested interrupt */

    regValue = SSPMIS;
    5758:	e3a0320e 	mov	r3, #-536870912	; 0xe0000000
    575c:	e283391a 	add	r3, r3, #425984	; 0x68000
    5760:	e283301c 	add	r3, r3, #28
    5764:	e5933000 	ldr	r3, [r3]
    5768:	e50b3014 	str	r3, [fp, #-20]
    if ( regValue & SSPMIS_RORMIS )	/* Receive overrun interrupt */
    576c:	e51b3014 	ldr	r3, [fp, #-20]
    5770:	e2033001 	and	r3, r3, #1
    5774:	e20330ff 	and	r3, r3, #255	; 0xff
    5778:	e3530000 	cmp	r3, #0
    577c:	0a000004 	beq	5794 <SSPHandler+0x4c>
    {
		SSPICR = SSPICR_RORIC;		/* clear interrupt */
    5780:	e3a0320e 	mov	r3, #-536870912	; 0xe0000000
    5784:	e283391a 	add	r3, r3, #425984	; 0x68000
    5788:	e2833020 	add	r3, r3, #32
    578c:	e3a02001 	mov	r2, #1
    5790:	e5832000 	str	r2, [r3]
    }
    if ( regValue & SSPMIS_RTMIS )	/* Receive timeout interrupt */
    5794:	e51b3014 	ldr	r3, [fp, #-20]
    5798:	e2033002 	and	r3, r3, #2
    579c:	e3530000 	cmp	r3, #0
    57a0:	0a000004 	beq	57b8 <SSPHandler+0x70>
    {
		SSPICR = SSPICR_RTIC;		/* clear interrupt */
    57a4:	e3a0320e 	mov	r3, #-536870912	; 0xe0000000
    57a8:	e283391a 	add	r3, r3, #425984	; 0x68000
    57ac:	e2833020 	add	r3, r3, #32
    57b0:	e3a02002 	mov	r2, #2
    57b4:	e5832000 	str	r2, [r3]
    }

    if ( regValue & SSPMIS_RXMIS )	/* Rx at least half full */
    57b8:	e51b3014 	ldr	r3, [fp, #-20]
    57bc:	e2033004 	and	r3, r3, #4
    57c0:	e3530000 	cmp	r3, #0
    57c4:	0a000016 	beq	5824 <SSPHandler+0xdc>
    {
    			/* receive until it's empty */
	while ( SSPSR & SSPSR_RNE )
    57c8:	ea00000f 	b	580c <SSPHandler+0xc4>
	{
		input_data=SSPDR;
    57cc:	e3a0328e 	mov	r3, #-536870904	; 0xe0000008
    57d0:	e283391a 	add	r3, r3, #425984	; 0x68000
    57d4:	e5933000 	ldr	r3, [r3]
    57d8:	e14b30be 	strh	r3, [fp, #-14]
	    //SSPReceive(input_data&0xFF);
	    //SSPReceive(input_data>>8);

		SSP_rx_handler_HL(input_data&0xFF);
    57dc:	e15b30be 	ldrh	r3, [fp, #-14]
    57e0:	e20330ff 	and	r3, r3, #255	; 0xff
    57e4:	e20330ff 	and	r3, r3, #255	; 0xff
    57e8:	e1a00003 	mov	r0, r3
    57ec:	ebffee45 	bl	1108 <SSP_rx_handler_HL>
		SSP_rx_handler_HL(input_data>>8);
    57f0:	e15b30be 	ldrh	r3, [fp, #-14]
    57f4:	e1a03423 	lsr	r3, r3, #8
    57f8:	e1a03803 	lsl	r3, r3, #16
    57fc:	e1a03823 	lsr	r3, r3, #16
    5800:	e20330ff 	and	r3, r3, #255	; 0xff
    5804:	e1a00003 	mov	r0, r3
    5808:	ebffee3e 	bl	1108 <SSP_rx_handler_HL>
    }

    if ( regValue & SSPMIS_RXMIS )	/* Rx at least half full */
    {
    			/* receive until it's empty */
	while ( SSPSR & SSPSR_RNE )
    580c:	e3a032ce 	mov	r3, #-536870900	; 0xe000000c
    5810:	e283391a 	add	r3, r3, #425984	; 0x68000
    5814:	e5933000 	ldr	r3, [r3]
    5818:	e2033004 	and	r3, r3, #4
    581c:	e3530000 	cmp	r3, #0
    5820:	1affffe9 	bne	57cc <SSPHandler+0x84>
	//    while ( (!(SSPSR & SSPSR_BSY) )&&(timeout++<50) );
	}				/* interrupt will be cleared when */
					/* data register is read or written */
    }

    if ( regValue & SSPMIS_TXMIS )	/* Tx at least half empty */
    5824:	e51b3014 	ldr	r3, [fp, #-20]
    5828:	e2033008 	and	r3, r3, #8
    582c:	e3530000 	cmp	r3, #0
    5830:	0a00002f 	beq	58f4 <SSPHandler+0x1ac>
    {
	/* transmit until it's full */
	while ( (SSPSR & SSPSR_TNF) )
    5834:	ea000028 	b	58dc <SSPHandler+0x194>
	{
	    if(CurrentTxIndex<SPIWR_num_bytes)
    5838:	e59f30d0 	ldr	r3, [pc, #208]	; 5910 <SSPHandler+0x1c8>
    583c:	e5933000 	ldr	r3, [r3]
    5840:	e1a02003 	mov	r2, r3
    5844:	e59f30c8 	ldr	r3, [pc, #200]	; 5914 <SSPHandler+0x1cc>
    5848:	e5933000 	ldr	r3, [r3]
    584c:	e1520003 	cmp	r2, r3
    5850:	2a000014 	bcs	58a8 <SSPHandler+0x160>
	    {
	    	SSPDR = SPIWRData[CurrentTxIndex]|(SPIWRData[CurrentTxIndex+1]<<8);
    5854:	e3a0128e 	mov	r1, #-536870904	; 0xe0000008
    5858:	e281191a 	add	r1, r1, #425984	; 0x68000
    585c:	e59f30ac 	ldr	r3, [pc, #172]	; 5910 <SSPHandler+0x1c8>
    5860:	e5932000 	ldr	r2, [r3]
    5864:	e59f30ac 	ldr	r3, [pc, #172]	; 5918 <SSPHandler+0x1d0>
    5868:	e7d33002 	ldrb	r3, [r3, r2]
    586c:	e1a00003 	mov	r0, r3
    5870:	e59f3098 	ldr	r3, [pc, #152]	; 5910 <SSPHandler+0x1c8>
    5874:	e5933000 	ldr	r3, [r3]
    5878:	e2832001 	add	r2, r3, #1
    587c:	e59f3094 	ldr	r3, [pc, #148]	; 5918 <SSPHandler+0x1d0>
    5880:	e7d33002 	ldrb	r3, [r3, r2]
    5884:	e1a03403 	lsl	r3, r3, #8
    5888:	e1803003 	orr	r3, r0, r3
    588c:	e5813000 	str	r3, [r1]
	    	CurrentTxIndex+=2;
    5890:	e59f3078 	ldr	r3, [pc, #120]	; 5910 <SSPHandler+0x1c8>
    5894:	e5933000 	ldr	r3, [r3]
    5898:	e2832002 	add	r2, r3, #2
    589c:	e59f306c 	ldr	r3, [pc, #108]	; 5910 <SSPHandler+0x1c8>
    58a0:	e5832000 	str	r2, [r3]
    58a4:	ea00000c 	b	58dc <SSPHandler+0x194>
	    }
	    else
	    {
	    	CurrentTxIndex=0;
    58a8:	e59f2060 	ldr	r2, [pc, #96]	; 5910 <SSPHandler+0x1c8>
    58ac:	e3a03000 	mov	r3, #0
    58b0:	e5823000 	str	r3, [r2]
	    	SPIWR_num_bytes=0;
    58b4:	e59f2058 	ldr	r2, [pc, #88]	; 5914 <SSPHandler+0x1cc>
    58b8:	e3a03000 	mov	r3, #0
    58bc:	e5823000 	str	r3, [r2]
	    	data_sent_to_LL=1;
    58c0:	e59f2054 	ldr	r2, [pc, #84]	; 591c <SSPHandler+0x1d4>
    58c4:	e3a03001 	mov	r3, #1
    58c8:	e5c23000 	strb	r3, [r2]
			SSPDR=0;
    58cc:	e3a0328e 	mov	r3, #-536870904	; 0xe0000008
    58d0:	e283391a 	add	r3, r3, #425984	; 0x68000
    58d4:	e3a02000 	mov	r2, #0
    58d8:	e5832000 	str	r2, [r3]
    }

    if ( regValue & SSPMIS_TXMIS )	/* Tx at least half empty */
    {
	/* transmit until it's full */
	while ( (SSPSR & SSPSR_TNF) )
    58dc:	e3a032ce 	mov	r3, #-536870900	; 0xe000000c
    58e0:	e283391a 	add	r3, r3, #425984	; 0x68000
    58e4:	e5933000 	ldr	r3, [r3]
    58e8:	e2033002 	and	r3, r3, #2
    58ec:	e3530000 	cmp	r3, #0
    58f0:	1affffd0 	bne	5838 <SSPHandler+0xf0>
	}				/* interrupt will be cleared when */
					/* data register is read or written */
    }

    IDISABLE;
    VICVectAddr = 0;		/* Acknowledge Interrupt */
    58f4:	e3a03000 	mov	r3, #0
    58f8:	e2433efd 	sub	r3, r3, #4048	; 0xfd0
    58fc:	e3a02000 	mov	r2, #0
    5900:	e5832000 	str	r2, [r3]
}
    5904:	e24bd00c 	sub	sp, fp, #12
    5908:	e89d6800 	ldm	sp, {fp, sp, lr}
    590c:	e12fff1e 	bx	lr
    5910:	40001c64 	.word	0x40001c64
    5914:	40001c60 	.word	0x40001c60
    5918:	40001c68 	.word	0x40001c68
    591c:	4000000e 	.word	0x4000000e

00005920 <LL_write_init>:

void LL_write_init(void)
{
    5920:	e1a0c00d 	mov	ip, sp
    5924:	e92dd800 	push	{fp, ip, lr, pc}
    5928:	e24cb004 	sub	fp, ip, #4
		SPIWRData[0]='>';
    592c:	e59f2028 	ldr	r2, [pc, #40]	; 595c <LL_write_init+0x3c>
    5930:	e3a0303e 	mov	r3, #62	; 0x3e
    5934:	e5c23000 	strb	r3, [r2]
		SPIWRData[1]='*';
    5938:	e59f201c 	ldr	r2, [pc, #28]	; 595c <LL_write_init+0x3c>
    593c:	e3a0302a 	mov	r3, #42	; 0x2a
    5940:	e5c23001 	strb	r3, [r2, #1]
		SPIWRData[2]='>';
    5944:	e59f2010 	ldr	r2, [pc, #16]	; 595c <LL_write_init+0x3c>
    5948:	e3a0303e 	mov	r3, #62	; 0x3e
    594c:	e5c23002 	strb	r3, [r2, #2]
}
    5950:	e24bd00c 	sub	sp, fp, #12
    5954:	e89d6800 	ldm	sp, {fp, sp, lr}
    5958:	e12fff1e 	bx	lr
    595c:	40001c68 	.word	0x40001c68

00005960 <LL_write>:

int LL_write(unsigned char *data, unsigned short cnt, unsigned char PD )	//write data to high-level processor
{
    5960:	e1a0c00d 	mov	ip, sp
    5964:	e92dd800 	push	{fp, ip, lr, pc}
    5968:	e24cb004 	sub	fp, ip, #4
    596c:	e24dd014 	sub	sp, sp, #20
    5970:	e50b0014 	str	r0, [fp, #-20]
    5974:	e1a03001 	mov	r3, r1
    5978:	e14b31b8 	strh	r3, [fp, #-24]	; 0xffffffe8
    597c:	e1a03002 	mov	r3, r2
    5980:	e54b301c 	strb	r3, [fp, #-28]
	unsigned int i;

	if(data_sent_to_LL)
    5984:	e59f31d0 	ldr	r3, [pc, #464]	; 5b5c <LL_write+0x1fc>
    5988:	e5d33000 	ldrb	r3, [r3]
    598c:	e3530000 	cmp	r3, #0
    5990:	0a00001f 	beq	5a14 <LL_write+0xb4>
	{
		SPIWRData[3]=PD;
    5994:	e59f31c4 	ldr	r3, [pc, #452]	; 5b60 <LL_write+0x200>
    5998:	e55b201c 	ldrb	r2, [fp, #-28]
    599c:	e5c32003 	strb	r2, [r3, #3]
		for(i=0; i<cnt; i++)
    59a0:	e3a03000 	mov	r3, #0
    59a4:	e50b3010 	str	r3, [fp, #-16]
    59a8:	ea00000a 	b	59d8 <LL_write+0x78>
		{
			SPIWRData[i+4]=data[i];
    59ac:	e51b3010 	ldr	r3, [fp, #-16]
    59b0:	e2831004 	add	r1, r3, #4
    59b4:	e51b2010 	ldr	r2, [fp, #-16]
    59b8:	e51b3014 	ldr	r3, [fp, #-20]
    59bc:	e0823003 	add	r3, r2, r3
    59c0:	e5d33000 	ldrb	r3, [r3]
    59c4:	e59f2194 	ldr	r2, [pc, #404]	; 5b60 <LL_write+0x200>
    59c8:	e7c23001 	strb	r3, [r2, r1]
	unsigned int i;

	if(data_sent_to_LL)
	{
		SPIWRData[3]=PD;
		for(i=0; i<cnt; i++)
    59cc:	e51b3010 	ldr	r3, [fp, #-16]
    59d0:	e2833001 	add	r3, r3, #1
    59d4:	e50b3010 	str	r3, [fp, #-16]
    59d8:	e15b21b8 	ldrh	r2, [fp, #-24]	; 0xffffffe8
    59dc:	e51b3010 	ldr	r3, [fp, #-16]
    59e0:	e1520003 	cmp	r2, r3
    59e4:	8afffff0 	bhi	59ac <LL_write+0x4c>
		{
			SPIWRData[i+4]=data[i];
		}
		SPIWRData[cnt+4]=0;
    59e8:	e15b31b8 	ldrh	r3, [fp, #-24]	; 0xffffffe8
    59ec:	e2831004 	add	r1, r3, #4
    59f0:	e59f2168 	ldr	r2, [pc, #360]	; 5b60 <LL_write+0x200>
    59f4:	e3a03000 	mov	r3, #0
    59f8:	e7c23001 	strb	r3, [r2, r1]
		SPIWR_num_bytes=cnt+5;
    59fc:	e15b31b8 	ldrh	r3, [fp, #-24]	; 0xffffffe8
    5a00:	e2833005 	add	r3, r3, #5
    5a04:	e1a02003 	mov	r2, r3
    5a08:	e59f3154 	ldr	r3, [pc, #340]	; 5b64 <LL_write+0x204>
    5a0c:	e5832000 	str	r2, [r3]
    5a10:	ea000047 	b	5b34 <LL_write+0x1d4>
	}
	else if(SPIWR_num_bytes+cnt<127)
    5a14:	e15b21b8 	ldrh	r2, [fp, #-24]	; 0xffffffe8
    5a18:	e59f3144 	ldr	r3, [pc, #324]	; 5b64 <LL_write+0x204>
    5a1c:	e5933000 	ldr	r3, [r3]
    5a20:	e0823003 	add	r3, r2, r3
    5a24:	e353007e 	cmp	r3, #126	; 0x7e
    5a28:	8a00003e 	bhi	5b28 <LL_write+0x1c8>
	{
		SPIWRData[SPIWR_num_bytes-1]='>';
    5a2c:	e59f3130 	ldr	r3, [pc, #304]	; 5b64 <LL_write+0x204>
    5a30:	e5933000 	ldr	r3, [r3]
    5a34:	e2431001 	sub	r1, r3, #1
    5a38:	e59f2120 	ldr	r2, [pc, #288]	; 5b60 <LL_write+0x200>
    5a3c:	e3a0303e 	mov	r3, #62	; 0x3e
    5a40:	e7c23001 	strb	r3, [r2, r1]
		SPIWRData[0+SPIWR_num_bytes]='*';
    5a44:	e59f3118 	ldr	r3, [pc, #280]	; 5b64 <LL_write+0x204>
    5a48:	e5931000 	ldr	r1, [r3]
    5a4c:	e59f210c 	ldr	r2, [pc, #268]	; 5b60 <LL_write+0x200>
    5a50:	e3a0302a 	mov	r3, #42	; 0x2a
    5a54:	e7c23001 	strb	r3, [r2, r1]
		SPIWRData[1+SPIWR_num_bytes]='>';
    5a58:	e59f3104 	ldr	r3, [pc, #260]	; 5b64 <LL_write+0x204>
    5a5c:	e5933000 	ldr	r3, [r3]
    5a60:	e2831001 	add	r1, r3, #1
    5a64:	e59f20f4 	ldr	r2, [pc, #244]	; 5b60 <LL_write+0x200>
    5a68:	e3a0303e 	mov	r3, #62	; 0x3e
    5a6c:	e7c23001 	strb	r3, [r2, r1]
		SPIWRData[2+SPIWR_num_bytes]=PD;
    5a70:	e59f30ec 	ldr	r3, [pc, #236]	; 5b64 <LL_write+0x204>
    5a74:	e5933000 	ldr	r3, [r3]
    5a78:	e2831002 	add	r1, r3, #2
    5a7c:	e59f20dc 	ldr	r2, [pc, #220]	; 5b60 <LL_write+0x200>
    5a80:	e55b301c 	ldrb	r3, [fp, #-28]
    5a84:	e7c23001 	strb	r3, [r2, r1]
		for(i=SPIWR_num_bytes; i<cnt+SPIWR_num_bytes; i++)
    5a88:	e59f30d4 	ldr	r3, [pc, #212]	; 5b64 <LL_write+0x204>
    5a8c:	e5933000 	ldr	r3, [r3]
    5a90:	e50b3010 	str	r3, [fp, #-16]
    5a94:	ea00000e 	b	5ad4 <LL_write+0x174>
		{
			SPIWRData[i+3]=data[i-SPIWR_num_bytes];
    5a98:	e51b3010 	ldr	r3, [fp, #-16]
    5a9c:	e2831003 	add	r1, r3, #3
    5aa0:	e59f30bc 	ldr	r3, [pc, #188]	; 5b64 <LL_write+0x204>
    5aa4:	e5932000 	ldr	r2, [r3]
    5aa8:	e51b3010 	ldr	r3, [fp, #-16]
    5aac:	e0623003 	rsb	r3, r2, r3
    5ab0:	e1a02003 	mov	r2, r3
    5ab4:	e51b3014 	ldr	r3, [fp, #-20]
    5ab8:	e0823003 	add	r3, r2, r3
    5abc:	e5d33000 	ldrb	r3, [r3]
    5ac0:	e59f2098 	ldr	r2, [pc, #152]	; 5b60 <LL_write+0x200>
    5ac4:	e7c23001 	strb	r3, [r2, r1]
	{
		SPIWRData[SPIWR_num_bytes-1]='>';
		SPIWRData[0+SPIWR_num_bytes]='*';
		SPIWRData[1+SPIWR_num_bytes]='>';
		SPIWRData[2+SPIWR_num_bytes]=PD;
		for(i=SPIWR_num_bytes; i<cnt+SPIWR_num_bytes; i++)
    5ac8:	e51b3010 	ldr	r3, [fp, #-16]
    5acc:	e2833001 	add	r3, r3, #1
    5ad0:	e50b3010 	str	r3, [fp, #-16]
    5ad4:	e15b21b8 	ldrh	r2, [fp, #-24]	; 0xffffffe8
    5ad8:	e59f3084 	ldr	r3, [pc, #132]	; 5b64 <LL_write+0x204>
    5adc:	e5933000 	ldr	r3, [r3]
    5ae0:	e0822003 	add	r2, r2, r3
    5ae4:	e51b3010 	ldr	r3, [fp, #-16]
    5ae8:	e1520003 	cmp	r2, r3
    5aec:	8affffe9 	bhi	5a98 <LL_write+0x138>
		{
			SPIWRData[i+3]=data[i-SPIWR_num_bytes];
		}
		SPIWR_num_bytes+=cnt+5;
    5af0:	e15b21b8 	ldrh	r2, [fp, #-24]	; 0xffffffe8
    5af4:	e59f3068 	ldr	r3, [pc, #104]	; 5b64 <LL_write+0x204>
    5af8:	e5933000 	ldr	r3, [r3]
    5afc:	e0823003 	add	r3, r2, r3
    5b00:	e2832005 	add	r2, r3, #5
    5b04:	e59f3058 	ldr	r3, [pc, #88]	; 5b64 <LL_write+0x204>
    5b08:	e5832000 	str	r2, [r3]
		SPIWRData[SPIWR_num_bytes-1]=0;
    5b0c:	e59f3050 	ldr	r3, [pc, #80]	; 5b64 <LL_write+0x204>
    5b10:	e5933000 	ldr	r3, [r3]
    5b14:	e2431001 	sub	r1, r3, #1
    5b18:	e59f2040 	ldr	r2, [pc, #64]	; 5b60 <LL_write+0x200>
    5b1c:	e3a03000 	mov	r3, #0
    5b20:	e7c23001 	strb	r3, [r2, r1]
    5b24:	ea000002 	b	5b34 <LL_write+0x1d4>
	}
	else return(0);
    5b28:	e3a03000 	mov	r3, #0
    5b2c:	e50b3020 	str	r3, [fp, #-32]
    5b30:	ea000004 	b	5b48 <LL_write+0x1e8>
	data_sent_to_LL=0;
    5b34:	e59f3020 	ldr	r3, [pc, #32]	; 5b5c <LL_write+0x1fc>
    5b38:	e3a02000 	mov	r2, #0
    5b3c:	e5c32000 	strb	r2, [r3]

	return(1);
    5b40:	e3a03001 	mov	r3, #1
    5b44:	e50b3020 	str	r3, [fp, #-32]
    5b48:	e51b3020 	ldr	r3, [fp, #-32]
}
    5b4c:	e1a00003 	mov	r0, r3
    5b50:	e24bd00c 	sub	sp, fp, #12
    5b54:	e89d6800 	ldm	sp, {fp, sp, lr}
    5b58:	e12fff1e 	bx	lr
    5b5c:	4000000e 	.word	0x4000000e
    5b60:	40001c68 	.word	0x40001c68
    5b64:	40001c60 	.word	0x40001c60

00005b68 <jetiSetKeyChanged>:
unsigned char jetiKeyChanged=0;
unsigned char jetiKey=0;


void jetiSetKeyChanged(unsigned char key)
{
    5b68:	e1a0c00d 	mov	ip, sp
    5b6c:	e92dd800 	push	{fp, ip, lr, pc}
    5b70:	e24cb004 	sub	fp, ip, #4
    5b74:	e24dd004 	sub	sp, sp, #4
    5b78:	e1a03000 	mov	r3, r0
    5b7c:	e54b3010 	strb	r3, [fp, #-16]
	jetiKey=key;
    5b80:	e59f201c 	ldr	r2, [pc, #28]	; 5ba4 <jetiSetKeyChanged+0x3c>
    5b84:	e55b3010 	ldrb	r3, [fp, #-16]
    5b88:	e5c23000 	strb	r3, [r2]
	jetiKeyChanged=1;
    5b8c:	e59f2014 	ldr	r2, [pc, #20]	; 5ba8 <jetiSetKeyChanged+0x40>
    5b90:	e3a03001 	mov	r3, #1
    5b94:	e5c23000 	strb	r3, [r2]
}
    5b98:	e24bd00c 	sub	sp, fp, #12
    5b9c:	e89d6800 	ldm	sp, {fp, sp, lr}
    5ba0:	e12fff1e 	bx	lr
    5ba4:	40000a38 	.word	0x40000a38
    5ba8:	40000a37 	.word	0x40000a37

00005bac <jetiCheckForKeyChange>:


unsigned char jetiCheckForKeyChange(void)
{
    5bac:	e1a0c00d 	mov	ip, sp
    5bb0:	e92dd800 	push	{fp, ip, lr, pc}
    5bb4:	e24cb004 	sub	fp, ip, #4
    5bb8:	e24dd004 	sub	sp, sp, #4
	if (jetiKeyChanged)
    5bbc:	e59f3040 	ldr	r3, [pc, #64]	; 5c04 <jetiCheckForKeyChange+0x58>
    5bc0:	e5d33000 	ldrb	r3, [r3]
    5bc4:	e3530000 	cmp	r3, #0
    5bc8:	0a000006 	beq	5be8 <jetiCheckForKeyChange+0x3c>
	{
		jetiKeyChanged=0;
    5bcc:	e59f2030 	ldr	r2, [pc, #48]	; 5c04 <jetiCheckForKeyChange+0x58>
    5bd0:	e3a03000 	mov	r3, #0
    5bd4:	e5c23000 	strb	r3, [r2]
		return jetiKey;
    5bd8:	e59f3028 	ldr	r3, [pc, #40]	; 5c08 <jetiCheckForKeyChange+0x5c>
    5bdc:	e5d33000 	ldrb	r3, [r3]
    5be0:	e50b3010 	str	r3, [fp, #-16]
    5be4:	ea000001 	b	5bf0 <jetiCheckForKeyChange+0x44>
	}else
		return 0;
    5be8:	e3a03000 	mov	r3, #0
    5bec:	e50b3010 	str	r3, [fp, #-16]
    5bf0:	e51b3010 	ldr	r3, [fp, #-16]
}
    5bf4:	e1a00003 	mov	r0, r3
    5bf8:	e24bd00c 	sub	sp, fp, #12
    5bfc:	e89d6800 	ldm	sp, {fp, sp, lr}
    5c00:	e12fff1e 	bx	lr
    5c04:	40000a37 	.word	0x40000a37
    5c08:	40000a38 	.word	0x40000a38

00005c0c <jetiSetAlarm>:
unsigned char jetiSetAlarm(unsigned char alarm, unsigned alarmType)
{
    5c0c:	e1a0c00d 	mov	ip, sp
    5c10:	e92dd800 	push	{fp, ip, lr, pc}
    5c14:	e24cb004 	sub	fp, ip, #4
    5c18:	e24dd00c 	sub	sp, sp, #12
    5c1c:	e1a03000 	mov	r3, r0
    5c20:	e50b1014 	str	r1, [fp, #-20]
    5c24:	e54b3010 	strb	r3, [fp, #-16]
	if (((alarm<'A')||(alarm>'Z')) && (alarm))
    5c28:	e55b3010 	ldrb	r3, [fp, #-16]
    5c2c:	e3530040 	cmp	r3, #64	; 0x40
    5c30:	9a000002 	bls	5c40 <jetiSetAlarm+0x34>
    5c34:	e55b3010 	ldrb	r3, [fp, #-16]
    5c38:	e353005a 	cmp	r3, #90	; 0x5a
    5c3c:	9a000005 	bls	5c58 <jetiSetAlarm+0x4c>
    5c40:	e55b3010 	ldrb	r3, [fp, #-16]
    5c44:	e3530000 	cmp	r3, #0
    5c48:	0a000002 	beq	5c58 <jetiSetAlarm+0x4c>
		return JETI_ERROR_ALARM_RANGE;
    5c4c:	e3a03050 	mov	r3, #80	; 0x50
    5c50:	e50b3018 	str	r3, [fp, #-24]
    5c54:	ea00000e 	b	5c94 <jetiSetAlarm+0x88>
	if (alarmType>1)
    5c58:	e51b3014 	ldr	r3, [fp, #-20]
    5c5c:	e3530001 	cmp	r3, #1
    5c60:	9a000002 	bls	5c70 <jetiSetAlarm+0x64>
		return JETI_ERROR_ALARM_TYPE;
    5c64:	e3a03051 	mov	r3, #81	; 0x51
    5c68:	e50b3018 	str	r3, [fp, #-24]
    5c6c:	ea000008 	b	5c94 <jetiSetAlarm+0x88>
	jetiAlarm=alarm;
    5c70:	e59f2030 	ldr	r2, [pc, #48]	; 5ca8 <jetiSetAlarm+0x9c>
    5c74:	e55b3010 	ldrb	r3, [fp, #-16]
    5c78:	e5c23000 	strb	r3, [r2]
	jetiAlarmType=alarmType;
    5c7c:	e51b3014 	ldr	r3, [fp, #-20]
    5c80:	e20330ff 	and	r3, r3, #255	; 0xff
    5c84:	e59f2020 	ldr	r2, [pc, #32]	; 5cac <jetiSetAlarm+0xa0>
    5c88:	e5c23000 	strb	r3, [r2]

	return JETI_NO_ERROR;
    5c8c:	e3a03000 	mov	r3, #0
    5c90:	e50b3018 	str	r3, [fp, #-24]
    5c94:	e51b3018 	ldr	r3, [fp, #-24]

}
    5c98:	e1a00003 	mov	r0, r3
    5c9c:	e24bd00c 	sub	sp, fp, #12
    5ca0:	e89d6800 	ldm	sp, {fp, sp, lr}
    5ca4:	e12fff1e 	bx	lr
    5ca8:	40000a34 	.word	0x40000a34
    5cac:	40000a35 	.word	0x40000a35

00005cb0 <jetiSetDeviceName>:

unsigned char jetiSetDeviceName(char * name)
{
    5cb0:	e1a0c00d 	mov	ip, sp
    5cb4:	e92dd800 	push	{fp, ip, lr, pc}
    5cb8:	e24cb004 	sub	fp, ip, #4
    5cbc:	e24dd010 	sub	sp, sp, #16
    5cc0:	e50b001c 	str	r0, [fp, #-28]
	unsigned char nameLength=0;
    5cc4:	e3a03000 	mov	r3, #0
    5cc8:	e54b3015 	strb	r3, [fp, #-21]
	int i;
	unsigned char error=JETI_NO_ERROR;
    5ccc:	e3a03000 	mov	r3, #0
    5cd0:	e54b300d 	strb	r3, [fp, #-13]

	for (i=0;i<11;i++)
    5cd4:	e3a03000 	mov	r3, #0
    5cd8:	e50b3014 	str	r3, [fp, #-20]
    5cdc:	ea000009 	b	5d08 <jetiSetDeviceName+0x58>
		if (name[i]==0)
    5ce0:	e51b3014 	ldr	r3, [fp, #-20]
    5ce4:	e1a02003 	mov	r2, r3
    5ce8:	e51b301c 	ldr	r3, [fp, #-28]
    5cec:	e0823003 	add	r3, r2, r3
    5cf0:	e5d33000 	ldrb	r3, [r3]
    5cf4:	e3530000 	cmp	r3, #0
    5cf8:	0a000005 	beq	5d14 <jetiSetDeviceName+0x64>
{
	unsigned char nameLength=0;
	int i;
	unsigned char error=JETI_NO_ERROR;

	for (i=0;i<11;i++)
    5cfc:	e51b3014 	ldr	r3, [fp, #-20]
    5d00:	e2833001 	add	r3, r3, #1
    5d04:	e50b3014 	str	r3, [fp, #-20]
    5d08:	e51b3014 	ldr	r3, [fp, #-20]
    5d0c:	e353000a 	cmp	r3, #10
    5d10:	dafffff2 	ble	5ce0 <jetiSetDeviceName+0x30>
		if (name[i]==0)
			break;
	if (i==10)
    5d14:	e51b3014 	ldr	r3, [fp, #-20]
    5d18:	e353000a 	cmp	r3, #10
    5d1c:	1a000001 	bne	5d28 <jetiSetDeviceName+0x78>
		error=JETI_ERROR_STRING_NAME;
    5d20:	e3a03013 	mov	r3, #19
    5d24:	e54b300d 	strb	r3, [fp, #-13]

	nameLength=i;
    5d28:	e51b3014 	ldr	r3, [fp, #-20]
    5d2c:	e54b3015 	strb	r3, [fp, #-21]

	memcpy(&jetiName[0],name,nameLength);
    5d30:	e55b1015 	ldrb	r1, [fp, #-21]
    5d34:	e59f3028 	ldr	r3, [pc, #40]	; 5d64 <jetiSetDeviceName+0xb4>
    5d38:	e51b201c 	ldr	r2, [fp, #-28]
    5d3c:	e1a0c001 	mov	ip, r1
    5d40:	e1a00003 	mov	r0, r3
    5d44:	e1a01002 	mov	r1, r2
    5d48:	e1a0200c 	mov	r2, ip
    5d4c:	eb001ecb 	bl	d880 <__memcpy_from_arm>

	return error;
    5d50:	e55b300d 	ldrb	r3, [fp, #-13]
}
    5d54:	e1a00003 	mov	r0, r3
    5d58:	e24bd00c 	sub	sp, fp, #12
    5d5c:	e89d6800 	ldm	sp, {fp, sp, lr}
    5d60:	e12fff1e 	bx	lr
    5d64:	40001ed2 	.word	0x40001ed2

00005d68 <jetiActivateValue>:

unsigned char jetiActivateValue(unsigned char id)
{
    5d68:	e1a0c00d 	mov	ip, sp
    5d6c:	e92dd800 	push	{fp, ip, lr, pc}
    5d70:	e24cb004 	sub	fp, ip, #4
    5d74:	e24dd008 	sub	sp, sp, #8
    5d78:	e1a03000 	mov	r3, r0
    5d7c:	e54b3010 	strb	r3, [fp, #-16]
	if (id>14)
    5d80:	e55b3010 	ldrb	r3, [fp, #-16]
    5d84:	e353000e 	cmp	r3, #14
    5d88:	9a000002 	bls	5d98 <jetiActivateValue+0x30>
		return JETI_ERROR_ID_RANGE;
    5d8c:	e3a03001 	mov	r3, #1
    5d90:	e50b3014 	str	r3, [fp, #-20]
    5d94:	ea00000f 	b	5dd8 <jetiActivateValue+0x70>
	jetiValues[id].active=id+1;
    5d98:	e55b2010 	ldrb	r2, [fp, #-16]
    5d9c:	e55b3010 	ldrb	r3, [fp, #-16]
    5da0:	e2833001 	add	r3, r3, #1
    5da4:	e20310ff 	and	r1, r3, #255	; 0xff
    5da8:	e59f003c 	ldr	r0, [pc, #60]	; 5dec <jetiActivateValue+0x84>
    5dac:	e1a03002 	mov	r3, r2
    5db0:	e1a03103 	lsl	r3, r3, #2
    5db4:	e0833002 	add	r3, r3, r2
    5db8:	e1a03083 	lsl	r3, r3, #1
    5dbc:	e0833002 	add	r3, r3, r2
    5dc0:	e1a03083 	lsl	r3, r3, #1
    5dc4:	e0832000 	add	r2, r3, r0
    5dc8:	e1a03001 	mov	r3, r1
    5dcc:	e5c23000 	strb	r3, [r2]

	return JETI_NO_ERROR;
    5dd0:	e3a03000 	mov	r3, #0
    5dd4:	e50b3014 	str	r3, [fp, #-20]
    5dd8:	e51b3014 	ldr	r3, [fp, #-20]
}
    5ddc:	e1a00003 	mov	r0, r3
    5de0:	e24bd00c 	sub	sp, fp, #12
    5de4:	e89d6800 	ldm	sp, {fp, sp, lr}
    5de8:	e12fff1e 	bx	lr
    5dec:	40001d88 	.word	0x40001d88

00005df0 <jetiDeactivateValue>:

unsigned char jetiDeactivateValue(unsigned char id)
{
    5df0:	e1a0c00d 	mov	ip, sp
    5df4:	e92dd800 	push	{fp, ip, lr, pc}
    5df8:	e24cb004 	sub	fp, ip, #4
    5dfc:	e24dd008 	sub	sp, sp, #8
    5e00:	e1a03000 	mov	r3, r0
    5e04:	e54b3010 	strb	r3, [fp, #-16]
	if (id>14)
    5e08:	e55b3010 	ldrb	r3, [fp, #-16]
    5e0c:	e353000e 	cmp	r3, #14
    5e10:	9a000002 	bls	5e20 <jetiDeactivateValue+0x30>
		return JETI_ERROR_ID_RANGE;
    5e14:	e3a03001 	mov	r3, #1
    5e18:	e50b3014 	str	r3, [fp, #-20]
    5e1c:	ea00000c 	b	5e54 <jetiDeactivateValue+0x64>
	jetiValues[id].active=0;
    5e20:	e55b2010 	ldrb	r2, [fp, #-16]
    5e24:	e59f103c 	ldr	r1, [pc, #60]	; 5e68 <jetiDeactivateValue+0x78>
    5e28:	e1a03002 	mov	r3, r2
    5e2c:	e1a03103 	lsl	r3, r3, #2
    5e30:	e0833002 	add	r3, r3, r2
    5e34:	e1a03083 	lsl	r3, r3, #1
    5e38:	e0833002 	add	r3, r3, r2
    5e3c:	e1a03083 	lsl	r3, r3, #1
    5e40:	e0832001 	add	r2, r3, r1
    5e44:	e3a03000 	mov	r3, #0
    5e48:	e5c23000 	strb	r3, [r2]

	return JETI_NO_ERROR;
    5e4c:	e3a03000 	mov	r3, #0
    5e50:	e50b3014 	str	r3, [fp, #-20]
    5e54:	e51b3014 	ldr	r3, [fp, #-20]
}
    5e58:	e1a00003 	mov	r0, r3
    5e5c:	e24bd00c 	sub	sp, fp, #12
    5e60:	e89d6800 	ldm	sp, {fp, sp, lr}
    5e64:	e12fff1e 	bx	lr
    5e68:	40001d88 	.word	0x40001d88

00005e6c <jetiSetDecimalPoint>:

unsigned char jetiSetDecimalPoint(unsigned char id, unsigned char decimalPoint)
{
    5e6c:	e1a0c00d 	mov	ip, sp
    5e70:	e92dd800 	push	{fp, ip, lr, pc}
    5e74:	e24cb004 	sub	fp, ip, #4
    5e78:	e24dd00c 	sub	sp, sp, #12
    5e7c:	e1a03000 	mov	r3, r0
    5e80:	e1a02001 	mov	r2, r1
    5e84:	e54b3010 	strb	r3, [fp, #-16]
    5e88:	e1a03002 	mov	r3, r2
    5e8c:	e54b3014 	strb	r3, [fp, #-20]
	if (id>14)
    5e90:	e55b3010 	ldrb	r3, [fp, #-16]
    5e94:	e353000e 	cmp	r3, #14
    5e98:	9a000002 	bls	5ea8 <jetiSetDecimalPoint+0x3c>
		return JETI_ERROR_ID_RANGE;
    5e9c:	e3a03001 	mov	r3, #1
    5ea0:	e50b3018 	str	r3, [fp, #-24]
    5ea4:	ea000014 	b	5efc <jetiSetDecimalPoint+0x90>
	if (decimalPoint>3)
    5ea8:	e55b3014 	ldrb	r3, [fp, #-20]
    5eac:	e3530003 	cmp	r3, #3
    5eb0:	9a000002 	bls	5ec0 <jetiSetDecimalPoint+0x54>
		return JETI_ERROR_DECPOINT_RANGE;
    5eb4:	e3a03030 	mov	r3, #48	; 0x30
    5eb8:	e50b3018 	str	r3, [fp, #-24]
    5ebc:	ea00000e 	b	5efc <jetiSetDecimalPoint+0x90>
	jetiValues[id].decPoint=decimalPoint;
    5ec0:	e55b2010 	ldrb	r2, [fp, #-16]
    5ec4:	e59f1044 	ldr	r1, [pc, #68]	; 5f10 <jetiSetDecimalPoint+0xa4>
    5ec8:	e3a00011 	mov	r0, #17
    5ecc:	e1a03002 	mov	r3, r2
    5ed0:	e1a03103 	lsl	r3, r3, #2
    5ed4:	e0833002 	add	r3, r3, r2
    5ed8:	e1a03083 	lsl	r3, r3, #1
    5edc:	e0833002 	add	r3, r3, r2
    5ee0:	e1a03083 	lsl	r3, r3, #1
    5ee4:	e0833001 	add	r3, r3, r1
    5ee8:	e0832000 	add	r2, r3, r0
    5eec:	e55b3014 	ldrb	r3, [fp, #-20]
    5ef0:	e5c23000 	strb	r3, [r2]
	return JETI_NO_ERROR;
    5ef4:	e3a03000 	mov	r3, #0
    5ef8:	e50b3018 	str	r3, [fp, #-24]
    5efc:	e51b3018 	ldr	r3, [fp, #-24]
}
    5f00:	e1a00003 	mov	r0, r3
    5f04:	e24bd00c 	sub	sp, fp, #12
    5f08:	e89d6800 	ldm	sp, {fp, sp, lr}
    5f0c:	e12fff1e 	bx	lr
    5f10:	40001d88 	.word	0x40001d88

00005f14 <jetiSetValue30B>:

unsigned char jetiSetValue30B(unsigned char id, int value)
{
    5f14:	e1a0c00d 	mov	ip, sp
    5f18:	e92dd800 	push	{fp, ip, lr, pc}
    5f1c:	e24cb004 	sub	fp, ip, #4
    5f20:	e24dd00c 	sub	sp, sp, #12
    5f24:	e1a03000 	mov	r3, r0
    5f28:	e50b1014 	str	r1, [fp, #-20]
    5f2c:	e54b3010 	strb	r3, [fp, #-16]
	if (id>14)
    5f30:	e55b3010 	ldrb	r3, [fp, #-16]
    5f34:	e353000e 	cmp	r3, #14
    5f38:	9a000002 	bls	5f48 <jetiSetValue30B+0x34>
		return JETI_ERROR_ID_RANGE;
    5f3c:	e3a03001 	mov	r3, #1
    5f40:	e50b3018 	str	r3, [fp, #-24]
    5f44:	ea000048 	b	606c <jetiSetValue30B+0x158>

	if ((value>=(1<<30)) || (value<=-(1<<30)))
    5f48:	e51b3014 	ldr	r3, [fp, #-20]
    5f4c:	e3730107 	cmn	r3, #-1073741823	; 0xc0000001
    5f50:	ca000002 	bgt	5f60 <jetiSetValue30B+0x4c>
    5f54:	e51b3014 	ldr	r3, [fp, #-20]
    5f58:	e3530103 	cmp	r3, #-1073741824	; 0xc0000000
    5f5c:	ca000002 	bgt	5f6c <jetiSetValue30B+0x58>
		return JETI_ERROR_VALUE_RANGE;
    5f60:	e3a03020 	mov	r3, #32
    5f64:	e50b3018 	str	r3, [fp, #-24]
    5f68:	ea00003f 	b	606c <jetiSetValue30B+0x158>

	jetiValues[id].value=value;
    5f6c:	e55b2010 	ldrb	r2, [fp, #-16]
    5f70:	e59f1108 	ldr	r1, [pc, #264]	; 6080 <jetiSetValue30B+0x16c>
    5f74:	e3a00010 	mov	r0, #16
    5f78:	e1a03002 	mov	r3, r2
    5f7c:	e1a03103 	lsl	r3, r3, #2
    5f80:	e0833002 	add	r3, r3, r2
    5f84:	e1a03083 	lsl	r3, r3, #1
    5f88:	e0833002 	add	r3, r3, r2
    5f8c:	e1a03083 	lsl	r3, r3, #1
    5f90:	e0833001 	add	r3, r3, r1
    5f94:	e0830000 	add	r0, r3, r0
    5f98:	e55b1014 	ldrb	r1, [fp, #-20]
    5f9c:	e3a03000 	mov	r3, #0
    5fa0:	e1a02003 	mov	r2, r3
    5fa4:	e1a03001 	mov	r3, r1
    5fa8:	e1823003 	orr	r3, r2, r3
    5fac:	e5c03002 	strb	r3, [r0, #2]
    5fb0:	e55b1013 	ldrb	r1, [fp, #-19]
    5fb4:	e3a03000 	mov	r3, #0
    5fb8:	e1a02003 	mov	r2, r3
    5fbc:	e1a03001 	mov	r3, r1
    5fc0:	e1823003 	orr	r3, r2, r3
    5fc4:	e5c03003 	strb	r3, [r0, #3]
    5fc8:	e55b1012 	ldrb	r1, [fp, #-18]
    5fcc:	e3a03000 	mov	r3, #0
    5fd0:	e1a02003 	mov	r2, r3
    5fd4:	e1a03001 	mov	r3, r1
    5fd8:	e1823003 	orr	r3, r2, r3
    5fdc:	e5c03004 	strb	r3, [r0, #4]
    5fe0:	e55b1011 	ldrb	r1, [fp, #-17]
    5fe4:	e3a03000 	mov	r3, #0
    5fe8:	e1a02003 	mov	r2, r3
    5fec:	e1a03001 	mov	r3, r1
    5ff0:	e1823003 	orr	r3, r2, r3
    5ff4:	e5c03005 	strb	r3, [r0, #5]
	if (jetiValues[id].varType!=JETI_VART_30B)
    5ff8:	e55b2010 	ldrb	r2, [fp, #-16]
    5ffc:	e59f107c 	ldr	r1, [pc, #124]	; 6080 <jetiSetValue30B+0x16c>
    6000:	e3a00010 	mov	r0, #16
    6004:	e1a03002 	mov	r3, r2
    6008:	e1a03103 	lsl	r3, r3, #2
    600c:	e0833002 	add	r3, r3, r2
    6010:	e1a03083 	lsl	r3, r3, #1
    6014:	e0833002 	add	r3, r3, r2
    6018:	e1a03083 	lsl	r3, r3, #1
    601c:	e0833001 	add	r3, r3, r1
    6020:	e0833000 	add	r3, r3, r0
    6024:	e5d33000 	ldrb	r3, [r3]
    6028:	e3530048 	cmp	r3, #72	; 0x48
    602c:	0a00000c 	beq	6064 <jetiSetValue30B+0x150>
	{
		jetiValues[id].varType=JETI_VART_30B;
    6030:	e55b2010 	ldrb	r2, [fp, #-16]
    6034:	e59f1044 	ldr	r1, [pc, #68]	; 6080 <jetiSetValue30B+0x16c>
    6038:	e3a00010 	mov	r0, #16
    603c:	e1a03002 	mov	r3, r2
    6040:	e1a03103 	lsl	r3, r3, #2
    6044:	e0833002 	add	r3, r3, r2
    6048:	e1a03083 	lsl	r3, r3, #1
    604c:	e0833002 	add	r3, r3, r2
    6050:	e1a03083 	lsl	r3, r3, #1
    6054:	e0833001 	add	r3, r3, r1
    6058:	e0832000 	add	r2, r3, r0
    605c:	e3a03048 	mov	r3, #72	; 0x48
    6060:	e5c23000 	strb	r3, [r2]
	}

	return JETI_NO_ERROR;
    6064:	e3a03000 	mov	r3, #0
    6068:	e50b3018 	str	r3, [fp, #-24]
    606c:	e51b3018 	ldr	r3, [fp, #-24]

}
    6070:	e1a00003 	mov	r0, r3
    6074:	e24bd00c 	sub	sp, fp, #12
    6078:	e89d6800 	ldm	sp, {fp, sp, lr}
    607c:	e12fff1e 	bx	lr
    6080:	40001d88 	.word	0x40001d88

00006084 <jetiSetValue22B>:

unsigned char jetiSetValue22B(unsigned char id, int value)
{
    6084:	e1a0c00d 	mov	ip, sp
    6088:	e92dd800 	push	{fp, ip, lr, pc}
    608c:	e24cb004 	sub	fp, ip, #4
    6090:	e24dd00c 	sub	sp, sp, #12
    6094:	e1a03000 	mov	r3, r0
    6098:	e50b1014 	str	r1, [fp, #-20]
    609c:	e54b3010 	strb	r3, [fp, #-16]
	if (id>14)
    60a0:	e55b3010 	ldrb	r3, [fp, #-16]
    60a4:	e353000e 	cmp	r3, #14
    60a8:	9a000002 	bls	60b8 <jetiSetValue22B+0x34>
		return JETI_ERROR_ID_RANGE;
    60ac:	e3a03001 	mov	r3, #1
    60b0:	e50b3018 	str	r3, [fp, #-24]
    60b4:	ea00004a 	b	61e4 <jetiSetValue22B+0x160>
	if ((value>=(1<<23)) || (value<=-(1<<23)))
    60b8:	e51b2014 	ldr	r2, [fp, #-20]
    60bc:	e3a03502 	mov	r3, #8388608	; 0x800000
    60c0:	e2433001 	sub	r3, r3, #1
    60c4:	e1520003 	cmp	r2, r3
    60c8:	ca000002 	bgt	60d8 <jetiSetValue22B+0x54>
    60cc:	e51b3014 	ldr	r3, [fp, #-20]
    60d0:	e3730502 	cmn	r3, #8388608	; 0x800000
    60d4:	ca000002 	bgt	60e4 <jetiSetValue22B+0x60>
		return JETI_ERROR_VALUE_RANGE;
    60d8:	e3a03020 	mov	r3, #32
    60dc:	e50b3018 	str	r3, [fp, #-24]
    60e0:	ea00003f 	b	61e4 <jetiSetValue22B+0x160>

	jetiValues[id].value=value;
    60e4:	e55b2010 	ldrb	r2, [fp, #-16]
    60e8:	e59f1108 	ldr	r1, [pc, #264]	; 61f8 <jetiSetValue22B+0x174>
    60ec:	e3a00010 	mov	r0, #16
    60f0:	e1a03002 	mov	r3, r2
    60f4:	e1a03103 	lsl	r3, r3, #2
    60f8:	e0833002 	add	r3, r3, r2
    60fc:	e1a03083 	lsl	r3, r3, #1
    6100:	e0833002 	add	r3, r3, r2
    6104:	e1a03083 	lsl	r3, r3, #1
    6108:	e0833001 	add	r3, r3, r1
    610c:	e0830000 	add	r0, r3, r0
    6110:	e55b1014 	ldrb	r1, [fp, #-20]
    6114:	e3a03000 	mov	r3, #0
    6118:	e1a02003 	mov	r2, r3
    611c:	e1a03001 	mov	r3, r1
    6120:	e1823003 	orr	r3, r2, r3
    6124:	e5c03002 	strb	r3, [r0, #2]
    6128:	e55b1013 	ldrb	r1, [fp, #-19]
    612c:	e3a03000 	mov	r3, #0
    6130:	e1a02003 	mov	r2, r3
    6134:	e1a03001 	mov	r3, r1
    6138:	e1823003 	orr	r3, r2, r3
    613c:	e5c03003 	strb	r3, [r0, #3]
    6140:	e55b1012 	ldrb	r1, [fp, #-18]
    6144:	e3a03000 	mov	r3, #0
    6148:	e1a02003 	mov	r2, r3
    614c:	e1a03001 	mov	r3, r1
    6150:	e1823003 	orr	r3, r2, r3
    6154:	e5c03004 	strb	r3, [r0, #4]
    6158:	e55b1011 	ldrb	r1, [fp, #-17]
    615c:	e3a03000 	mov	r3, #0
    6160:	e1a02003 	mov	r2, r3
    6164:	e1a03001 	mov	r3, r1
    6168:	e1823003 	orr	r3, r2, r3
    616c:	e5c03005 	strb	r3, [r0, #5]
	if (jetiValues[id].varType!=JETI_VART_22B)
    6170:	e55b2010 	ldrb	r2, [fp, #-16]
    6174:	e59f107c 	ldr	r1, [pc, #124]	; 61f8 <jetiSetValue22B+0x174>
    6178:	e3a00010 	mov	r0, #16
    617c:	e1a03002 	mov	r3, r2
    6180:	e1a03103 	lsl	r3, r3, #2
    6184:	e0833002 	add	r3, r3, r2
    6188:	e1a03083 	lsl	r3, r3, #1
    618c:	e0833002 	add	r3, r3, r2
    6190:	e1a03083 	lsl	r3, r3, #1
    6194:	e0833001 	add	r3, r3, r1
    6198:	e0833000 	add	r3, r3, r0
    619c:	e5d33000 	ldrb	r3, [r3]
    61a0:	e3530034 	cmp	r3, #52	; 0x34
    61a4:	0a00000c 	beq	61dc <jetiSetValue22B+0x158>
	{
		jetiValues[id].varType=JETI_VART_22B;
    61a8:	e55b2010 	ldrb	r2, [fp, #-16]
    61ac:	e59f1044 	ldr	r1, [pc, #68]	; 61f8 <jetiSetValue22B+0x174>
    61b0:	e3a00010 	mov	r0, #16
    61b4:	e1a03002 	mov	r3, r2
    61b8:	e1a03103 	lsl	r3, r3, #2
    61bc:	e0833002 	add	r3, r3, r2
    61c0:	e1a03083 	lsl	r3, r3, #1
    61c4:	e0833002 	add	r3, r3, r2
    61c8:	e1a03083 	lsl	r3, r3, #1
    61cc:	e0833001 	add	r3, r3, r1
    61d0:	e0832000 	add	r2, r3, r0
    61d4:	e3a03034 	mov	r3, #52	; 0x34
    61d8:	e5c23000 	strb	r3, [r2]
	}

	return JETI_NO_ERROR;
    61dc:	e3a03000 	mov	r3, #0
    61e0:	e50b3018 	str	r3, [fp, #-24]
    61e4:	e51b3018 	ldr	r3, [fp, #-24]
}
    61e8:	e1a00003 	mov	r0, r3
    61ec:	e24bd00c 	sub	sp, fp, #12
    61f0:	e89d6800 	ldm	sp, {fp, sp, lr}
    61f4:	e12fff1e 	bx	lr
    61f8:	40001d88 	.word	0x40001d88

000061fc <jetiSetValue6B>:

unsigned char jetiSetValue6B(unsigned char id, int value)
{
    61fc:	e1a0c00d 	mov	ip, sp
    6200:	e92dd800 	push	{fp, ip, lr, pc}
    6204:	e24cb004 	sub	fp, ip, #4
    6208:	e24dd00c 	sub	sp, sp, #12
    620c:	e1a03000 	mov	r3, r0
    6210:	e50b1014 	str	r1, [fp, #-20]
    6214:	e54b3010 	strb	r3, [fp, #-16]
	if (id>14)
    6218:	e55b3010 	ldrb	r3, [fp, #-16]
    621c:	e353000e 	cmp	r3, #14
    6220:	9a000002 	bls	6230 <jetiSetValue6B+0x34>
		return JETI_ERROR_ID_RANGE;
    6224:	e3a03001 	mov	r3, #1
    6228:	e50b3018 	str	r3, [fp, #-24]
    622c:	ea000048 	b	6354 <jetiSetValue6B+0x158>

	if ((value>=(1<<7)) || (value<=-(1<<7)))
    6230:	e51b3014 	ldr	r3, [fp, #-20]
    6234:	e353007f 	cmp	r3, #127	; 0x7f
    6238:	ca000002 	bgt	6248 <jetiSetValue6B+0x4c>
    623c:	e51b3014 	ldr	r3, [fp, #-20]
    6240:	e3730080 	cmn	r3, #128	; 0x80
    6244:	ca000002 	bgt	6254 <jetiSetValue6B+0x58>
		return JETI_ERROR_VALUE_RANGE;
    6248:	e3a03020 	mov	r3, #32
    624c:	e50b3018 	str	r3, [fp, #-24]
    6250:	ea00003f 	b	6354 <jetiSetValue6B+0x158>

	jetiValues[id].value=value;
    6254:	e55b2010 	ldrb	r2, [fp, #-16]
    6258:	e59f1108 	ldr	r1, [pc, #264]	; 6368 <jetiSetValue6B+0x16c>
    625c:	e3a00010 	mov	r0, #16
    6260:	e1a03002 	mov	r3, r2
    6264:	e1a03103 	lsl	r3, r3, #2
    6268:	e0833002 	add	r3, r3, r2
    626c:	e1a03083 	lsl	r3, r3, #1
    6270:	e0833002 	add	r3, r3, r2
    6274:	e1a03083 	lsl	r3, r3, #1
    6278:	e0833001 	add	r3, r3, r1
    627c:	e0830000 	add	r0, r3, r0
    6280:	e55b1014 	ldrb	r1, [fp, #-20]
    6284:	e3a03000 	mov	r3, #0
    6288:	e1a02003 	mov	r2, r3
    628c:	e1a03001 	mov	r3, r1
    6290:	e1823003 	orr	r3, r2, r3
    6294:	e5c03002 	strb	r3, [r0, #2]
    6298:	e55b1013 	ldrb	r1, [fp, #-19]
    629c:	e3a03000 	mov	r3, #0
    62a0:	e1a02003 	mov	r2, r3
    62a4:	e1a03001 	mov	r3, r1
    62a8:	e1823003 	orr	r3, r2, r3
    62ac:	e5c03003 	strb	r3, [r0, #3]
    62b0:	e55b1012 	ldrb	r1, [fp, #-18]
    62b4:	e3a03000 	mov	r3, #0
    62b8:	e1a02003 	mov	r2, r3
    62bc:	e1a03001 	mov	r3, r1
    62c0:	e1823003 	orr	r3, r2, r3
    62c4:	e5c03004 	strb	r3, [r0, #4]
    62c8:	e55b1011 	ldrb	r1, [fp, #-17]
    62cc:	e3a03000 	mov	r3, #0
    62d0:	e1a02003 	mov	r2, r3
    62d4:	e1a03001 	mov	r3, r1
    62d8:	e1823003 	orr	r3, r2, r3
    62dc:	e5c03005 	strb	r3, [r0, #5]
	if (jetiValues[id].varType!=JETI_VART_6B)
    62e0:	e55b2010 	ldrb	r2, [fp, #-16]
    62e4:	e59f107c 	ldr	r1, [pc, #124]	; 6368 <jetiSetValue6B+0x16c>
    62e8:	e3a00010 	mov	r0, #16
    62ec:	e1a03002 	mov	r3, r2
    62f0:	e1a03103 	lsl	r3, r3, #2
    62f4:	e0833002 	add	r3, r3, r2
    62f8:	e1a03083 	lsl	r3, r3, #1
    62fc:	e0833002 	add	r3, r3, r2
    6300:	e1a03083 	lsl	r3, r3, #1
    6304:	e0833001 	add	r3, r3, r1
    6308:	e0833000 	add	r3, r3, r0
    630c:	e5d33000 	ldrb	r3, [r3]
    6310:	e3530010 	cmp	r3, #16
    6314:	0a00000c 	beq	634c <jetiSetValue6B+0x150>
	{
		jetiValues[id].varType=JETI_VART_6B;
    6318:	e55b2010 	ldrb	r2, [fp, #-16]
    631c:	e59f1044 	ldr	r1, [pc, #68]	; 6368 <jetiSetValue6B+0x16c>
    6320:	e3a00010 	mov	r0, #16
    6324:	e1a03002 	mov	r3, r2
    6328:	e1a03103 	lsl	r3, r3, #2
    632c:	e0833002 	add	r3, r3, r2
    6330:	e1a03083 	lsl	r3, r3, #1
    6334:	e0833002 	add	r3, r3, r2
    6338:	e1a03083 	lsl	r3, r3, #1
    633c:	e0833001 	add	r3, r3, r1
    6340:	e0832000 	add	r2, r3, r0
    6344:	e3a03010 	mov	r3, #16
    6348:	e5c23000 	strb	r3, [r2]
	}

	return JETI_NO_ERROR;
    634c:	e3a03000 	mov	r3, #0
    6350:	e50b3018 	str	r3, [fp, #-24]
    6354:	e51b3018 	ldr	r3, [fp, #-24]
}
    6358:	e1a00003 	mov	r0, r3
    635c:	e24bd00c 	sub	sp, fp, #12
    6360:	e89d6800 	ldm	sp, {fp, sp, lr}
    6364:	e12fff1e 	bx	lr
    6368:	40001d88 	.word	0x40001d88

0000636c <jetiSetValue14B>:

unsigned char jetiSetValue14B(unsigned char id, int value)
{
    636c:	e1a0c00d 	mov	ip, sp
    6370:	e92dd800 	push	{fp, ip, lr, pc}
    6374:	e24cb004 	sub	fp, ip, #4
    6378:	e24dd00c 	sub	sp, sp, #12
    637c:	e1a03000 	mov	r3, r0
    6380:	e50b1014 	str	r1, [fp, #-20]
    6384:	e54b3010 	strb	r3, [fp, #-16]
	if (id>14)
    6388:	e55b3010 	ldrb	r3, [fp, #-16]
    638c:	e353000e 	cmp	r3, #14
    6390:	9a000002 	bls	63a0 <jetiSetValue14B+0x34>
		return JETI_ERROR_ID_RANGE;
    6394:	e3a03001 	mov	r3, #1
    6398:	e50b3018 	str	r3, [fp, #-24]
    639c:	ea00004a 	b	64cc <jetiSetValue14B+0x160>

	if ((value>=(1<<15)) || (value<=-(1<<15)))
    63a0:	e51b2014 	ldr	r2, [fp, #-20]
    63a4:	e3a03c7f 	mov	r3, #32512	; 0x7f00
    63a8:	e28330ff 	add	r3, r3, #255	; 0xff
    63ac:	e1520003 	cmp	r2, r3
    63b0:	ca000002 	bgt	63c0 <jetiSetValue14B+0x54>
    63b4:	e51b3014 	ldr	r3, [fp, #-20]
    63b8:	e3730902 	cmn	r3, #32768	; 0x8000
    63bc:	ca000002 	bgt	63cc <jetiSetValue14B+0x60>
		return JETI_ERROR_VALUE_RANGE;
    63c0:	e3a03020 	mov	r3, #32
    63c4:	e50b3018 	str	r3, [fp, #-24]
    63c8:	ea00003f 	b	64cc <jetiSetValue14B+0x160>

	jetiValues[id].value=value;
    63cc:	e55b2010 	ldrb	r2, [fp, #-16]
    63d0:	e59f1108 	ldr	r1, [pc, #264]	; 64e0 <jetiSetValue14B+0x174>
    63d4:	e3a00010 	mov	r0, #16
    63d8:	e1a03002 	mov	r3, r2
    63dc:	e1a03103 	lsl	r3, r3, #2
    63e0:	e0833002 	add	r3, r3, r2
    63e4:	e1a03083 	lsl	r3, r3, #1
    63e8:	e0833002 	add	r3, r3, r2
    63ec:	e1a03083 	lsl	r3, r3, #1
    63f0:	e0833001 	add	r3, r3, r1
    63f4:	e0830000 	add	r0, r3, r0
    63f8:	e55b1014 	ldrb	r1, [fp, #-20]
    63fc:	e3a03000 	mov	r3, #0
    6400:	e1a02003 	mov	r2, r3
    6404:	e1a03001 	mov	r3, r1
    6408:	e1823003 	orr	r3, r2, r3
    640c:	e5c03002 	strb	r3, [r0, #2]
    6410:	e55b1013 	ldrb	r1, [fp, #-19]
    6414:	e3a03000 	mov	r3, #0
    6418:	e1a02003 	mov	r2, r3
    641c:	e1a03001 	mov	r3, r1
    6420:	e1823003 	orr	r3, r2, r3
    6424:	e5c03003 	strb	r3, [r0, #3]
    6428:	e55b1012 	ldrb	r1, [fp, #-18]
    642c:	e3a03000 	mov	r3, #0
    6430:	e1a02003 	mov	r2, r3
    6434:	e1a03001 	mov	r3, r1
    6438:	e1823003 	orr	r3, r2, r3
    643c:	e5c03004 	strb	r3, [r0, #4]
    6440:	e55b1011 	ldrb	r1, [fp, #-17]
    6444:	e3a03000 	mov	r3, #0
    6448:	e1a02003 	mov	r2, r3
    644c:	e1a03001 	mov	r3, r1
    6450:	e1823003 	orr	r3, r2, r3
    6454:	e5c03005 	strb	r3, [r0, #5]
	if (jetiValues[id].varType!=JETI_VART_14B)
    6458:	e55b2010 	ldrb	r2, [fp, #-16]
    645c:	e59f107c 	ldr	r1, [pc, #124]	; 64e0 <jetiSetValue14B+0x174>
    6460:	e3a00010 	mov	r0, #16
    6464:	e1a03002 	mov	r3, r2
    6468:	e1a03103 	lsl	r3, r3, #2
    646c:	e0833002 	add	r3, r3, r2
    6470:	e1a03083 	lsl	r3, r3, #1
    6474:	e0833002 	add	r3, r3, r2
    6478:	e1a03083 	lsl	r3, r3, #1
    647c:	e0833001 	add	r3, r3, r1
    6480:	e0833000 	add	r3, r3, r0
    6484:	e5d33000 	ldrb	r3, [r3]
    6488:	e3530021 	cmp	r3, #33	; 0x21
    648c:	0a00000c 	beq	64c4 <jetiSetValue14B+0x158>
	{
		jetiValues[id].varType=JETI_VART_14B;
    6490:	e55b2010 	ldrb	r2, [fp, #-16]
    6494:	e59f1044 	ldr	r1, [pc, #68]	; 64e0 <jetiSetValue14B+0x174>
    6498:	e3a00010 	mov	r0, #16
    649c:	e1a03002 	mov	r3, r2
    64a0:	e1a03103 	lsl	r3, r3, #2
    64a4:	e0833002 	add	r3, r3, r2
    64a8:	e1a03083 	lsl	r3, r3, #1
    64ac:	e0833002 	add	r3, r3, r2
    64b0:	e1a03083 	lsl	r3, r3, #1
    64b4:	e0833001 	add	r3, r3, r1
    64b8:	e0832000 	add	r2, r3, r0
    64bc:	e3a03021 	mov	r3, #33	; 0x21
    64c0:	e5c23000 	strb	r3, [r2]
	}

	return JETI_NO_ERROR;
    64c4:	e3a03000 	mov	r3, #0
    64c8:	e50b3018 	str	r3, [fp, #-24]
    64cc:	e51b3018 	ldr	r3, [fp, #-24]

}
    64d0:	e1a00003 	mov	r0, r3
    64d4:	e24bd00c 	sub	sp, fp, #12
    64d8:	e89d6800 	ldm	sp, {fp, sp, lr}
    64dc:	e12fff1e 	bx	lr
    64e0:	40001d88 	.word	0x40001d88

000064e4 <jetiSetValueTime>:

unsigned char jetiSetValueTime(unsigned char id, unsigned char hours, unsigned char minutes, unsigned char seconds)
{
    64e4:	e1a0c00d 	mov	ip, sp
    64e8:	e92dd800 	push	{fp, ip, lr, pc}
    64ec:	e24cb004 	sub	fp, ip, #4
    64f0:	e24dd018 	sub	sp, sp, #24
    64f4:	e1a0c003 	mov	ip, r3
    64f8:	e1a03000 	mov	r3, r0
    64fc:	e54b3014 	strb	r3, [fp, #-20]
    6500:	e1a03001 	mov	r3, r1
    6504:	e54b3018 	strb	r3, [fp, #-24]
    6508:	e1a03002 	mov	r3, r2
    650c:	e54b301c 	strb	r3, [fp, #-28]
    6510:	e1a0300c 	mov	r3, ip
    6514:	e54b3020 	strb	r3, [fp, #-32]
	unsigned int value;
	if (id>14)
    6518:	e55b3014 	ldrb	r3, [fp, #-20]
    651c:	e353000e 	cmp	r3, #14
    6520:	9a000002 	bls	6530 <jetiSetValueTime+0x4c>
		return JETI_ERROR_ID_RANGE;
    6524:	e3a03001 	mov	r3, #1
    6528:	e50b3024 	str	r3, [fp, #-36]	; 0x24
    652c:	ea000058 	b	6694 <jetiSetValueTime+0x1b0>
	if (seconds>59)
    6530:	e55b3020 	ldrb	r3, [fp, #-32]
    6534:	e353003b 	cmp	r3, #59	; 0x3b
    6538:	9a000002 	bls	6548 <jetiSetValueTime+0x64>
		return JETI_ERROR_SECOND;
    653c:	e3a03046 	mov	r3, #70	; 0x46
    6540:	e50b3024 	str	r3, [fp, #-36]	; 0x24
    6544:	ea000052 	b	6694 <jetiSetValueTime+0x1b0>
	if (minutes>59)
    6548:	e55b301c 	ldrb	r3, [fp, #-28]
    654c:	e353003b 	cmp	r3, #59	; 0x3b
    6550:	9a000002 	bls	6560 <jetiSetValueTime+0x7c>
		return JETI_ERROR_MINUTE;
    6554:	e3a03045 	mov	r3, #69	; 0x45
    6558:	e50b3024 	str	r3, [fp, #-36]	; 0x24
    655c:	ea00004c 	b	6694 <jetiSetValueTime+0x1b0>
	if (hours>23)
    6560:	e55b3018 	ldrb	r3, [fp, #-24]
    6564:	e3530017 	cmp	r3, #23
    6568:	9a000002 	bls	6578 <jetiSetValueTime+0x94>
		return JETI_ERROR_HOUR;
    656c:	e3a03044 	mov	r3, #68	; 0x44
    6570:	e50b3024 	str	r3, [fp, #-36]	; 0x24
    6574:	ea000046 	b	6694 <jetiSetValueTime+0x1b0>

	value=seconds;
    6578:	e55b3020 	ldrb	r3, [fp, #-32]
    657c:	e50b3010 	str	r3, [fp, #-16]
	value|=minutes<<8;
    6580:	e55b301c 	ldrb	r3, [fp, #-28]
    6584:	e1a03403 	lsl	r3, r3, #8
    6588:	e1a02003 	mov	r2, r3
    658c:	e51b3010 	ldr	r3, [fp, #-16]
    6590:	e1833002 	orr	r3, r3, r2
    6594:	e50b3010 	str	r3, [fp, #-16]
	value|=hours<<16;
    6598:	e55b3018 	ldrb	r3, [fp, #-24]
    659c:	e1a03803 	lsl	r3, r3, #16
    65a0:	e1a02003 	mov	r2, r3
    65a4:	e51b3010 	ldr	r3, [fp, #-16]
    65a8:	e1833002 	orr	r3, r3, r2
    65ac:	e50b3010 	str	r3, [fp, #-16]

	jetiValues[id].value=value;
    65b0:	e55b2014 	ldrb	r2, [fp, #-20]
    65b4:	e51b0010 	ldr	r0, [fp, #-16]
    65b8:	e59f10e8 	ldr	r1, [pc, #232]	; 66a8 <jetiSetValueTime+0x1c4>
    65bc:	e3a0c010 	mov	ip, #16
    65c0:	e1a03002 	mov	r3, r2
    65c4:	e1a03103 	lsl	r3, r3, #2
    65c8:	e0833002 	add	r3, r3, r2
    65cc:	e1a03083 	lsl	r3, r3, #1
    65d0:	e0833002 	add	r3, r3, r2
    65d4:	e1a03083 	lsl	r3, r3, #1
    65d8:	e0833001 	add	r3, r3, r1
    65dc:	e083c00c 	add	ip, r3, ip
    65e0:	e20010ff 	and	r1, r0, #255	; 0xff
    65e4:	e3a03000 	mov	r3, #0
    65e8:	e1a02003 	mov	r2, r3
    65ec:	e1a03001 	mov	r3, r1
    65f0:	e1823003 	orr	r3, r2, r3
    65f4:	e5cc3002 	strb	r3, [ip, #2]
    65f8:	e1a03420 	lsr	r3, r0, #8
    65fc:	e20310ff 	and	r1, r3, #255	; 0xff
    6600:	e3a03000 	mov	r3, #0
    6604:	e1a02003 	mov	r2, r3
    6608:	e1a03001 	mov	r3, r1
    660c:	e1823003 	orr	r3, r2, r3
    6610:	e5cc3003 	strb	r3, [ip, #3]
    6614:	e1a03820 	lsr	r3, r0, #16
    6618:	e20310ff 	and	r1, r3, #255	; 0xff
    661c:	e3a03000 	mov	r3, #0
    6620:	e1a02003 	mov	r2, r3
    6624:	e1a03001 	mov	r3, r1
    6628:	e1823003 	orr	r3, r2, r3
    662c:	e5cc3004 	strb	r3, [ip, #4]
    6630:	e1a01c20 	lsr	r1, r0, #24
    6634:	e3a03000 	mov	r3, #0
    6638:	e1a02003 	mov	r2, r3
    663c:	e1a03001 	mov	r3, r1
    6640:	e1823003 	orr	r3, r2, r3
    6644:	e5cc3005 	strb	r3, [ip, #5]
	jetiSetDecimalPoint(id,0); //time
    6648:	e55b3014 	ldrb	r3, [fp, #-20]
    664c:	e1a00003 	mov	r0, r3
    6650:	e3a01000 	mov	r1, #0
    6654:	ebfffe04 	bl	5e6c <jetiSetDecimalPoint>
	jetiValues[id].varType=JETI_VART_DATETIME;
    6658:	e55b2014 	ldrb	r2, [fp, #-20]
    665c:	e59f1044 	ldr	r1, [pc, #68]	; 66a8 <jetiSetValueTime+0x1c4>
    6660:	e3a00010 	mov	r0, #16
    6664:	e1a03002 	mov	r3, r2
    6668:	e1a03103 	lsl	r3, r3, #2
    666c:	e0833002 	add	r3, r3, r2
    6670:	e1a03083 	lsl	r3, r3, #1
    6674:	e0833002 	add	r3, r3, r2
    6678:	e1a03083 	lsl	r3, r3, #1
    667c:	e0833001 	add	r3, r3, r1
    6680:	e0832000 	add	r2, r3, r0
    6684:	e3a03035 	mov	r3, #53	; 0x35
    6688:	e5c23000 	strb	r3, [r2]

	return JETI_NO_ERROR;
    668c:	e3a03000 	mov	r3, #0
    6690:	e50b3024 	str	r3, [fp, #-36]	; 0x24
    6694:	e51b3024 	ldr	r3, [fp, #-36]	; 0x24
}
    6698:	e1a00003 	mov	r0, r3
    669c:	e24bd00c 	sub	sp, fp, #12
    66a0:	e89d6800 	ldm	sp, {fp, sp, lr}
    66a4:	e12fff1e 	bx	lr
    66a8:	40001d88 	.word	0x40001d88

000066ac <jetiSetValueDate>:

unsigned char jetiSetValueDate(unsigned char id, unsigned char day, unsigned char month, unsigned short year)
{
    66ac:	e1a0c00d 	mov	ip, sp
    66b0:	e92dd800 	push	{fp, ip, lr, pc}
    66b4:	e24cb004 	sub	fp, ip, #4
    66b8:	e24dd018 	sub	sp, sp, #24
    66bc:	e1a0c003 	mov	ip, r3
    66c0:	e1a03000 	mov	r3, r0
    66c4:	e54b3014 	strb	r3, [fp, #-20]
    66c8:	e1a03001 	mov	r3, r1
    66cc:	e54b3018 	strb	r3, [fp, #-24]
    66d0:	e1a03002 	mov	r3, r2
    66d4:	e54b301c 	strb	r3, [fp, #-28]
    66d8:	e14bc2b0 	strh	ip, [fp, #-32]	; 0xffffffe0
	unsigned int value;
	if (id>14)
    66dc:	e55b3014 	ldrb	r3, [fp, #-20]
    66e0:	e353000e 	cmp	r3, #14
    66e4:	9a000002 	bls	66f4 <jetiSetValueDate+0x48>
		return JETI_ERROR_ID_RANGE;
    66e8:	e3a03001 	mov	r3, #1
    66ec:	e50b3024 	str	r3, [fp, #-36]	; 0x24
    66f0:	ea000064 	b	6888 <jetiSetValueDate+0x1dc>

	if (year>2000)
    66f4:	e15b32b0 	ldrh	r3, [fp, #-32]	; 0xffffffe0
    66f8:	e3530e7d 	cmp	r3, #2000	; 0x7d0
    66fc:	9a000002 	bls	670c <jetiSetValueDate+0x60>
		year-=2000;
    6700:	e15b32b0 	ldrh	r3, [fp, #-32]	; 0xffffffe0
    6704:	e2433e7d 	sub	r3, r3, #2000	; 0x7d0
    6708:	e14b32b0 	strh	r3, [fp, #-32]	; 0xffffffe0
	if (year>100)
    670c:	e15b32b0 	ldrh	r3, [fp, #-32]	; 0xffffffe0
    6710:	e3530064 	cmp	r3, #100	; 0x64
    6714:	9a000002 	bls	6724 <jetiSetValueDate+0x78>
		return JETI_ERROR_YEAR;
    6718:	e3a03041 	mov	r3, #65	; 0x41
    671c:	e50b3024 	str	r3, [fp, #-36]	; 0x24
    6720:	ea000058 	b	6888 <jetiSetValueDate+0x1dc>
	if ((month<1)||(month>12))
    6724:	e55b301c 	ldrb	r3, [fp, #-28]
    6728:	e3530000 	cmp	r3, #0
    672c:	0a000002 	beq	673c <jetiSetValueDate+0x90>
    6730:	e55b301c 	ldrb	r3, [fp, #-28]
    6734:	e353000c 	cmp	r3, #12
    6738:	9a000002 	bls	6748 <jetiSetValueDate+0x9c>
		return JETI_ERROR_MONTH;
    673c:	e3a03042 	mov	r3, #66	; 0x42
    6740:	e50b3024 	str	r3, [fp, #-36]	; 0x24
    6744:	ea00004f 	b	6888 <jetiSetValueDate+0x1dc>
	if ((day<1)||(day>31))
    6748:	e55b3018 	ldrb	r3, [fp, #-24]
    674c:	e3530000 	cmp	r3, #0
    6750:	0a000002 	beq	6760 <jetiSetValueDate+0xb4>
    6754:	e55b3018 	ldrb	r3, [fp, #-24]
    6758:	e353001f 	cmp	r3, #31
    675c:	9a000002 	bls	676c <jetiSetValueDate+0xc0>
		return JETI_ERROR_DAY;
    6760:	e3a03043 	mov	r3, #67	; 0x43
    6764:	e50b3024 	str	r3, [fp, #-36]	; 0x24
    6768:	ea000046 	b	6888 <jetiSetValueDate+0x1dc>

	value=year;
    676c:	e15b32b0 	ldrh	r3, [fp, #-32]	; 0xffffffe0
    6770:	e50b3010 	str	r3, [fp, #-16]
	value|=month<<8;
    6774:	e55b301c 	ldrb	r3, [fp, #-28]
    6778:	e1a03403 	lsl	r3, r3, #8
    677c:	e1a02003 	mov	r2, r3
    6780:	e51b3010 	ldr	r3, [fp, #-16]
    6784:	e1833002 	orr	r3, r3, r2
    6788:	e50b3010 	str	r3, [fp, #-16]
	value|=day<<16;
    678c:	e55b3018 	ldrb	r3, [fp, #-24]
    6790:	e1a03803 	lsl	r3, r3, #16
    6794:	e1a02003 	mov	r2, r3
    6798:	e51b3010 	ldr	r3, [fp, #-16]
    679c:	e1833002 	orr	r3, r3, r2
    67a0:	e50b3010 	str	r3, [fp, #-16]

	jetiValues[id].value=value;
    67a4:	e55b2014 	ldrb	r2, [fp, #-20]
    67a8:	e51b0010 	ldr	r0, [fp, #-16]
    67ac:	e59f10e8 	ldr	r1, [pc, #232]	; 689c <jetiSetValueDate+0x1f0>
    67b0:	e3a0c010 	mov	ip, #16
    67b4:	e1a03002 	mov	r3, r2
    67b8:	e1a03103 	lsl	r3, r3, #2
    67bc:	e0833002 	add	r3, r3, r2
    67c0:	e1a03083 	lsl	r3, r3, #1
    67c4:	e0833002 	add	r3, r3, r2
    67c8:	e1a03083 	lsl	r3, r3, #1
    67cc:	e0833001 	add	r3, r3, r1
    67d0:	e083c00c 	add	ip, r3, ip
    67d4:	e20010ff 	and	r1, r0, #255	; 0xff
    67d8:	e3a03000 	mov	r3, #0
    67dc:	e1a02003 	mov	r2, r3
    67e0:	e1a03001 	mov	r3, r1
    67e4:	e1823003 	orr	r3, r2, r3
    67e8:	e5cc3002 	strb	r3, [ip, #2]
    67ec:	e1a03420 	lsr	r3, r0, #8
    67f0:	e20310ff 	and	r1, r3, #255	; 0xff
    67f4:	e3a03000 	mov	r3, #0
    67f8:	e1a02003 	mov	r2, r3
    67fc:	e1a03001 	mov	r3, r1
    6800:	e1823003 	orr	r3, r2, r3
    6804:	e5cc3003 	strb	r3, [ip, #3]
    6808:	e1a03820 	lsr	r3, r0, #16
    680c:	e20310ff 	and	r1, r3, #255	; 0xff
    6810:	e3a03000 	mov	r3, #0
    6814:	e1a02003 	mov	r2, r3
    6818:	e1a03001 	mov	r3, r1
    681c:	e1823003 	orr	r3, r2, r3
    6820:	e5cc3004 	strb	r3, [ip, #4]
    6824:	e1a01c20 	lsr	r1, r0, #24
    6828:	e3a03000 	mov	r3, #0
    682c:	e1a02003 	mov	r2, r3
    6830:	e1a03001 	mov	r3, r1
    6834:	e1823003 	orr	r3, r2, r3
    6838:	e5cc3005 	strb	r3, [ip, #5]
	jetiSetDecimalPoint(id,1); //time
    683c:	e55b3014 	ldrb	r3, [fp, #-20]
    6840:	e1a00003 	mov	r0, r3
    6844:	e3a01001 	mov	r1, #1
    6848:	ebfffd87 	bl	5e6c <jetiSetDecimalPoint>
	jetiValues[id].varType=JETI_VART_DATETIME;
    684c:	e55b2014 	ldrb	r2, [fp, #-20]
    6850:	e59f1044 	ldr	r1, [pc, #68]	; 689c <jetiSetValueDate+0x1f0>
    6854:	e3a00010 	mov	r0, #16
    6858:	e1a03002 	mov	r3, r2
    685c:	e1a03103 	lsl	r3, r3, #2
    6860:	e0833002 	add	r3, r3, r2
    6864:	e1a03083 	lsl	r3, r3, #1
    6868:	e0833002 	add	r3, r3, r2
    686c:	e1a03083 	lsl	r3, r3, #1
    6870:	e0833001 	add	r3, r3, r1
    6874:	e0832000 	add	r2, r3, r0
    6878:	e3a03035 	mov	r3, #53	; 0x35
    687c:	e5c23000 	strb	r3, [r2]

	return JETI_NO_ERROR;
    6880:	e3a03000 	mov	r3, #0
    6884:	e50b3024 	str	r3, [fp, #-36]	; 0x24
    6888:	e51b3024 	ldr	r3, [fp, #-36]	; 0x24
}
    688c:	e1a00003 	mov	r0, r3
    6890:	e24bd00c 	sub	sp, fp, #12
    6894:	e89d6800 	ldm	sp, {fp, sp, lr}
    6898:	e12fff1e 	bx	lr
    689c:	40001d88 	.word	0x40001d88

000068a0 <jetiSetTextDisplay>:

unsigned char jetiSetTextDisplay(char * text)
{
    68a0:	e1a0c00d 	mov	ip, sp
    68a4:	e92dd800 	push	{fp, ip, lr, pc}
    68a8:	e24cb004 	sub	fp, ip, #4
    68ac:	e24dd00c 	sub	sp, sp, #12
    68b0:	e50b0018 	str	r0, [fp, #-24]
	unsigned char textLength=0;
    68b4:	e3a03000 	mov	r3, #0
    68b8:	e54b3013 	strb	r3, [fp, #-19]
	unsigned char error=JETI_NO_ERROR;
    68bc:	e3a03000 	mov	r3, #0
    68c0:	e54b3012 	strb	r3, [fp, #-18]
	unsigned char textChanged=0;
    68c4:	e3a03000 	mov	r3, #0
    68c8:	e54b3011 	strb	r3, [fp, #-17]
	int i;

	for (i=0;i<33;i++)
    68cc:	e3a03000 	mov	r3, #0
    68d0:	e50b3010 	str	r3, [fp, #-16]
    68d4:	ea000015 	b	6930 <jetiSetTextDisplay+0x90>
	{
		if (text[i]!=jetiDisplayText[i])
    68d8:	e51b3010 	ldr	r3, [fp, #-16]
    68dc:	e1a02003 	mov	r2, r3
    68e0:	e51b3018 	ldr	r3, [fp, #-24]
    68e4:	e0823003 	add	r3, r2, r3
    68e8:	e5d31000 	ldrb	r1, [r3]
    68ec:	e51b2010 	ldr	r2, [fp, #-16]
    68f0:	e59f30ec 	ldr	r3, [pc, #236]	; 69e4 <jetiSetTextDisplay+0x144>
    68f4:	e7d33002 	ldrb	r3, [r3, r2]
    68f8:	e1510003 	cmp	r1, r3
    68fc:	0a000001 	beq	6908 <jetiSetTextDisplay+0x68>
			textChanged=1;
    6900:	e3a03001 	mov	r3, #1
    6904:	e54b3011 	strb	r3, [fp, #-17]
		if (text[i]==0)
    6908:	e51b3010 	ldr	r3, [fp, #-16]
    690c:	e1a02003 	mov	r2, r3
    6910:	e51b3018 	ldr	r3, [fp, #-24]
    6914:	e0823003 	add	r3, r2, r3
    6918:	e5d33000 	ldrb	r3, [r3]
    691c:	e3530000 	cmp	r3, #0
    6920:	0a000005 	beq	693c <jetiSetTextDisplay+0x9c>
	unsigned char textLength=0;
	unsigned char error=JETI_NO_ERROR;
	unsigned char textChanged=0;
	int i;

	for (i=0;i<33;i++)
    6924:	e51b3010 	ldr	r3, [fp, #-16]
    6928:	e2833001 	add	r3, r3, #1
    692c:	e50b3010 	str	r3, [fp, #-16]
    6930:	e51b3010 	ldr	r3, [fp, #-16]
    6934:	e3530020 	cmp	r3, #32
    6938:	daffffe6 	ble	68d8 <jetiSetTextDisplay+0x38>
		if (text[i]!=jetiDisplayText[i])
			textChanged=1;
		if (text[i]==0)
			break;
	}
	if (i==32)
    693c:	e51b3010 	ldr	r3, [fp, #-16]
    6940:	e3530020 	cmp	r3, #32
    6944:	1a000001 	bne	6950 <jetiSetTextDisplay+0xb0>
		error=JETI_ERROR_STRING_TEXT;
    6948:	e3a03016 	mov	r3, #22
    694c:	e54b3012 	strb	r3, [fp, #-18]

	textLength=i;
    6950:	e51b3010 	ldr	r3, [fp, #-16]
    6954:	e54b3013 	strb	r3, [fp, #-19]
	memcpy(&jetiDisplayText[0],text,textLength);
    6958:	e55b1013 	ldrb	r1, [fp, #-19]
    695c:	e59f3080 	ldr	r3, [pc, #128]	; 69e4 <jetiSetTextDisplay+0x144>
    6960:	e51b2018 	ldr	r2, [fp, #-24]
    6964:	e1a0c001 	mov	ip, r1
    6968:	e1a00003 	mov	r0, r3
    696c:	e1a01002 	mov	r1, r2
    6970:	e1a0200c 	mov	r2, ip
    6974:	eb001bc1 	bl	d880 <__memcpy_from_arm>
	if (textLength<32)
    6978:	e55b3013 	ldrb	r3, [fp, #-19]
    697c:	e353001f 	cmp	r3, #31
    6980:	8a00000c 	bhi	69b8 <jetiSetTextDisplay+0x118>
		for (i=textLength;i<32;i++)
    6984:	e55b3013 	ldrb	r3, [fp, #-19]
    6988:	e50b3010 	str	r3, [fp, #-16]
    698c:	ea000006 	b	69ac <jetiSetTextDisplay+0x10c>
			jetiDisplayText[i]=0;
    6990:	e51b1010 	ldr	r1, [fp, #-16]
    6994:	e59f2048 	ldr	r2, [pc, #72]	; 69e4 <jetiSetTextDisplay+0x144>
    6998:	e3a03000 	mov	r3, #0
    699c:	e7c23001 	strb	r3, [r2, r1]
		error=JETI_ERROR_STRING_TEXT;

	textLength=i;
	memcpy(&jetiDisplayText[0],text,textLength);
	if (textLength<32)
		for (i=textLength;i<32;i++)
    69a0:	e51b3010 	ldr	r3, [fp, #-16]
    69a4:	e2833001 	add	r3, r3, #1
    69a8:	e50b3010 	str	r3, [fp, #-16]
    69ac:	e51b3010 	ldr	r3, [fp, #-16]
    69b0:	e353001f 	cmp	r3, #31
    69b4:	dafffff5 	ble	6990 <jetiSetTextDisplay+0xf0>
			jetiDisplayText[i]=0;

	if (textChanged)
    69b8:	e55b3011 	ldrb	r3, [fp, #-17]
    69bc:	e3530000 	cmp	r3, #0
    69c0:	0a000002 	beq	69d0 <jetiSetTextDisplay+0x130>
		jetiTriggerTextSync=1;
    69c4:	e59f301c 	ldr	r3, [pc, #28]	; 69e8 <jetiSetTextDisplay+0x148>
    69c8:	e3a02001 	mov	r2, #1
    69cc:	e5c32000 	strb	r2, [r3]
	return error;
    69d0:	e55b3012 	ldrb	r3, [fp, #-18]
}
    69d4:	e1a00003 	mov	r0, r3
    69d8:	e24bd00c 	sub	sp, fp, #12
    69dc:	e89d6800 	ldm	sp, {fp, sp, lr}
    69e0:	e12fff1e 	bx	lr
    69e4:	40001d68 	.word	0x40001d68
    69e8:	40000a36 	.word	0x40000a36

000069ec <jetiInitValue>:

unsigned char jetiInitValue(unsigned char id, char * description, char * unit)
{
    69ec:	e1a0c00d 	mov	ip, sp
    69f0:	e92dd800 	push	{fp, ip, lr, pc}
    69f4:	e24cb004 	sub	fp, ip, #4
    69f8:	e24dd018 	sub	sp, sp, #24
    69fc:	e1a03000 	mov	r3, r0
    6a00:	e50b101c 	str	r1, [fp, #-28]
    6a04:	e50b2020 	str	r2, [fp, #-32]
    6a08:	e54b3018 	strb	r3, [fp, #-24]
	unsigned char descLength=0;
    6a0c:	e3a03000 	mov	r3, #0
    6a10:	e54b3013 	strb	r3, [fp, #-19]
	unsigned char unitLength=0;
    6a14:	e3a03000 	mov	r3, #0
    6a18:	e54b3012 	strb	r3, [fp, #-18]
	unsigned char error=JETI_NO_ERROR;
    6a1c:	e3a03000 	mov	r3, #0
    6a20:	e54b3011 	strb	r3, [fp, #-17]

	int i;

	if (id>14)
    6a24:	e55b3018 	ldrb	r3, [fp, #-24]
    6a28:	e353000e 	cmp	r3, #14
    6a2c:	9a000002 	bls	6a3c <jetiInitValue+0x50>
		return JETI_ERROR_ID_RANGE;
    6a30:	e3a03001 	mov	r3, #1
    6a34:	e50b3024 	str	r3, [fp, #-36]	; 0x24
    6a38:	ea000068 	b	6be0 <jetiInitValue+0x1f4>

	for (i=0;i<11;i++)
    6a3c:	e3a03000 	mov	r3, #0
    6a40:	e50b3010 	str	r3, [fp, #-16]
    6a44:	ea000009 	b	6a70 <jetiInitValue+0x84>
		if (description[i]==0)
    6a48:	e51b3010 	ldr	r3, [fp, #-16]
    6a4c:	e1a02003 	mov	r2, r3
    6a50:	e51b301c 	ldr	r3, [fp, #-28]
    6a54:	e0823003 	add	r3, r2, r3
    6a58:	e5d33000 	ldrb	r3, [r3]
    6a5c:	e3530000 	cmp	r3, #0
    6a60:	0a000005 	beq	6a7c <jetiInitValue+0x90>
	int i;

	if (id>14)
		return JETI_ERROR_ID_RANGE;

	for (i=0;i<11;i++)
    6a64:	e51b3010 	ldr	r3, [fp, #-16]
    6a68:	e2833001 	add	r3, r3, #1
    6a6c:	e50b3010 	str	r3, [fp, #-16]
    6a70:	e51b3010 	ldr	r3, [fp, #-16]
    6a74:	e353000a 	cmp	r3, #10
    6a78:	dafffff2 	ble	6a48 <jetiInitValue+0x5c>
		if (description[i]==0)
			break;
	if (i==10)
    6a7c:	e51b3010 	ldr	r3, [fp, #-16]
    6a80:	e353000a 	cmp	r3, #10
    6a84:	1a000001 	bne	6a90 <jetiInitValue+0xa4>
		error=JETI_ERROR_STRING_DESC;
    6a88:	e3a03014 	mov	r3, #20
    6a8c:	e54b3011 	strb	r3, [fp, #-17]
	descLength=i;
    6a90:	e51b3010 	ldr	r3, [fp, #-16]
    6a94:	e54b3013 	strb	r3, [fp, #-19]

	for (i=0;i<6;i++)
    6a98:	e3a03000 	mov	r3, #0
    6a9c:	e50b3010 	str	r3, [fp, #-16]
    6aa0:	ea000009 	b	6acc <jetiInitValue+0xe0>
			if (unit[i]==0)
    6aa4:	e51b3010 	ldr	r3, [fp, #-16]
    6aa8:	e1a02003 	mov	r2, r3
    6aac:	e51b3020 	ldr	r3, [fp, #-32]
    6ab0:	e0823003 	add	r3, r2, r3
    6ab4:	e5d33000 	ldrb	r3, [r3]
    6ab8:	e3530000 	cmp	r3, #0
    6abc:	0a000005 	beq	6ad8 <jetiInitValue+0xec>
			break;
	if (i==10)
		error=JETI_ERROR_STRING_DESC;
	descLength=i;

	for (i=0;i<6;i++)
    6ac0:	e51b3010 	ldr	r3, [fp, #-16]
    6ac4:	e2833001 	add	r3, r3, #1
    6ac8:	e50b3010 	str	r3, [fp, #-16]
    6acc:	e51b3010 	ldr	r3, [fp, #-16]
    6ad0:	e3530005 	cmp	r3, #5
    6ad4:	dafffff2 	ble	6aa4 <jetiInitValue+0xb8>
			if (unit[i]==0)
				break;
	if (i==5)
    6ad8:	e51b3010 	ldr	r3, [fp, #-16]
    6adc:	e3530005 	cmp	r3, #5
    6ae0:	1a000001 	bne	6aec <jetiInitValue+0x100>
			error=JETI_ERROR_STRING_UNIT;
    6ae4:	e3a03015 	mov	r3, #21
    6ae8:	e54b3011 	strb	r3, [fp, #-17]

	unitLength=i;
    6aec:	e51b3010 	ldr	r3, [fp, #-16]
    6af0:	e54b3012 	strb	r3, [fp, #-18]

	jetiValues[id].active=id+1;
    6af4:	e55b2018 	ldrb	r2, [fp, #-24]
    6af8:	e55b3018 	ldrb	r3, [fp, #-24]
    6afc:	e2833001 	add	r3, r3, #1
    6b00:	e20310ff 	and	r1, r3, #255	; 0xff
    6b04:	e59f00e8 	ldr	r0, [pc, #232]	; 6bf4 <jetiInitValue+0x208>
    6b08:	e1a03002 	mov	r3, r2
    6b0c:	e1a03103 	lsl	r3, r3, #2
    6b10:	e0833002 	add	r3, r3, r2
    6b14:	e1a03083 	lsl	r3, r3, #1
    6b18:	e0833002 	add	r3, r3, r2
    6b1c:	e1a03083 	lsl	r3, r3, #1
    6b20:	e0832000 	add	r2, r3, r0
    6b24:	e1a03001 	mov	r3, r1
    6b28:	e5c23000 	strb	r3, [r2]
	memcpy(&jetiValues[id].name[0],description,descLength);
    6b2c:	e55b2018 	ldrb	r2, [fp, #-24]
    6b30:	e1a03002 	mov	r3, r2
    6b34:	e1a03103 	lsl	r3, r3, #2
    6b38:	e0833002 	add	r3, r3, r2
    6b3c:	e1a03083 	lsl	r3, r3, #1
    6b40:	e0833002 	add	r3, r3, r2
    6b44:	e1a02083 	lsl	r2, r3, #1
    6b48:	e59f30a4 	ldr	r3, [pc, #164]	; 6bf4 <jetiInitValue+0x208>
    6b4c:	e0823003 	add	r3, r2, r3
    6b50:	e2832001 	add	r2, r3, #1
    6b54:	e55b1013 	ldrb	r1, [fp, #-19]
    6b58:	e51b301c 	ldr	r3, [fp, #-28]
    6b5c:	e1a0c001 	mov	ip, r1
    6b60:	e1a00002 	mov	r0, r2
    6b64:	e1a01003 	mov	r1, r3
    6b68:	e1a0200c 	mov	r2, ip
    6b6c:	eb001b43 	bl	d880 <__memcpy_from_arm>
	memcpy(&jetiValues[id].unit[0],unit,unitLength);
    6b70:	e55b2018 	ldrb	r2, [fp, #-24]
    6b74:	e1a03002 	mov	r3, r2
    6b78:	e1a03103 	lsl	r3, r3, #2
    6b7c:	e0833002 	add	r3, r3, r2
    6b80:	e1a03083 	lsl	r3, r3, #1
    6b84:	e0833002 	add	r3, r3, r2
    6b88:	e1a03083 	lsl	r3, r3, #1
    6b8c:	e2832008 	add	r2, r3, #8
    6b90:	e59f305c 	ldr	r3, [pc, #92]	; 6bf4 <jetiInitValue+0x208>
    6b94:	e0823003 	add	r3, r2, r3
    6b98:	e2832003 	add	r2, r3, #3
    6b9c:	e55b1012 	ldrb	r1, [fp, #-18]
    6ba0:	e51b3020 	ldr	r3, [fp, #-32]
    6ba4:	e1a0c001 	mov	ip, r1
    6ba8:	e1a00002 	mov	r0, r2
    6bac:	e1a01003 	mov	r1, r3
    6bb0:	e1a0200c 	mov	r2, ip
    6bb4:	eb001b31 	bl	d880 <__memcpy_from_arm>
	jetiSetValue6B(id,0);
    6bb8:	e55b3018 	ldrb	r3, [fp, #-24]
    6bbc:	e1a00003 	mov	r0, r3
    6bc0:	e3a01000 	mov	r1, #0
    6bc4:	ebfffd8c 	bl	61fc <jetiSetValue6B>
	jetiSetDecimalPoint(id,0);
    6bc8:	e55b3018 	ldrb	r3, [fp, #-24]
    6bcc:	e1a00003 	mov	r0, r3
    6bd0:	e3a01000 	mov	r1, #0
    6bd4:	ebfffca4 	bl	5e6c <jetiSetDecimalPoint>

	return error;
    6bd8:	e55b3011 	ldrb	r3, [fp, #-17]
    6bdc:	e50b3024 	str	r3, [fp, #-36]	; 0x24
    6be0:	e51b3024 	ldr	r3, [fp, #-36]	; 0x24

}
    6be4:	e1a00003 	mov	r0, r3
    6be8:	e24bd00c 	sub	sp, fp, #12
    6bec:	e89d6800 	ldm	sp, {fp, sp, lr}
    6bf0:	e12fff1e 	bx	lr
    6bf4:	40001d88 	.word	0x40001d88

00006bf8 <ee_erase>:
/*                                                                     	*/
/* revision history:                                                   	*/
/* - Rev. 1.1 adds interrupt disable feature.							*/
/*                                                                     	*/
/************************************************************************/
void ee_erase(unsigned int command_ee,unsigned int result_ee[]){
    6bf8:	e1a0c00d 	mov	ip, sp
    6bfc:	e92dd800 	push	{fp, ip, lr, pc}
    6c00:	e24cb004 	sub	fp, ip, #4
    6c04:	e24dd02c 	sub	sp, sp, #44	; 0x2c
    6c08:	e50b0034 	str	r0, [fp, #-52]	; 0x34
    6c0c:	e50b1038 	str	r1, [fp, #-56]	; 0x38
	unsigned int command_iap[5];
	unsigned int result_iap[3];
	unsigned long int enabled_interrupts;

	enabled_interrupts = VICIntEnable;  //disable all interrupts
    6c10:	e3a03000 	mov	r3, #0
    6c14:	e2433eff 	sub	r3, r3, #4080	; 0xff0
    6c18:	e5933000 	ldr	r3, [r3]
    6c1c:	e50b3010 	str	r3, [fp, #-16]
	VICIntEnClr        = enabled_interrupts;
    6c20:	e3e03efe 	mvn	r3, #4064	; 0xfe0
    6c24:	e243300b 	sub	r3, r3, #11
    6c28:	e51b2010 	ldr	r2, [fp, #-16]
    6c2c:	e5832000 	str	r2, [r3]

	command_iap[0]=50;					//prepare sectors from EE_SEC_L to EE_SEC_H for erase
    6c30:	e3a03032 	mov	r3, #50	; 0x32
    6c34:	e50b3024 	str	r3, [fp, #-36]	; 0x24
	command_iap[1]=EE_SEC_L;
    6c38:	e3a0300e 	mov	r3, #14
    6c3c:	e50b3020 	str	r3, [fp, #-32]
	command_iap[2]=EE_SEC_H;
    6c40:	e3a0300e 	mov	r3, #14
    6c44:	e50b301c 	str	r3, [fp, #-28]
	iap_entry=(IAP) IAP_LOCATION;
    6c48:	e59f20e0 	ldr	r2, [pc, #224]	; 6d30 <ee_erase+0x138>
    6c4c:	e3e0313a 	mvn	r3, #-2147483634	; 0x8000000e
    6c50:	e5823000 	str	r3, [r2]
	iap_entry(command_iap,result_iap);
    6c54:	e59f30d4 	ldr	r3, [pc, #212]	; 6d30 <ee_erase+0x138>
    6c58:	e593c000 	ldr	ip, [r3]
    6c5c:	e24b3024 	sub	r3, fp, #36	; 0x24
    6c60:	e24b2030 	sub	r2, fp, #48	; 0x30
    6c64:	e1a00003 	mov	r0, r3
    6c68:	e1a01002 	mov	r1, r2
    6c6c:	e1a0e00f 	mov	lr, pc
    6c70:	e12fff1c 	bx	ip

	command_iap[0]=52;					//erase sectors from EE_SEC_L to EE_SEC_H
    6c74:	e3a03034 	mov	r3, #52	; 0x34
    6c78:	e50b3024 	str	r3, [fp, #-36]	; 0x24
	command_iap[1]=EE_SEC_L;
    6c7c:	e3a0300e 	mov	r3, #14
    6c80:	e50b3020 	str	r3, [fp, #-32]
	command_iap[2]=EE_SEC_H;
    6c84:	e3a0300e 	mov	r3, #14
    6c88:	e50b301c 	str	r3, [fp, #-28]
	command_iap[3]=EE_CCLK;
    6c8c:	e3a03cea 	mov	r3, #59904	; 0xea00
    6c90:	e2833060 	add	r3, r3, #96	; 0x60
    6c94:	e50b3018 	str	r3, [fp, #-24]
	iap_entry=(IAP) IAP_LOCATION;
    6c98:	e59f2090 	ldr	r2, [pc, #144]	; 6d30 <ee_erase+0x138>
    6c9c:	e3e0313a 	mvn	r3, #-2147483634	; 0x8000000e
    6ca0:	e5823000 	str	r3, [r2]
	iap_entry(command_iap,result_iap);
    6ca4:	e59f3084 	ldr	r3, [pc, #132]	; 6d30 <ee_erase+0x138>
    6ca8:	e593c000 	ldr	ip, [r3]
    6cac:	e24b3024 	sub	r3, fp, #36	; 0x24
    6cb0:	e24b2030 	sub	r2, fp, #48	; 0x30
    6cb4:	e1a00003 	mov	r0, r3
    6cb8:	e1a01002 	mov	r1, r2
    6cbc:	e1a0e00f 	mov	lr, pc
    6cc0:	e12fff1c 	bx	ip

	command_iap[0]=53;					//blankcheck sectors from EE_SEC_L to EE_SEC_H
    6cc4:	e3a03035 	mov	r3, #53	; 0x35
    6cc8:	e50b3024 	str	r3, [fp, #-36]	; 0x24
	command_iap[1]=EE_SEC_L;
    6ccc:	e3a0300e 	mov	r3, #14
    6cd0:	e50b3020 	str	r3, [fp, #-32]
	command_iap[2]=EE_SEC_H;
    6cd4:	e3a0300e 	mov	r3, #14
    6cd8:	e50b301c 	str	r3, [fp, #-28]
	iap_entry=(IAP) IAP_LOCATION;
    6cdc:	e59f204c 	ldr	r2, [pc, #76]	; 6d30 <ee_erase+0x138>
    6ce0:	e3e0313a 	mvn	r3, #-2147483634	; 0x8000000e
    6ce4:	e5823000 	str	r3, [r2]
	iap_entry(command_iap,result_iap);
    6ce8:	e59f3040 	ldr	r3, [pc, #64]	; 6d30 <ee_erase+0x138>
    6cec:	e593c000 	ldr	ip, [r3]
    6cf0:	e24b3024 	sub	r3, fp, #36	; 0x24
    6cf4:	e24b2030 	sub	r2, fp, #48	; 0x30
    6cf8:	e1a00003 	mov	r0, r3
    6cfc:	e1a01002 	mov	r1, r2
    6d00:	e1a0e00f 	mov	lr, pc
    6d04:	e12fff1c 	bx	ip

	VICIntEnable = enabled_interrupts;  //restore interrupt enable register
    6d08:	e3a03000 	mov	r3, #0
    6d0c:	e2433eff 	sub	r3, r3, #4080	; 0xff0
    6d10:	e51b2010 	ldr	r2, [fp, #-16]
    6d14:	e5832000 	str	r2, [r3]

	result_ee[0]=result_iap[0];
    6d18:	e51b2030 	ldr	r2, [fp, #-48]	; 0x30
    6d1c:	e51b3038 	ldr	r3, [fp, #-56]	; 0x38
    6d20:	e5832000 	str	r2, [r3]
	return;
}
    6d24:	e24bd00c 	sub	sp, fp, #12
    6d28:	e89d6800 	ldm	sp, {fp, sp, lr}
    6d2c:	e12fff1e 	bx	lr
    6d30:	40001edc 	.word	0x40001edc

00006d34 <ee_write>:
/*   the EEPROM. 1.0 was reporting missmatch even when there were no	*/
/*   problems at all.													*/
/*   Rev. 1.1 adds interrupt disable feature.							*/
/*                                                                     	*/
/************************************************************************/
void ee_write(unsigned int command_ee,unsigned int result_ee[]){
    6d34:	e1a0c00d 	mov	ip, sp
    6d38:	e92dd800 	push	{fp, ip, lr, pc}
    6d3c:	e24cb004 	sub	fp, ip, #4
    6d40:	e24ddf4f 	sub	sp, sp, #316	; 0x13c
    6d44:	e50b0144 	str	r0, [fp, #-324]	; 0x144
    6d48:	e50b1148 	str	r1, [fp, #-328]	; 0x148
	unsigned int *source, *destination, i;
	unsigned char ee_buffer[EE_BUFFER_SIZE];
	unsigned int command_iap[5], result_iap[3];
	unsigned long int enabled_interrupts;

	location = ee_locate();
    6d4c:	eb0000dc 	bl	70c4 <ee_locate>
    6d50:	e1a03000 	mov	r3, r0
    6d54:	e50b3020 	str	r3, [fp, #-32]
	if (location == -1){
    6d58:	e51b3020 	ldr	r3, [fp, #-32]
    6d5c:	e3730001 	cmn	r3, #1
    6d60:	1a000004 	bne	6d78 <ee_write+0x44>
		result_ee[0]=NO_SPACE_IN_EEPROM;
    6d64:	e51b2148 	ldr	r2, [fp, #-328]	; 0x148
    6d68:	e3a03f7d 	mov	r3, #500	; 0x1f4
    6d6c:	e2833001 	add	r3, r3, #1
    6d70:	e5823000 	str	r3, [r2]
    6d74:	ea000073 	b	6f48 <ee_write+0x214>
	}
	else{
		for (i=0;i<EE_BUFFER_SIZE;i++) ee_buffer[i]=0xFF;
    6d78:	e3a03000 	mov	r3, #0
    6d7c:	e50b3014 	str	r3, [fp, #-20]
    6d80:	ea00000a 	b	6db0 <ee_write+0x7c>
    6d84:	e51b2014 	ldr	r2, [fp, #-20]
    6d88:	e3a034bb 	mov	r3, #-1157627904	; 0xbb000000
    6d8c:	e1a03b43 	asr	r3, r3, #22
    6d90:	e24b100c 	sub	r1, fp, #12
    6d94:	e0812002 	add	r2, r1, r2
    6d98:	e0822003 	add	r2, r2, r3
    6d9c:	e3e03000 	mvn	r3, #0
    6da0:	e5c23000 	strb	r3, [r2]
    6da4:	e51b3014 	ldr	r3, [fp, #-20]
    6da8:	e2833001 	add	r3, r3, #1
    6dac:	e50b3014 	str	r3, [fp, #-20]
    6db0:	e51b3014 	ldr	r3, [fp, #-20]
    6db4:	e35300ff 	cmp	r3, #255	; 0xff
    6db8:	9afffff1 	bls	6d84 <ee_write+0x50>

		destination = (unsigned int *) ((&ee_buffer[0])+((unsigned int)location & EE_BUFFER_MASK));
    6dbc:	e24b3e12 	sub	r3, fp, #288	; 0x120
    6dc0:	e50b3018 	str	r3, [fp, #-24]
		source = (unsigned int *) command_ee;
    6dc4:	e51b3144 	ldr	r3, [fp, #-324]	; 0x144
    6dc8:	e50b301c 	str	r3, [fp, #-28]
		for(i=0;i!=EE_REC_SIZE/4;i++) *(destination+i) = *(source+i);
    6dcc:	e3a03000 	mov	r3, #0
    6dd0:	e50b3014 	str	r3, [fp, #-20]
    6dd4:	ea00000e 	b	6e14 <ee_write+0xe0>
    6dd8:	e51b3014 	ldr	r3, [fp, #-20]
    6ddc:	e1a03103 	lsl	r3, r3, #2
    6de0:	e1a02003 	mov	r2, r3
    6de4:	e51b3018 	ldr	r3, [fp, #-24]
    6de8:	e0821003 	add	r1, r2, r3
    6dec:	e51b3014 	ldr	r3, [fp, #-20]
    6df0:	e1a03103 	lsl	r3, r3, #2
    6df4:	e1a02003 	mov	r2, r3
    6df8:	e51b301c 	ldr	r3, [fp, #-28]
    6dfc:	e0823003 	add	r3, r2, r3
    6e00:	e5933000 	ldr	r3, [r3]
    6e04:	e5813000 	str	r3, [r1]
    6e08:	e51b3014 	ldr	r3, [fp, #-20]
    6e0c:	e2833001 	add	r3, r3, #1
    6e10:	e50b3014 	str	r3, [fp, #-20]
    6e14:	e51b3014 	ldr	r3, [fp, #-20]
    6e18:	e3530040 	cmp	r3, #64	; 0x40
    6e1c:	1affffed 	bne	6dd8 <ee_write+0xa4>

		enabled_interrupts = VICIntEnable;  //disable all interrupts
    6e20:	e3a03000 	mov	r3, #0
    6e24:	e2433eff 	sub	r3, r3, #4080	; 0xff0
    6e28:	e5933000 	ldr	r3, [r3]
    6e2c:	e50b3010 	str	r3, [fp, #-16]
		VICIntEnClr        = enabled_interrupts;
    6e30:	e3e03efe 	mvn	r3, #4064	; 0xfe0
    6e34:	e243300b 	sub	r3, r3, #11
    6e38:	e51b2010 	ldr	r2, [fp, #-16]
    6e3c:	e5832000 	str	r2, [r3]

		command_iap[0]=50;					//prepare sectors from EE_SEC_L to EE_SEC_H for erase
    6e40:	e3a03032 	mov	r3, #50	; 0x32
    6e44:	e50b3134 	str	r3, [fp, #-308]	; 0x134
		command_iap[1]=EE_SEC_L;
    6e48:	e3a0300e 	mov	r3, #14
    6e4c:	e50b3130 	str	r3, [fp, #-304]	; 0x130
		command_iap[2]=EE_SEC_H;
    6e50:	e3a0300e 	mov	r3, #14
    6e54:	e50b312c 	str	r3, [fp, #-300]	; 0x12c
		iap_entry=(IAP) IAP_LOCATION;
    6e58:	e59f20f4 	ldr	r2, [pc, #244]	; 6f54 <ee_write+0x220>
    6e5c:	e3e0313a 	mvn	r3, #-2147483634	; 0x8000000e
    6e60:	e5823000 	str	r3, [r2]
		iap_entry(command_iap,result_iap);
    6e64:	e59f30e8 	ldr	r3, [pc, #232]	; 6f54 <ee_write+0x220>
    6e68:	e593c000 	ldr	ip, [r3]
    6e6c:	e24b3f4d 	sub	r3, fp, #308	; 0x134
    6e70:	e24b2d05 	sub	r2, fp, #320	; 0x140
    6e74:	e1a00003 	mov	r0, r3
    6e78:	e1a01002 	mov	r1, r2
    6e7c:	e1a0e00f 	mov	lr, pc
    6e80:	e12fff1c 	bx	ip

		command_iap[0]=51;					//copy RAM to flash/eeprom
    6e84:	e3a03033 	mov	r3, #51	; 0x33
    6e88:	e50b3134 	str	r3, [fp, #-308]	; 0x134
		command_iap[1]=(unsigned int) (location & EE_START_MASK);
    6e8c:	e51b3020 	ldr	r3, [fp, #-32]
    6e90:	e3c330ff 	bic	r3, r3, #255	; 0xff
    6e94:	e50b3130 	str	r3, [fp, #-304]	; 0x130
		command_iap[2]=(unsigned int) (&ee_buffer[0]);
    6e98:	e24b3e12 	sub	r3, fp, #288	; 0x120
    6e9c:	e50b312c 	str	r3, [fp, #-300]	; 0x12c
		command_iap[3]=EE_BUFFER_SIZE;
    6ea0:	e3a03c01 	mov	r3, #256	; 0x100
    6ea4:	e50b3128 	str	r3, [fp, #-296]	; 0x128
		command_iap[4]=EE_CCLK;
    6ea8:	e3a03cea 	mov	r3, #59904	; 0xea00
    6eac:	e2833060 	add	r3, r3, #96	; 0x60
    6eb0:	e50b3124 	str	r3, [fp, #-292]	; 0x124
		iap_entry=(IAP) IAP_LOCATION;
    6eb4:	e59f2098 	ldr	r2, [pc, #152]	; 6f54 <ee_write+0x220>
    6eb8:	e3e0313a 	mvn	r3, #-2147483634	; 0x8000000e
    6ebc:	e5823000 	str	r3, [r2]
		iap_entry(command_iap,result_iap);
    6ec0:	e59f308c 	ldr	r3, [pc, #140]	; 6f54 <ee_write+0x220>
    6ec4:	e593c000 	ldr	ip, [r3]
    6ec8:	e24b3f4d 	sub	r3, fp, #308	; 0x134
    6ecc:	e24b2d05 	sub	r2, fp, #320	; 0x140
    6ed0:	e1a00003 	mov	r0, r3
    6ed4:	e1a01002 	mov	r1, r2
    6ed8:	e1a0e00f 	mov	lr, pc
    6edc:	e12fff1c 	bx	ip

		command_iap[0]=56;					//compare RAM and flash/eeprom
    6ee0:	e3a03038 	mov	r3, #56	; 0x38
    6ee4:	e50b3134 	str	r3, [fp, #-308]	; 0x134
		command_iap[1]=(unsigned int) source;
    6ee8:	e51b301c 	ldr	r3, [fp, #-28]
    6eec:	e50b3130 	str	r3, [fp, #-304]	; 0x130
		command_iap[2]=(unsigned int) location;
    6ef0:	e51b3020 	ldr	r3, [fp, #-32]
    6ef4:	e50b312c 	str	r3, [fp, #-300]	; 0x12c
		command_iap[3]=EE_REC_SIZE;
    6ef8:	e3a03c01 	mov	r3, #256	; 0x100
    6efc:	e50b3128 	str	r3, [fp, #-296]	; 0x128
		iap_entry=(IAP) IAP_LOCATION;
    6f00:	e59f204c 	ldr	r2, [pc, #76]	; 6f54 <ee_write+0x220>
    6f04:	e3e0313a 	mvn	r3, #-2147483634	; 0x8000000e
    6f08:	e5823000 	str	r3, [r2]
		iap_entry(command_iap,result_iap);
    6f0c:	e59f3040 	ldr	r3, [pc, #64]	; 6f54 <ee_write+0x220>
    6f10:	e593c000 	ldr	ip, [r3]
    6f14:	e24b3f4d 	sub	r3, fp, #308	; 0x134
    6f18:	e24b2d05 	sub	r2, fp, #320	; 0x140
    6f1c:	e1a00003 	mov	r0, r3
    6f20:	e1a01002 	mov	r1, r2
    6f24:	e1a0e00f 	mov	lr, pc
    6f28:	e12fff1c 	bx	ip

		VICIntEnable = enabled_interrupts;  //restore interrupt enable register
    6f2c:	e3a03000 	mov	r3, #0
    6f30:	e2433eff 	sub	r3, r3, #4080	; 0xff0
    6f34:	e51b2010 	ldr	r2, [fp, #-16]
    6f38:	e5832000 	str	r2, [r3]

		result_ee[0]=result_iap[0];
    6f3c:	e51b2140 	ldr	r2, [fp, #-320]	; 0x140
    6f40:	e51b3148 	ldr	r3, [fp, #-328]	; 0x148
    6f44:	e5832000 	str	r2, [r3]
	}
	return;
}
    6f48:	e24bd00c 	sub	sp, fp, #12
    6f4c:	e89d6800 	ldm	sp, {fp, sp, lr}
    6f50:	e12fff1e 	bx	lr
    6f54:	40001edc 	.word	0x40001edc

00006f58 <ee_read>:
/* revision history:                                                   	*/
/* - Rev. 1.0 had problems with accessing the last record in a fully	*/
/*   occupied EEPROM. Rev. 1.1 fixes this.								*/
/*                                                                     	*/
/************************************************************************/
void ee_read(unsigned int command_ee,unsigned int result_ee[]){
    6f58:	e1a0c00d 	mov	ip, sp
    6f5c:	e92dd800 	push	{fp, ip, lr, pc}
    6f60:	e24cb004 	sub	fp, ip, #4
    6f64:	e24dd00c 	sub	sp, sp, #12
    6f68:	e50b0014 	str	r0, [fp, #-20]
    6f6c:	e50b1018 	str	r1, [fp, #-24]
	int location;

	location = ee_locate();
    6f70:	eb000053 	bl	70c4 <ee_locate>
    6f74:	e1a03000 	mov	r3, r0
    6f78:	e50b3010 	str	r3, [fp, #-16]
	if (location == EE_ADDR_L){
    6f7c:	e51b3010 	ldr	r3, [fp, #-16]
    6f80:	e353090e 	cmp	r3, #229376	; 0x38000
    6f84:	1a000003 	bne	6f98 <ee_read+0x40>
		result_ee[0]=NO_RECORDS_AVAILABLE;
    6f88:	e51b2018 	ldr	r2, [fp, #-24]
    6f8c:	e3a03f7d 	mov	r3, #500	; 0x1f4
    6f90:	e5823000 	str	r3, [r2]
    6f94:	ea000010 	b	6fdc <ee_read+0x84>
	}
	else{
		result_ee[0]=0;
    6f98:	e51b3018 	ldr	r3, [fp, #-24]
    6f9c:	e3a02000 	mov	r2, #0
    6fa0:	e5832000 	str	r2, [r3]
		if (location == -1)
    6fa4:	e51b3010 	ldr	r3, [fp, #-16]
    6fa8:	e3730001 	cmn	r3, #1
    6fac:	1a000005 	bne	6fc8 <ee_read+0x70>
			result_ee[1]=(unsigned int)(EE_ADDR_H+1 - EE_REC_SIZE);
    6fb0:	e51b3018 	ldr	r3, [fp, #-24]
    6fb4:	e2832004 	add	r2, r3, #4
    6fb8:	e3a03bff 	mov	r3, #261120	; 0x3fc00
    6fbc:	e2833c03 	add	r3, r3, #768	; 0x300
    6fc0:	e5823000 	str	r3, [r2]
    6fc4:	ea000004 	b	6fdc <ee_read+0x84>
		else
			result_ee[1]=(unsigned int)(location - EE_REC_SIZE);
    6fc8:	e51b3018 	ldr	r3, [fp, #-24]
    6fcc:	e2832004 	add	r2, r3, #4
    6fd0:	e51b3010 	ldr	r3, [fp, #-16]
    6fd4:	e2433c01 	sub	r3, r3, #256	; 0x100
    6fd8:	e5823000 	str	r3, [r2]
	}
	return;
}
    6fdc:	e24bd00c 	sub	sp, fp, #12
    6fe0:	e89d6800 	ldm	sp, {fp, sp, lr}
    6fe4:	e12fff1e 	bx	lr

00006fe8 <ee_readn>:
/* description:															*/
/*  This function returns in result_ee[1] an address of an EEPROM 		*/
/*  record index specified in command_ee. Index can not be less than 0.	*/
/*                                                                     	*/
/************************************************************************/
void ee_readn(unsigned int command_ee,unsigned int result_ee[]){
    6fe8:	e1a0c00d 	mov	ip, sp
    6fec:	e92dd800 	push	{fp, ip, lr, pc}
    6ff0:	e24cb004 	sub	fp, ip, #4
    6ff4:	e24dd008 	sub	sp, sp, #8
    6ff8:	e50b0010 	str	r0, [fp, #-16]
    6ffc:	e50b1014 	str	r1, [fp, #-20]
	if(command_ee>((EE_ADDR_H+1-EE_ADDR_L)/EE_REC_SIZE)){
    7000:	e51b3010 	ldr	r3, [fp, #-16]
    7004:	e3530080 	cmp	r3, #128	; 0x80
    7008:	9a000004 	bls	7020 <ee_readn+0x38>
		result_ee[0]=INDEX_OUT_OF_RANGE;}
    700c:	e51b2014 	ldr	r2, [fp, #-20]
    7010:	e3a03f7d 	mov	r3, #500	; 0x1f4
    7014:	e2833002 	add	r3, r3, #2
    7018:	e5823000 	str	r3, [r2]
    701c:	ea000008 	b	7044 <ee_readn+0x5c>
	else{
		result_ee[0]=0;
    7020:	e51b2014 	ldr	r2, [fp, #-20]
    7024:	e3a03000 	mov	r3, #0
    7028:	e5823000 	str	r3, [r2]
		result_ee[1]=(unsigned int)(EE_ADDR_L+EE_REC_SIZE*command_ee);
    702c:	e51b3014 	ldr	r3, [fp, #-20]
    7030:	e2832004 	add	r2, r3, #4
    7034:	e51b3010 	ldr	r3, [fp, #-16]
    7038:	e1a03403 	lsl	r3, r3, #8
    703c:	e283390e 	add	r3, r3, #229376	; 0x38000
    7040:	e5823000 	str	r3, [r2]
	}
	return;
}
    7044:	e24bd00c 	sub	sp, fp, #12
    7048:	e89d6800 	ldm	sp, {fp, sp, lr}
    704c:	e12fff1e 	bx	lr

00007050 <ee_count>:
/* revision history:                                                   	*/
/* - Initial release (1.0) was not supplying the right feedback in case */
/*   of counting records in a full EEPROM. Rev. 1.1 fixes this.         */
/*                                                                     	*/
/************************************************************************/
void ee_count(unsigned int command_ee,unsigned int result_ee[]){
    7050:	e1a0c00d 	mov	ip, sp
    7054:	e92dd800 	push	{fp, ip, lr, pc}
    7058:	e24cb004 	sub	fp, ip, #4
    705c:	e24dd00c 	sub	sp, sp, #12
    7060:	e50b0014 	str	r0, [fp, #-20]
    7064:	e50b1018 	str	r1, [fp, #-24]
	int location;
	result_ee[0]=0;
    7068:	e51b2018 	ldr	r2, [fp, #-24]
    706c:	e3a03000 	mov	r3, #0
    7070:	e5823000 	str	r3, [r2]
	location = ee_locate();
    7074:	eb000012 	bl	70c4 <ee_locate>
    7078:	e1a03000 	mov	r3, r0
    707c:	e50b3010 	str	r3, [fp, #-16]
	if (location == -1) location = EE_ADDR_H+1;
    7080:	e51b3010 	ldr	r3, [fp, #-16]
    7084:	e3730001 	cmn	r3, #1
    7088:	1a000001 	bne	7094 <ee_count+0x44>
    708c:	e3a03701 	mov	r3, #262144	; 0x40000
    7090:	e50b3010 	str	r3, [fp, #-16]
	result_ee[1]=(unsigned int)((location-EE_ADDR_L)/EE_REC_SIZE);
    7094:	e51b3018 	ldr	r3, [fp, #-24]
    7098:	e2831004 	add	r1, r3, #4
    709c:	e51b3010 	ldr	r3, [fp, #-16]
    70a0:	e243390e 	sub	r3, r3, #229376	; 0x38000
    70a4:	e28320ff 	add	r2, r3, #255	; 0xff
    70a8:	e3530000 	cmp	r3, #0
    70ac:	b1a03002 	movlt	r3, r2
    70b0:	e1a03443 	asr	r3, r3, #8
    70b4:	e5813000 	str	r3, [r1]
	return;
}
    70b8:	e24bd00c 	sub	sp, fp, #12
    70bc:	e89d6800 	ldm	sp, {fp, sp, lr}
    70c0:	e12fff1e 	bx	lr

000070c4 <ee_locate>:
/* revision history:                                                   	*/
/* - Rev. 1.1 fixes a bug related to identifying an unused byte of 		*/
/*   EEPROM in an EEPROM with size not equal to EE_REC_SIZE * 2^k (k>=0)*/
/*                                                                     	*/
/************************************************************************/
int ee_locate(void){
    70c4:	e1a0c00d 	mov	ip, sp
    70c8:	e92dd800 	push	{fp, ip, lr, pc}
    70cc:	e24cb004 	sub	fp, ip, #4
    70d0:	e24dd018 	sub	sp, sp, #24
	unsigned int addr_l, addr_m, addr_r, size, slice_limit;
	addr_l = EE_ADDR_L;
    70d4:	e3a0390e 	mov	r3, #229376	; 0x38000
    70d8:	e50b3020 	str	r3, [fp, #-32]
	if ((*((unsigned char *)addr_l))==0xFF) return(addr_l);
    70dc:	e51b3020 	ldr	r3, [fp, #-32]
    70e0:	e5d33000 	ldrb	r3, [r3]
    70e4:	e35300ff 	cmp	r3, #255	; 0xff
    70e8:	1a000002 	bne	70f8 <ee_locate+0x34>
    70ec:	e51b3020 	ldr	r3, [fp, #-32]
    70f0:	e50b3024 	str	r3, [fp, #-36]	; 0x24
    70f4:	ea00003f 	b	71f8 <ee_locate+0x134>
	addr_r = EE_ADDR_H+1;
    70f8:	e3a03701 	mov	r3, #262144	; 0x40000
    70fc:	e50b3018 	str	r3, [fp, #-24]
	if ((*((unsigned char *)(addr_r-EE_REC_SIZE)))==EE_REC_ID) return(-1);
    7100:	e51b3018 	ldr	r3, [fp, #-24]
    7104:	e2433c01 	sub	r3, r3, #256	; 0x100
    7108:	e5d33000 	ldrb	r3, [r3]
    710c:	e35300aa 	cmp	r3, #170	; 0xaa
    7110:	1a000002 	bne	7120 <ee_locate+0x5c>
    7114:	e3e03000 	mvn	r3, #0
    7118:	e50b3024 	str	r3, [fp, #-36]	; 0x24
    711c:	ea000035 	b	71f8 <ee_locate+0x134>
	size = addr_r - addr_l;
    7120:	e51b2018 	ldr	r2, [fp, #-24]
    7124:	e51b3020 	ldr	r3, [fp, #-32]
    7128:	e0633002 	rsb	r3, r3, r2
    712c:	e50b3014 	str	r3, [fp, #-20]
	slice_limit = EE_REC_SIZE - 1;
    7130:	e3a030ff 	mov	r3, #255	; 0xff
    7134:	e50b3010 	str	r3, [fp, #-16]
	while(size != EE_REC_SIZE){
    7138:	ea000029 	b	71e4 <ee_locate+0x120>
		addr_m = (addr_r+addr_l)/2;
    713c:	e51b2018 	ldr	r2, [fp, #-24]
    7140:	e51b3020 	ldr	r3, [fp, #-32]
    7144:	e0823003 	add	r3, r2, r3
    7148:	e1a030a3 	lsr	r3, r3, #1
    714c:	e50b301c 	str	r3, [fp, #-28]
		if ((addr_m & slice_limit)!=0x00000000){
    7150:	e51b201c 	ldr	r2, [fp, #-28]
    7154:	e51b3010 	ldr	r3, [fp, #-16]
    7158:	e0023003 	and	r3, r2, r3
    715c:	e3530000 	cmp	r3, #0
    7160:	0a000013 	beq	71b4 <ee_locate+0xf0>
			if ((*((unsigned char *)(addr_r - EE_REC_SIZE)))==0xFF) 
    7164:	e51b3018 	ldr	r3, [fp, #-24]
    7168:	e2433c01 	sub	r3, r3, #256	; 0x100
    716c:	e5d33000 	ldrb	r3, [r3]
    7170:	e35300ff 	cmp	r3, #255	; 0xff
    7174:	1a000003 	bne	7188 <ee_locate+0xc4>
				addr_r = addr_r - EE_REC_SIZE;
    7178:	e51b3018 	ldr	r3, [fp, #-24]
    717c:	e2433c01 	sub	r3, r3, #256	; 0x100
    7180:	e50b3018 	str	r3, [fp, #-24]
    7184:	ea000002 	b	7194 <ee_locate+0xd0>
			else
				addr_l = addr_l + EE_REC_SIZE;
    7188:	e51b3020 	ldr	r3, [fp, #-32]
    718c:	e2833c01 	add	r3, r3, #256	; 0x100
    7190:	e50b3020 	str	r3, [fp, #-32]
			addr_m = (addr_r+addr_l)/2;
    7194:	e51b2018 	ldr	r2, [fp, #-24]
    7198:	e51b3020 	ldr	r3, [fp, #-32]
    719c:	e0823003 	add	r3, r2, r3
    71a0:	e1a030a3 	lsr	r3, r3, #1
    71a4:	e50b301c 	str	r3, [fp, #-28]
			size = size - EE_REC_SIZE;
    71a8:	e51b3014 	ldr	r3, [fp, #-20]
    71ac:	e2433c01 	sub	r3, r3, #256	; 0x100
    71b0:	e50b3014 	str	r3, [fp, #-20]
		}
		if ((*((unsigned char *)addr_m))==0xFF)
    71b4:	e51b301c 	ldr	r3, [fp, #-28]
    71b8:	e5d33000 	ldrb	r3, [r3]
    71bc:	e35300ff 	cmp	r3, #255	; 0xff
    71c0:	1a000002 	bne	71d0 <ee_locate+0x10c>
			addr_r = addr_m;
    71c4:	e51b301c 	ldr	r3, [fp, #-28]
    71c8:	e50b3018 	str	r3, [fp, #-24]
    71cc:	ea000001 	b	71d8 <ee_locate+0x114>
		else
			addr_l = addr_m;
    71d0:	e51b301c 	ldr	r3, [fp, #-28]
    71d4:	e50b3020 	str	r3, [fp, #-32]
		size = size/2;
    71d8:	e51b3014 	ldr	r3, [fp, #-20]
    71dc:	e1a030a3 	lsr	r3, r3, #1
    71e0:	e50b3014 	str	r3, [fp, #-20]
	if ((*((unsigned char *)addr_l))==0xFF) return(addr_l);
	addr_r = EE_ADDR_H+1;
	if ((*((unsigned char *)(addr_r-EE_REC_SIZE)))==EE_REC_ID) return(-1);
	size = addr_r - addr_l;
	slice_limit = EE_REC_SIZE - 1;
	while(size != EE_REC_SIZE){
    71e4:	e51b3014 	ldr	r3, [fp, #-20]
    71e8:	e3530c01 	cmp	r3, #256	; 0x100
    71ec:	1affffd2 	bne	713c <ee_locate+0x78>
			addr_r = addr_m;
		else
			addr_l = addr_m;
		size = size/2;
	}
	return(addr_r);
    71f0:	e51b3018 	ldr	r3, [fp, #-24]
    71f4:	e50b3024 	str	r3, [fp, #-36]	; 0x24
    71f8:	e51b3024 	ldr	r3, [fp, #-36]	; 0x24
}
    71fc:	e1a00003 	mov	r0, r3
    7200:	e24bd00c 	sub	sp, fp, #12
    7204:	e89d6800 	ldm	sp, {fp, sp, lr}
    7208:	e12fff1e 	bx	lr

0000720c <enter_isp>:

void enter_isp()
{
    720c:	e1a0c00d 	mov	ip, sp
    7210:	e92dd800 	push	{fp, ip, lr, pc}
    7214:	e24cb004 	sub	fp, ip, #4
    7218:	e24dd024 	sub	sp, sp, #36	; 0x24
	unsigned long enabled_interrupts;

	//this functions enters the ISP mode by software
	//disable PLL

	enabled_interrupts = VICIntEnable;  //disable all interrupts
    721c:	e3a03000 	mov	r3, #0
    7220:	e2433eff 	sub	r3, r3, #4080	; 0xff0
    7224:	e5933000 	ldr	r3, [r3]
    7228:	e50b3010 	str	r3, [fp, #-16]
	VICIntEnClr        = enabled_interrupts;
    722c:	e3e03efe 	mvn	r3, #4064	; 0xfe0
    7230:	e243300b 	sub	r3, r3, #11
    7234:	e51b2010 	ldr	r2, [fp, #-16]
    7238:	e5832000 	str	r2, [r3]


	PLLCON=0; //PLL disabled
    723c:	e3a0320e 	mov	r3, #-536870912	; 0xe0000000
    7240:	e283397f 	add	r3, r3, #2080768	; 0x1fc000
    7244:	e2833080 	add	r3, r3, #128	; 0x80
    7248:	e3a02000 	mov	r2, #0
    724c:	e5832000 	str	r2, [r3]

	command_iap[0]=57;
    7250:	e3a03039 	mov	r3, #57	; 0x39
    7254:	e50b3024 	str	r3, [fp, #-36]	; 0x24
	iap_entry=(IAP) IAP_LOCATION;
    7258:	e59f2030 	ldr	r2, [pc, #48]	; 7290 <enter_isp+0x84>
    725c:	e3e0313a 	mvn	r3, #-2147483634	; 0x8000000e
    7260:	e5823000 	str	r3, [r2]
	iap_entry(command_iap,result_iap);
    7264:	e59f3024 	ldr	r3, [pc, #36]	; 7290 <enter_isp+0x84>
    7268:	e593c000 	ldr	ip, [r3]
    726c:	e24b3024 	sub	r3, fp, #36	; 0x24
    7270:	e24b2030 	sub	r2, fp, #48	; 0x30
    7274:	e1a00003 	mov	r0, r3
    7278:	e1a01002 	mov	r1, r2
    727c:	e1a0e00f 	mov	lr, pc
    7280:	e12fff1c 	bx	ip

}
    7284:	e24bd00c 	sub	sp, fp, #12
    7288:	e89d6800 	ldm	sp, {fp, sp, lr}
    728c:	e12fff1e 	bx	lr
    7290:	40001edc 	.word	0x40001edc

00007294 <loadFrame>:

// Processes bytes in our ring buffer and pulls out a frame.
//  Returns TRUE if there is a valid frame.
//  FALSE if there is not a valid frame in the Ring Buffer.
char loadFrame(void)
{
    7294:	e1a0c00d 	mov	ip, sp
    7298:	e92dd800 	push	{fp, ip, lr, pc}
    729c:	e24cb004 	sub	fp, ip, #4
    72a0:	e24dd014 	sub	sp, sp, #20
	int i;
	int sIndex, eIndex; //SOF / EOF indexes.
	int nBuf; //Bytes in the buffer.
	
	// Loop through the available data while we have enough bytes to form a frame.
	while ( bytesAvailable() >= 8 )
    72a4:	ea00004f 	b	73e8 <loadFrame+0x154>
	{
		nBuf = bytesAvailable();
    72a8:	ebffebef 	bl	226c <bytesAvailable>
    72ac:	e1a03000 	mov	r3, r0
    72b0:	e50b3010 	str	r3, [fp, #-16]
	
		// Find our first SOF byte.
		sIndex = findInBuffer(  0, nBuf, SOF );
    72b4:	e3a00000 	mov	r0, #0
    72b8:	e51b1010 	ldr	r1, [fp, #-16]
    72bc:	e3a020ea 	mov	r2, #234	; 0xea
    72c0:	ebffebcf 	bl	2204 <findInBuffer>
    72c4:	e1a03000 	mov	r3, r0
    72c8:	e50b3018 	str	r3, [fp, #-24]
		if ( sIndex == -1 ) //No SOF in the entire buffer?
    72cc:	e51b3018 	ldr	r3, [fp, #-24]
    72d0:	e3730001 	cmn	r3, #1
    72d4:	1a000004 	bne	72ec <loadFrame+0x58>
		{
			skipBytes(nBuf); //Discard the entire buffer.
    72d8:	e51b0010 	ldr	r0, [fp, #-16]
    72dc:	ebffebd8 	bl	2244 <skipBytes>
			return 0;
    72e0:	e3a03000 	mov	r3, #0
    72e4:	e50b3020 	str	r3, [fp, #-32]
    72e8:	ea000044 	b	7400 <loadFrame+0x16c>
		}
	
		// Make sure the SOF is the first entry in our Ring Buffer
		nBuf = skipBytes(sIndex);
    72ec:	e51b0018 	ldr	r0, [fp, #-24]
    72f0:	ebffebd3 	bl	2244 <skipBytes>
    72f4:	e1a03000 	mov	r3, r0
    72f8:	e50b3010 	str	r3, [fp, #-16]
	
		// If we don't have enough characters left in the buffer for a frame
		if ( nBuf < 8 ) 
    72fc:	e51b3010 	ldr	r3, [fp, #-16]
    7300:	e3530007 	cmp	r3, #7
    7304:	ca000002 	bgt	7314 <loadFrame+0x80>
			return 0; // Then we're done.
    7308:	e3a03000 	mov	r3, #0
    730c:	e50b3020 	str	r3, [fp, #-32]
    7310:	ea00003a 	b	7400 <loadFrame+0x16c>
			
		// Now we need to make sure we don't have another SOF.
		// We shouldn't have another for at least 8 bytes.
		sIndex = findInBuffer( 1, 7, SOF );
    7314:	e3a00001 	mov	r0, #1
    7318:	e3a01007 	mov	r1, #7
    731c:	e3a020ea 	mov	r2, #234	; 0xea
    7320:	ebffebb7 	bl	2204 <findInBuffer>
    7324:	e1a03000 	mov	r3, r0
    7328:	e50b3018 	str	r3, [fp, #-24]
		if ( sIndex != -1 ) // We have another SOF in the next 7 characters.
    732c:	e51b3018 	ldr	r3, [fp, #-24]
    7330:	e3730001 	cmn	r3, #1
    7334:	0a000004 	beq	734c <loadFrame+0xb8>
		{
			skipBytes( sIndex + 1 ); //Skip up until then
    7338:	e51b3018 	ldr	r3, [fp, #-24]
    733c:	e2833001 	add	r3, r3, #1
    7340:	e1a00003 	mov	r0, r3
    7344:	ebffebbe 	bl	2244 <skipBytes>
			continue;
    7348:	ea000026 	b	73e8 <loadFrame+0x154>
		}
		
		// We don't have another SOF, do we have a valid EOF?
		eIndex = findInBuffer( 1, 7, EOFm );
    734c:	e3a00001 	mov	r0, #1
    7350:	e3a01007 	mov	r1, #7
    7354:	e3a020d5 	mov	r2, #213	; 0xd5
    7358:	ebffeba9 	bl	2204 <findInBuffer>
    735c:	e1a03000 	mov	r3, r0
    7360:	e50b3014 	str	r3, [fp, #-20]

		if (eIndex != 6) //EOF should be the 8th byte out. Bad Frame! Bad!
    7364:	e51b3014 	ldr	r3, [fp, #-20]
    7368:	e3530006 	cmp	r3, #6
    736c:	0a00000a 	beq	739c <loadFrame+0x108>
		{
			// We will discard byte up to the EOF if it was found...
			if ( eIndex >= 0 )
    7370:	e51b3014 	ldr	r3, [fp, #-20]
    7374:	e3530000 	cmp	r3, #0
    7378:	ba000004 	blt	7390 <loadFrame+0xfc>
				skipBytes( eIndex + 1 ); //Discard up to and including the EOF.
    737c:	e51b3014 	ldr	r3, [fp, #-20]
    7380:	e2833001 	add	r3, r3, #1
    7384:	e1a00003 	mov	r0, r3
    7388:	ebffebad 	bl	2244 <skipBytes>
    738c:	ea000015 	b	73e8 <loadFrame+0x154>
			else
				skipBytes( 8 ); //No EOF was found at all. Discard all 8 in frame.
    7390:	e3a00008 	mov	r0, #8
    7394:	ebffebaa 	bl	2244 <skipBytes>
			continue;
    7398:	ea000012 	b	73e8 <loadFrame+0x154>
		}		
		// We have a valid frame.
		frame.prefix = getByte(); //SOF byte
    739c:	ebffebfc 	bl	2394 <getByte>
    73a0:	e1a03000 	mov	r3, r0
    73a4:	e59f2068 	ldr	r2, [pc, #104]	; 7414 <loadFrame+0x180>
    73a8:	e5c23000 	strb	r3, [r2]
		// Get the command byte
		frame.command = getByte();
    73ac:	ebffebf8 	bl	2394 <getByte>
    73b0:	e1a03000 	mov	r3, r0
    73b4:	e59f2058 	ldr	r2, [pc, #88]	; 7414 <loadFrame+0x180>
    73b8:	e5c23001 	strb	r3, [r2, #1]
		getBytes(frame.data, 5); //Data bytes.
    73bc:	e59f3054 	ldr	r3, [pc, #84]	; 7418 <loadFrame+0x184>
    73c0:	e1a00003 	mov	r0, r3
    73c4:	e3a01005 	mov	r1, #5
    73c8:	ebffec06 	bl	23e8 <getBytes>
		frame.suffix = getByte(); //EOF byte
    73cc:	ebffebf0 	bl	2394 <getByte>
    73d0:	e1a03000 	mov	r3, r0
    73d4:	e59f2038 	ldr	r2, [pc, #56]	; 7414 <loadFrame+0x180>
    73d8:	e5c23007 	strb	r3, [r2, #7]
		
		return 1;
    73dc:	e3a03001 	mov	r3, #1
    73e0:	e50b3020 	str	r3, [fp, #-32]
    73e4:	ea000005 	b	7400 <loadFrame+0x16c>
	int i;
	int sIndex, eIndex; //SOF / EOF indexes.
	int nBuf; //Bytes in the buffer.
	
	// Loop through the available data while we have enough bytes to form a frame.
	while ( bytesAvailable() >= 8 )
    73e8:	ebffeb9f 	bl	226c <bytesAvailable>
    73ec:	e1a03000 	mov	r3, r0
    73f0:	e3530007 	cmp	r3, #7
    73f4:	8affffab 	bhi	72a8 <loadFrame+0x14>
		getBytes(frame.data, 5); //Data bytes.
		frame.suffix = getByte(); //EOF byte
		
		return 1;
	}
	return 0; //No valid frame present.			
    73f8:	e3a03000 	mov	r3, #0
    73fc:	e50b3020 	str	r3, [fp, #-32]
    7400:	e51b3020 	ldr	r3, [fp, #-32]
}
    7404:	e1a00003 	mov	r0, r3
    7408:	e24bd00c 	sub	sp, fp, #12
    740c:	e89d6800 	ldm	sp, {fp, sp, lr}
    7410:	e12fff1e 	bx	lr
    7414:	40001ee0 	.word	0x40001ee0
    7418:	40001ee2 	.word	0x40001ee2

0000741c <memcpy>:
    741c:	b530      	push	{r4, r5, lr}
    741e:	1c05      	adds	r5, r0, #0
    7420:	1c14      	adds	r4, r2, #0
    7422:	2a0f      	cmp	r2, #15
    7424:	d904      	bls.n	7430 <memcpy+0x14>
    7426:	1c0a      	adds	r2, r1, #0
    7428:	432a      	orrs	r2, r5
    742a:	2303      	movs	r3, #3
    742c:	421a      	tst	r2, r3
    742e:	d00b      	beq.n	7448 <memcpy+0x2c>
    7430:	1e62      	subs	r2, r4, #1
    7432:	d305      	bcc.n	7440 <memcpy+0x24>
    7434:	780b      	ldrb	r3, [r1, #0]
    7436:	3101      	adds	r1, #1
    7438:	7003      	strb	r3, [r0, #0]
    743a:	3001      	adds	r0, #1
    743c:	3a01      	subs	r2, #1
    743e:	d2f9      	bcs.n	7434 <memcpy+0x18>
    7440:	1c28      	adds	r0, r5, #0
    7442:	bc30      	pop	{r4, r5}
    7444:	bc02      	pop	{r1}
    7446:	4708      	bx	r1
    7448:	1c2a      	adds	r2, r5, #0
    744a:	680b      	ldr	r3, [r1, #0]
    744c:	6013      	str	r3, [r2, #0]
    744e:	684b      	ldr	r3, [r1, #4]
    7450:	6053      	str	r3, [r2, #4]
    7452:	688b      	ldr	r3, [r1, #8]
    7454:	6093      	str	r3, [r2, #8]
    7456:	68cb      	ldr	r3, [r1, #12]
    7458:	3c10      	subs	r4, #16
    745a:	60d3      	str	r3, [r2, #12]
    745c:	3110      	adds	r1, #16
    745e:	3210      	adds	r2, #16
    7460:	2c0f      	cmp	r4, #15
    7462:	d8f2      	bhi.n	744a <memcpy+0x2e>
    7464:	2c03      	cmp	r4, #3
    7466:	d904      	bls.n	7472 <memcpy+0x56>
    7468:	c908      	ldmia	r1!, {r3}
    746a:	3c04      	subs	r4, #4
    746c:	c208      	stmia	r2!, {r3}
    746e:	2c03      	cmp	r4, #3
    7470:	d8fa      	bhi.n	7468 <memcpy+0x4c>
    7472:	1c10      	adds	r0, r2, #0
    7474:	e7dc      	b.n	7430 <memcpy+0x14>
    7476:	46c0      	nop			; (mov r8, r8)

00007478 <__aeabi_uidiv>:
    7478:	2900      	cmp	r1, #0
    747a:	d034      	beq.n	74e6 <__aeabi_uidiv+0x6e>
    747c:	2301      	movs	r3, #1
    747e:	2200      	movs	r2, #0
    7480:	b410      	push	{r4}
    7482:	4288      	cmp	r0, r1
    7484:	d32c      	bcc.n	74e0 <__aeabi_uidiv+0x68>
    7486:	2401      	movs	r4, #1
    7488:	0724      	lsls	r4, r4, #28
    748a:	42a1      	cmp	r1, r4
    748c:	d204      	bcs.n	7498 <__aeabi_uidiv+0x20>
    748e:	4281      	cmp	r1, r0
    7490:	d202      	bcs.n	7498 <__aeabi_uidiv+0x20>
    7492:	0109      	lsls	r1, r1, #4
    7494:	011b      	lsls	r3, r3, #4
    7496:	e7f8      	b.n	748a <__aeabi_uidiv+0x12>
    7498:	00e4      	lsls	r4, r4, #3
    749a:	42a1      	cmp	r1, r4
    749c:	d204      	bcs.n	74a8 <__aeabi_uidiv+0x30>
    749e:	4281      	cmp	r1, r0
    74a0:	d202      	bcs.n	74a8 <__aeabi_uidiv+0x30>
    74a2:	0049      	lsls	r1, r1, #1
    74a4:	005b      	lsls	r3, r3, #1
    74a6:	e7f8      	b.n	749a <__aeabi_uidiv+0x22>
    74a8:	4288      	cmp	r0, r1
    74aa:	d301      	bcc.n	74b0 <__aeabi_uidiv+0x38>
    74ac:	1a40      	subs	r0, r0, r1
    74ae:	431a      	orrs	r2, r3
    74b0:	084c      	lsrs	r4, r1, #1
    74b2:	42a0      	cmp	r0, r4
    74b4:	d302      	bcc.n	74bc <__aeabi_uidiv+0x44>
    74b6:	1b00      	subs	r0, r0, r4
    74b8:	085c      	lsrs	r4, r3, #1
    74ba:	4322      	orrs	r2, r4
    74bc:	088c      	lsrs	r4, r1, #2
    74be:	42a0      	cmp	r0, r4
    74c0:	d302      	bcc.n	74c8 <__aeabi_uidiv+0x50>
    74c2:	1b00      	subs	r0, r0, r4
    74c4:	089c      	lsrs	r4, r3, #2
    74c6:	4322      	orrs	r2, r4
    74c8:	08cc      	lsrs	r4, r1, #3
    74ca:	42a0      	cmp	r0, r4
    74cc:	d302      	bcc.n	74d4 <__aeabi_uidiv+0x5c>
    74ce:	1b00      	subs	r0, r0, r4
    74d0:	08dc      	lsrs	r4, r3, #3
    74d2:	4322      	orrs	r2, r4
    74d4:	2800      	cmp	r0, #0
    74d6:	d003      	beq.n	74e0 <__aeabi_uidiv+0x68>
    74d8:	091b      	lsrs	r3, r3, #4
    74da:	d001      	beq.n	74e0 <__aeabi_uidiv+0x68>
    74dc:	0909      	lsrs	r1, r1, #4
    74de:	e7e3      	b.n	74a8 <__aeabi_uidiv+0x30>
    74e0:	1c10      	adds	r0, r2, #0
    74e2:	bc10      	pop	{r4}
    74e4:	4770      	bx	lr
    74e6:	b502      	push	{r1, lr}
    74e8:	f000 f85e 	bl	75a8 <__aeabi_idiv0>
    74ec:	2000      	movs	r0, #0
    74ee:	bc06      	pop	{r1, r2}
    74f0:	4710      	bx	r2
    74f2:	46c0      	nop			; (mov r8, r8)

000074f4 <__aeabi_uidivmod>:
    74f4:	b503      	push	{r0, r1, lr}
    74f6:	f7ff ffbf 	bl	7478 <__aeabi_uidiv>
    74fa:	bc0e      	pop	{r1, r2, r3}
    74fc:	4342      	muls	r2, r0
    74fe:	1a89      	subs	r1, r1, r2
    7500:	4718      	bx	r3
    7502:	46c0      	nop			; (mov r8, r8)

00007504 <__aeabi_idiv>:
    7504:	2900      	cmp	r1, #0
    7506:	d041      	beq.n	758c <__aeabi_idiv+0x88>
    7508:	b410      	push	{r4}
    750a:	1c04      	adds	r4, r0, #0
    750c:	404c      	eors	r4, r1
    750e:	46a4      	mov	ip, r4
    7510:	2301      	movs	r3, #1
    7512:	2200      	movs	r2, #0
    7514:	2900      	cmp	r1, #0
    7516:	d500      	bpl.n	751a <__aeabi_idiv+0x16>
    7518:	4249      	negs	r1, r1
    751a:	2800      	cmp	r0, #0
    751c:	d500      	bpl.n	7520 <__aeabi_idiv+0x1c>
    751e:	4240      	negs	r0, r0
    7520:	4288      	cmp	r0, r1
    7522:	d32c      	bcc.n	757e <__aeabi_idiv+0x7a>
    7524:	2401      	movs	r4, #1
    7526:	0724      	lsls	r4, r4, #28
    7528:	42a1      	cmp	r1, r4
    752a:	d204      	bcs.n	7536 <__aeabi_idiv+0x32>
    752c:	4281      	cmp	r1, r0
    752e:	d202      	bcs.n	7536 <__aeabi_idiv+0x32>
    7530:	0109      	lsls	r1, r1, #4
    7532:	011b      	lsls	r3, r3, #4
    7534:	e7f8      	b.n	7528 <__aeabi_idiv+0x24>
    7536:	00e4      	lsls	r4, r4, #3
    7538:	42a1      	cmp	r1, r4
    753a:	d204      	bcs.n	7546 <__aeabi_idiv+0x42>
    753c:	4281      	cmp	r1, r0
    753e:	d202      	bcs.n	7546 <__aeabi_idiv+0x42>
    7540:	0049      	lsls	r1, r1, #1
    7542:	005b      	lsls	r3, r3, #1
    7544:	e7f8      	b.n	7538 <__aeabi_idiv+0x34>
    7546:	4288      	cmp	r0, r1
    7548:	d301      	bcc.n	754e <__aeabi_idiv+0x4a>
    754a:	1a40      	subs	r0, r0, r1
    754c:	431a      	orrs	r2, r3
    754e:	084c      	lsrs	r4, r1, #1
    7550:	42a0      	cmp	r0, r4
    7552:	d302      	bcc.n	755a <__aeabi_idiv+0x56>
    7554:	1b00      	subs	r0, r0, r4
    7556:	085c      	lsrs	r4, r3, #1
    7558:	4322      	orrs	r2, r4
    755a:	088c      	lsrs	r4, r1, #2
    755c:	42a0      	cmp	r0, r4
    755e:	d302      	bcc.n	7566 <__aeabi_idiv+0x62>
    7560:	1b00      	subs	r0, r0, r4
    7562:	089c      	lsrs	r4, r3, #2
    7564:	4322      	orrs	r2, r4
    7566:	08cc      	lsrs	r4, r1, #3
    7568:	42a0      	cmp	r0, r4
    756a:	d302      	bcc.n	7572 <__aeabi_idiv+0x6e>
    756c:	1b00      	subs	r0, r0, r4
    756e:	08dc      	lsrs	r4, r3, #3
    7570:	4322      	orrs	r2, r4
    7572:	2800      	cmp	r0, #0
    7574:	d003      	beq.n	757e <__aeabi_idiv+0x7a>
    7576:	091b      	lsrs	r3, r3, #4
    7578:	d001      	beq.n	757e <__aeabi_idiv+0x7a>
    757a:	0909      	lsrs	r1, r1, #4
    757c:	e7e3      	b.n	7546 <__aeabi_idiv+0x42>
    757e:	1c10      	adds	r0, r2, #0
    7580:	4664      	mov	r4, ip
    7582:	2c00      	cmp	r4, #0
    7584:	d500      	bpl.n	7588 <__aeabi_idiv+0x84>
    7586:	4240      	negs	r0, r0
    7588:	bc10      	pop	{r4}
    758a:	4770      	bx	lr
    758c:	b502      	push	{r1, lr}
    758e:	f000 f80b 	bl	75a8 <__aeabi_idiv0>
    7592:	2000      	movs	r0, #0
    7594:	bc06      	pop	{r1, r2}
    7596:	4710      	bx	r2

00007598 <__aeabi_idivmod>:
    7598:	b503      	push	{r0, r1, lr}
    759a:	f7ff ffb3 	bl	7504 <__aeabi_idiv>
    759e:	bc0e      	pop	{r1, r2, r3}
    75a0:	4342      	muls	r2, r0
    75a2:	1a89      	subs	r1, r1, r2
    75a4:	4718      	bx	r3
    75a6:	46c0      	nop			; (mov r8, r8)

000075a8 <__aeabi_idiv0>:
    75a8:	4770      	bx	lr
    75aa:	46c0      	nop			; (mov r8, r8)

000075ac <__aeabi_drsub>:
    75ac:	e2200102 	eor	r0, r0, #-2147483648	; 0x80000000
    75b0:	ea000000 	b	75b8 <__adddf3>

000075b4 <__aeabi_dsub>:
    75b4:	e2222102 	eor	r2, r2, #-2147483648	; 0x80000000

000075b8 <__adddf3>:
    75b8:	e92d4030 	push	{r4, r5, lr}
    75bc:	e1a04080 	lsl	r4, r0, #1
    75c0:	e1a05082 	lsl	r5, r2, #1
    75c4:	e1340005 	teq	r4, r5
    75c8:	01310003 	teqeq	r1, r3
    75cc:	1194c001 	orrsne	ip, r4, r1
    75d0:	1195c003 	orrsne	ip, r5, r3
    75d4:	11f0cac4 	mvnsne	ip, r4, asr #21
    75d8:	11f0cac5 	mvnsne	ip, r5, asr #21
    75dc:	0a00008c 	beq	7814 <__adddf3+0x25c>
    75e0:	e1a04aa4 	lsr	r4, r4, #21
    75e4:	e0745aa5 	rsbs	r5, r4, r5, lsr #21
    75e8:	b2655000 	rsblt	r5, r5, #0
    75ec:	da000006 	ble	760c <__adddf3+0x54>
    75f0:	e0844005 	add	r4, r4, r5
    75f4:	e0213003 	eor	r3, r1, r3
    75f8:	e0202002 	eor	r2, r0, r2
    75fc:	e0231001 	eor	r1, r3, r1
    7600:	e0220000 	eor	r0, r2, r0
    7604:	e0213003 	eor	r3, r1, r3
    7608:	e0202002 	eor	r2, r0, r2
    760c:	e3550036 	cmp	r5, #54	; 0x36
    7610:	88bd4030 	pophi	{r4, r5, lr}
    7614:	812fff1e 	bxhi	lr
    7618:	e3100102 	tst	r0, #-2147483648	; 0x80000000
    761c:	e1a00600 	lsl	r0, r0, #12
    7620:	e3a0c601 	mov	ip, #1048576	; 0x100000
    7624:	e18c0620 	orr	r0, ip, r0, lsr #12
    7628:	0a000001 	beq	7634 <__adddf3+0x7c>
    762c:	e2711000 	rsbs	r1, r1, #0
    7630:	e2e00000 	rsc	r0, r0, #0
    7634:	e3120102 	tst	r2, #-2147483648	; 0x80000000
    7638:	e1a02602 	lsl	r2, r2, #12
    763c:	e18c2622 	orr	r2, ip, r2, lsr #12
    7640:	0a000001 	beq	764c <__adddf3+0x94>
    7644:	e2733000 	rsbs	r3, r3, #0
    7648:	e2e22000 	rsc	r2, r2, #0
    764c:	e1340005 	teq	r4, r5
    7650:	0a000069 	beq	77fc <__adddf3+0x244>
    7654:	e2444001 	sub	r4, r4, #1
    7658:	e275e020 	rsbs	lr, r5, #32
    765c:	ba000005 	blt	7678 <__adddf3+0xc0>
    7660:	e1a0ce13 	lsl	ip, r3, lr
    7664:	e0911533 	adds	r1, r1, r3, lsr r5
    7668:	e2a00000 	adc	r0, r0, #0
    766c:	e0911e12 	adds	r1, r1, r2, lsl lr
    7670:	e0b00552 	adcs	r0, r0, r2, asr r5
    7674:	ea000006 	b	7694 <__adddf3+0xdc>
    7678:	e2455020 	sub	r5, r5, #32
    767c:	e28ee020 	add	lr, lr, #32
    7680:	e3530001 	cmp	r3, #1
    7684:	e1a0ce12 	lsl	ip, r2, lr
    7688:	238cc002 	orrcs	ip, ip, #2
    768c:	e0911552 	adds	r1, r1, r2, asr r5
    7690:	e0b00fc2 	adcs	r0, r0, r2, asr #31
    7694:	e2005102 	and	r5, r0, #-2147483648	; 0x80000000
    7698:	5a000002 	bpl	76a8 <__adddf3+0xf0>
    769c:	e27cc000 	rsbs	ip, ip, #0
    76a0:	e2f11000 	rscs	r1, r1, #0
    76a4:	e2e00000 	rsc	r0, r0, #0
    76a8:	e3500601 	cmp	r0, #1048576	; 0x100000
    76ac:	3a00000f 	bcc	76f0 <__adddf3+0x138>
    76b0:	e3500602 	cmp	r0, #2097152	; 0x200000
    76b4:	3a000006 	bcc	76d4 <__adddf3+0x11c>
    76b8:	e1b000a0 	lsrs	r0, r0, #1
    76bc:	e1b01061 	rrxs	r1, r1
    76c0:	e1a0c06c 	rrx	ip, ip
    76c4:	e2844001 	add	r4, r4, #1
    76c8:	e1a02a84 	lsl	r2, r4, #21
    76cc:	e3720501 	cmn	r2, #4194304	; 0x400000
    76d0:	2a00006b 	bcs	7884 <__adddf3+0x2cc>
    76d4:	e35c0102 	cmp	ip, #-2147483648	; 0x80000000
    76d8:	01b0c0a1 	lsrseq	ip, r1, #1
    76dc:	e2b11000 	adcs	r1, r1, #0
    76e0:	e0a00a04 	adc	r0, r0, r4, lsl #20
    76e4:	e1800005 	orr	r0, r0, r5
    76e8:	e8bd4030 	pop	{r4, r5, lr}
    76ec:	e12fff1e 	bx	lr
    76f0:	e1b0c08c 	lsls	ip, ip, #1
    76f4:	e0b11001 	adcs	r1, r1, r1
    76f8:	e0a00000 	adc	r0, r0, r0
    76fc:	e3100601 	tst	r0, #1048576	; 0x100000
    7700:	e2444001 	sub	r4, r4, #1
    7704:	1afffff2 	bne	76d4 <__adddf3+0x11c>
    7708:	e3300000 	teq	r0, #0
    770c:	13a03014 	movne	r3, #20
    7710:	03a03034 	moveq	r3, #52	; 0x34
    7714:	01a00001 	moveq	r0, r1
    7718:	03a01000 	moveq	r1, #0
    771c:	e1a02000 	mov	r2, r0
    7720:	e3520801 	cmp	r2, #65536	; 0x10000
    7724:	21a02822 	lsrcs	r2, r2, #16
    7728:	22433010 	subcs	r3, r3, #16
    772c:	e3520c01 	cmp	r2, #256	; 0x100
    7730:	21a02422 	lsrcs	r2, r2, #8
    7734:	22433008 	subcs	r3, r3, #8
    7738:	e3520010 	cmp	r2, #16
    773c:	21a02222 	lsrcs	r2, r2, #4
    7740:	22433004 	subcs	r3, r3, #4
    7744:	e3520004 	cmp	r2, #4
    7748:	22433002 	subcs	r3, r3, #2
    774c:	304330a2 	subcc	r3, r3, r2, lsr #1
    7750:	e04331a2 	sub	r3, r3, r2, lsr #3
    7754:	e2532020 	subs	r2, r3, #32
    7758:	aa000007 	bge	777c <__adddf3+0x1c4>
    775c:	e292200c 	adds	r2, r2, #12
    7760:	da000004 	ble	7778 <__adddf3+0x1c0>
    7764:	e282c014 	add	ip, r2, #20
    7768:	e262200c 	rsb	r2, r2, #12
    776c:	e1a01c10 	lsl	r1, r0, ip
    7770:	e1a00230 	lsr	r0, r0, r2
    7774:	ea000004 	b	778c <__adddf3+0x1d4>
    7778:	e2822014 	add	r2, r2, #20
    777c:	d262c020 	rsble	ip, r2, #32
    7780:	e1a00210 	lsl	r0, r0, r2
    7784:	d1800c31 	orrle	r0, r0, r1, lsr ip
    7788:	d1a01211 	lslle	r1, r1, r2
    778c:	e0544003 	subs	r4, r4, r3
    7790:	a0800a04 	addge	r0, r0, r4, lsl #20
    7794:	a1800005 	orrge	r0, r0, r5
    7798:	a8bd4030 	popge	{r4, r5, lr}
    779c:	a12fff1e 	bxge	lr
    77a0:	e1e04004 	mvn	r4, r4
    77a4:	e254401f 	subs	r4, r4, #31
    77a8:	aa00000f 	bge	77ec <__adddf3+0x234>
    77ac:	e294400c 	adds	r4, r4, #12
    77b0:	ca000006 	bgt	77d0 <__adddf3+0x218>
    77b4:	e2844014 	add	r4, r4, #20
    77b8:	e2642020 	rsb	r2, r4, #32
    77bc:	e1a01431 	lsr	r1, r1, r4
    77c0:	e1811210 	orr	r1, r1, r0, lsl r2
    77c4:	e1850430 	orr	r0, r5, r0, lsr r4
    77c8:	e8bd4030 	pop	{r4, r5, lr}
    77cc:	e12fff1e 	bx	lr
    77d0:	e264400c 	rsb	r4, r4, #12
    77d4:	e2642020 	rsb	r2, r4, #32
    77d8:	e1a01231 	lsr	r1, r1, r2
    77dc:	e1811410 	orr	r1, r1, r0, lsl r4
    77e0:	e1a00005 	mov	r0, r5
    77e4:	e8bd4030 	pop	{r4, r5, lr}
    77e8:	e12fff1e 	bx	lr
    77ec:	e1a01430 	lsr	r1, r0, r4
    77f0:	e1a00005 	mov	r0, r5
    77f4:	e8bd4030 	pop	{r4, r5, lr}
    77f8:	e12fff1e 	bx	lr
    77fc:	e3340000 	teq	r4, #0
    7800:	e2222601 	eor	r2, r2, #1048576	; 0x100000
    7804:	02200601 	eoreq	r0, r0, #1048576	; 0x100000
    7808:	02844001 	addeq	r4, r4, #1
    780c:	12455001 	subne	r5, r5, #1
    7810:	eaffff8f 	b	7654 <__adddf3+0x9c>
    7814:	e1f0cac4 	mvns	ip, r4, asr #21
    7818:	11f0cac5 	mvnsne	ip, r5, asr #21
    781c:	0a00001d 	beq	7898 <__adddf3+0x2e0>
    7820:	e1340005 	teq	r4, r5
    7824:	01310003 	teqeq	r1, r3
    7828:	0a000004 	beq	7840 <__adddf3+0x288>
    782c:	e3340000 	teq	r4, #0
    7830:	01a00002 	moveq	r0, r2
    7834:	01a01003 	moveq	r1, r3
    7838:	e8bd4030 	pop	{r4, r5, lr}
    783c:	e12fff1e 	bx	lr
    7840:	e1300002 	teq	r0, r2
    7844:	13a00000 	movne	r0, #0
    7848:	13a01000 	movne	r1, #0
    784c:	18bd4030 	popne	{r4, r5, lr}
    7850:	112fff1e 	bxne	lr
    7854:	e1b0caa4 	lsrs	ip, r4, #21
    7858:	1a000004 	bne	7870 <__adddf3+0x2b8>
    785c:	e1b01081 	lsls	r1, r1, #1
    7860:	e0b00000 	adcs	r0, r0, r0
    7864:	23800102 	orrcs	r0, r0, #-2147483648	; 0x80000000
    7868:	e8bd4030 	pop	{r4, r5, lr}
    786c:	e12fff1e 	bx	lr
    7870:	e2944501 	adds	r4, r4, #4194304	; 0x400000
    7874:	32800601 	addcc	r0, r0, #1048576	; 0x100000
    7878:	38bd4030 	popcc	{r4, r5, lr}
    787c:	312fff1e 	bxcc	lr
    7880:	e2005102 	and	r5, r0, #-2147483648	; 0x80000000
    7884:	e385047f 	orr	r0, r5, #2130706432	; 0x7f000000
    7888:	e380060f 	orr	r0, r0, #15728640	; 0xf00000
    788c:	e3a01000 	mov	r1, #0
    7890:	e8bd4030 	pop	{r4, r5, lr}
    7894:	e12fff1e 	bx	lr
    7898:	e1f0cac4 	mvns	ip, r4, asr #21
    789c:	11a00002 	movne	r0, r2
    78a0:	11a01003 	movne	r1, r3
    78a4:	01f0cac5 	mvnseq	ip, r5, asr #21
    78a8:	11a02000 	movne	r2, r0
    78ac:	11a03001 	movne	r3, r1
    78b0:	e1914600 	orrs	r4, r1, r0, lsl #12
    78b4:	01935602 	orrseq	r5, r3, r2, lsl #12
    78b8:	01300002 	teqeq	r0, r2
    78bc:	13800702 	orrne	r0, r0, #524288	; 0x80000
    78c0:	e8bd4030 	pop	{r4, r5, lr}
    78c4:	e12fff1e 	bx	lr

000078c8 <__aeabi_ui2d>:
    78c8:	e3300000 	teq	r0, #0
    78cc:	03a01000 	moveq	r1, #0
    78d0:	012fff1e 	bxeq	lr
    78d4:	e92d4030 	push	{r4, r5, lr}
    78d8:	e3a04b01 	mov	r4, #1024	; 0x400
    78dc:	e2844032 	add	r4, r4, #50	; 0x32
    78e0:	e3a05000 	mov	r5, #0
    78e4:	e1a01000 	mov	r1, r0
    78e8:	e3a00000 	mov	r0, #0
    78ec:	eaffff85 	b	7708 <__adddf3+0x150>

000078f0 <__aeabi_i2d>:
    78f0:	e3300000 	teq	r0, #0
    78f4:	03a01000 	moveq	r1, #0
    78f8:	012fff1e 	bxeq	lr
    78fc:	e92d4030 	push	{r4, r5, lr}
    7900:	e3a04b01 	mov	r4, #1024	; 0x400
    7904:	e2844032 	add	r4, r4, #50	; 0x32
    7908:	e2105102 	ands	r5, r0, #-2147483648	; 0x80000000
    790c:	42600000 	rsbmi	r0, r0, #0
    7910:	e1a01000 	mov	r1, r0
    7914:	e3a00000 	mov	r0, #0
    7918:	eaffff7a 	b	7708 <__adddf3+0x150>

0000791c <__aeabi_f2d>:
    791c:	e1b02080 	lsls	r2, r0, #1
    7920:	e1a001c2 	asr	r0, r2, #3
    7924:	e1a00060 	rrx	r0, r0
    7928:	e1a01e02 	lsl	r1, r2, #28
    792c:	121234ff 	andsne	r3, r2, #-16777216	; 0xff000000
    7930:	133304ff 	teqne	r3, #-16777216	; 0xff000000
    7934:	1220030e 	eorne	r0, r0, #939524096	; 0x38000000
    7938:	112fff1e 	bxne	lr
    793c:	e3320000 	teq	r2, #0
    7940:	133304ff 	teqne	r3, #-16777216	; 0xff000000
    7944:	012fff1e 	bxeq	lr
    7948:	e92d4030 	push	{r4, r5, lr}
    794c:	e3a04d0e 	mov	r4, #896	; 0x380
    7950:	e2005102 	and	r5, r0, #-2147483648	; 0x80000000
    7954:	e3c00102 	bic	r0, r0, #-2147483648	; 0x80000000
    7958:	eaffff6a 	b	7708 <__adddf3+0x150>

0000795c <__aeabi_ul2d>:
    795c:	e1902001 	orrs	r2, r0, r1
    7960:	012fff1e 	bxeq	lr
    7964:	e92d4030 	push	{r4, r5, lr}
    7968:	e3a05000 	mov	r5, #0
    796c:	ea000006 	b	798c <__aeabi_l2d+0x1c>

00007970 <__aeabi_l2d>:
    7970:	e1902001 	orrs	r2, r0, r1
    7974:	012fff1e 	bxeq	lr
    7978:	e92d4030 	push	{r4, r5, lr}
    797c:	e2115102 	ands	r5, r1, #-2147483648	; 0x80000000
    7980:	5a000001 	bpl	798c <__aeabi_l2d+0x1c>
    7984:	e2700000 	rsbs	r0, r0, #0
    7988:	e2e11000 	rsc	r1, r1, #0
    798c:	e3a04b01 	mov	r4, #1024	; 0x400
    7990:	e2844032 	add	r4, r4, #50	; 0x32
    7994:	e1a0c000 	mov	ip, r0
    7998:	e1a00001 	mov	r0, r1
    799c:	e1a0100c 	mov	r1, ip
    79a0:	e1b0cb20 	lsrs	ip, r0, #22
    79a4:	0affff3f 	beq	76a8 <__adddf3+0xf0>
    79a8:	e3a02003 	mov	r2, #3
    79ac:	e1b0c1ac 	lsrs	ip, ip, #3
    79b0:	12822003 	addne	r2, r2, #3
    79b4:	e1b0c1ac 	lsrs	ip, ip, #3
    79b8:	12822003 	addne	r2, r2, #3
    79bc:	e08221ac 	add	r2, r2, ip, lsr #3
    79c0:	e2623020 	rsb	r3, r2, #32
    79c4:	e1a0c311 	lsl	ip, r1, r3
    79c8:	e1a01231 	lsr	r1, r1, r2
    79cc:	e1811310 	orr	r1, r1, r0, lsl r3
    79d0:	e1a00230 	lsr	r0, r0, r2
    79d4:	e0844002 	add	r4, r4, r2
    79d8:	eaffff32 	b	76a8 <__adddf3+0xf0>

000079dc <__aeabi_dmul>:
    79dc:	e92d4070 	push	{r4, r5, r6, lr}
    79e0:	e3a0c0ff 	mov	ip, #255	; 0xff
    79e4:	e38ccc07 	orr	ip, ip, #1792	; 0x700
    79e8:	e01c4a20 	ands	r4, ip, r0, lsr #20
    79ec:	101c5a22 	andsne	r5, ip, r2, lsr #20
    79f0:	1134000c 	teqne	r4, ip
    79f4:	1135000c 	teqne	r5, ip
    79f8:	0b000075 	bleq	7bd4 <__aeabi_dmul+0x1f8>
    79fc:	e0844005 	add	r4, r4, r5
    7a00:	e0206002 	eor	r6, r0, r2
    7a04:	e1c00a8c 	bic	r0, r0, ip, lsl #21
    7a08:	e1c22a8c 	bic	r2, r2, ip, lsl #21
    7a0c:	e1915600 	orrs	r5, r1, r0, lsl #12
    7a10:	11935602 	orrsne	r5, r3, r2, lsl #12
    7a14:	e3800601 	orr	r0, r0, #1048576	; 0x100000
    7a18:	e3822601 	orr	r2, r2, #1048576	; 0x100000
    7a1c:	0a00001d 	beq	7a98 <__aeabi_dmul+0xbc>
    7a20:	e08ec391 	umull	ip, lr, r1, r3
    7a24:	e3a05000 	mov	r5, #0
    7a28:	e0a5e390 	umlal	lr, r5, r0, r3
    7a2c:	e2063102 	and	r3, r6, #-2147483648	; 0x80000000
    7a30:	e0a5e291 	umlal	lr, r5, r1, r2
    7a34:	e3a06000 	mov	r6, #0
    7a38:	e0a65290 	umlal	r5, r6, r0, r2
    7a3c:	e33c0000 	teq	ip, #0
    7a40:	138ee001 	orrne	lr, lr, #1
    7a44:	e24440ff 	sub	r4, r4, #255	; 0xff
    7a48:	e3560c02 	cmp	r6, #512	; 0x200
    7a4c:	e2c44c03 	sbc	r4, r4, #768	; 0x300
    7a50:	2a000002 	bcs	7a60 <__aeabi_dmul+0x84>
    7a54:	e1b0e08e 	lsls	lr, lr, #1
    7a58:	e0b55005 	adcs	r5, r5, r5
    7a5c:	e0a66006 	adc	r6, r6, r6
    7a60:	e1830586 	orr	r0, r3, r6, lsl #11
    7a64:	e1800aa5 	orr	r0, r0, r5, lsr #21
    7a68:	e1a01585 	lsl	r1, r5, #11
    7a6c:	e1811aae 	orr	r1, r1, lr, lsr #21
    7a70:	e1a0e58e 	lsl	lr, lr, #11
    7a74:	e254c0fd 	subs	ip, r4, #253	; 0xfd
    7a78:	835c0c07 	cmphi	ip, #1792	; 0x700
    7a7c:	8a000011 	bhi	7ac8 <__aeabi_dmul+0xec>
    7a80:	e35e0102 	cmp	lr, #-2147483648	; 0x80000000
    7a84:	01b0e0a1 	lsrseq	lr, r1, #1
    7a88:	e2b11000 	adcs	r1, r1, #0
    7a8c:	e0a00a04 	adc	r0, r0, r4, lsl #20
    7a90:	e8bd4070 	pop	{r4, r5, r6, lr}
    7a94:	e12fff1e 	bx	lr
    7a98:	e2066102 	and	r6, r6, #-2147483648	; 0x80000000
    7a9c:	e1860000 	orr	r0, r6, r0
    7aa0:	e1811003 	orr	r1, r1, r3
    7aa4:	e0200002 	eor	r0, r0, r2
    7aa8:	e05440ac 	subs	r4, r4, ip, lsr #1
    7aac:	c074500c 	rsbsgt	r5, r4, ip
    7ab0:	c1800a04 	orrgt	r0, r0, r4, lsl #20
    7ab4:	c8bd4070 	popgt	{r4, r5, r6, lr}
    7ab8:	c12fff1e 	bxgt	lr
    7abc:	e3800601 	orr	r0, r0, #1048576	; 0x100000
    7ac0:	e3a0e000 	mov	lr, #0
    7ac4:	e2544001 	subs	r4, r4, #1
    7ac8:	ca00005d 	bgt	7c44 <__aeabi_dmul+0x268>
    7acc:	e3740036 	cmn	r4, #54	; 0x36
    7ad0:	d3a01000 	movle	r1, #0
    7ad4:	d2000102 	andle	r0, r0, #-2147483648	; 0x80000000
    7ad8:	d8bd4070 	pople	{r4, r5, r6, lr}
    7adc:	d12fff1e 	bxle	lr
    7ae0:	e2644000 	rsb	r4, r4, #0
    7ae4:	e2544020 	subs	r4, r4, #32
    7ae8:	aa00001a 	bge	7b58 <__aeabi_dmul+0x17c>
    7aec:	e294400c 	adds	r4, r4, #12
    7af0:	ca00000c 	bgt	7b28 <__aeabi_dmul+0x14c>
    7af4:	e2844014 	add	r4, r4, #20
    7af8:	e2645020 	rsb	r5, r4, #32
    7afc:	e1a03511 	lsl	r3, r1, r5
    7b00:	e1a01431 	lsr	r1, r1, r4
    7b04:	e1811510 	orr	r1, r1, r0, lsl r5
    7b08:	e2002102 	and	r2, r0, #-2147483648	; 0x80000000
    7b0c:	e3c00102 	bic	r0, r0, #-2147483648	; 0x80000000
    7b10:	e0911fa3 	adds	r1, r1, r3, lsr #31
    7b14:	e0a20430 	adc	r0, r2, r0, lsr r4
    7b18:	e19ee083 	orrs	lr, lr, r3, lsl #1
    7b1c:	01c11fa3 	biceq	r1, r1, r3, lsr #31
    7b20:	e8bd4070 	pop	{r4, r5, r6, lr}
    7b24:	e12fff1e 	bx	lr
    7b28:	e264400c 	rsb	r4, r4, #12
    7b2c:	e2645020 	rsb	r5, r4, #32
    7b30:	e1a03411 	lsl	r3, r1, r4
    7b34:	e1a01531 	lsr	r1, r1, r5
    7b38:	e1811410 	orr	r1, r1, r0, lsl r4
    7b3c:	e2000102 	and	r0, r0, #-2147483648	; 0x80000000
    7b40:	e0911fa3 	adds	r1, r1, r3, lsr #31
    7b44:	e2a00000 	adc	r0, r0, #0
    7b48:	e19ee083 	orrs	lr, lr, r3, lsl #1
    7b4c:	01c11fa3 	biceq	r1, r1, r3, lsr #31
    7b50:	e8bd4070 	pop	{r4, r5, r6, lr}
    7b54:	e12fff1e 	bx	lr
    7b58:	e2645020 	rsb	r5, r4, #32
    7b5c:	e18ee511 	orr	lr, lr, r1, lsl r5
    7b60:	e1a03431 	lsr	r3, r1, r4
    7b64:	e1833510 	orr	r3, r3, r0, lsl r5
    7b68:	e1a01430 	lsr	r1, r0, r4
    7b6c:	e2000102 	and	r0, r0, #-2147483648	; 0x80000000
    7b70:	e1c11430 	bic	r1, r1, r0, lsr r4
    7b74:	e0811fa3 	add	r1, r1, r3, lsr #31
    7b78:	e19ee083 	orrs	lr, lr, r3, lsl #1
    7b7c:	01c11fa3 	biceq	r1, r1, r3, lsr #31
    7b80:	e8bd4070 	pop	{r4, r5, r6, lr}
    7b84:	e12fff1e 	bx	lr
    7b88:	e3340000 	teq	r4, #0
    7b8c:	1a000008 	bne	7bb4 <__aeabi_dmul+0x1d8>
    7b90:	e2006102 	and	r6, r0, #-2147483648	; 0x80000000
    7b94:	e1b01081 	lsls	r1, r1, #1
    7b98:	e0a00000 	adc	r0, r0, r0
    7b9c:	e3100601 	tst	r0, #1048576	; 0x100000
    7ba0:	02444001 	subeq	r4, r4, #1
    7ba4:	0afffffa 	beq	7b94 <__aeabi_dmul+0x1b8>
    7ba8:	e1800006 	orr	r0, r0, r6
    7bac:	e3350000 	teq	r5, #0
    7bb0:	11a0f00e 	movne	pc, lr
    7bb4:	e2026102 	and	r6, r2, #-2147483648	; 0x80000000
    7bb8:	e1b03083 	lsls	r3, r3, #1
    7bbc:	e0a22002 	adc	r2, r2, r2
    7bc0:	e3120601 	tst	r2, #1048576	; 0x100000
    7bc4:	02455001 	subeq	r5, r5, #1
    7bc8:	0afffffa 	beq	7bb8 <__aeabi_dmul+0x1dc>
    7bcc:	e1822006 	orr	r2, r2, r6
    7bd0:	e1a0f00e 	mov	pc, lr
    7bd4:	e134000c 	teq	r4, ip
    7bd8:	e00c5a22 	and	r5, ip, r2, lsr #20
    7bdc:	1135000c 	teqne	r5, ip
    7be0:	0a000007 	beq	7c04 <__aeabi_dmul+0x228>
    7be4:	e1916080 	orrs	r6, r1, r0, lsl #1
    7be8:	11936082 	orrsne	r6, r3, r2, lsl #1
    7bec:	1affffe5 	bne	7b88 <__aeabi_dmul+0x1ac>
    7bf0:	e0200002 	eor	r0, r0, r2
    7bf4:	e2000102 	and	r0, r0, #-2147483648	; 0x80000000
    7bf8:	e3a01000 	mov	r1, #0
    7bfc:	e8bd4070 	pop	{r4, r5, r6, lr}
    7c00:	e12fff1e 	bx	lr
    7c04:	e1916080 	orrs	r6, r1, r0, lsl #1
    7c08:	01a01003 	moveq	r1, r3
    7c0c:	01a00002 	moveq	r0, r2
    7c10:	11936082 	orrsne	r6, r3, r2, lsl #1
    7c14:	0a000010 	beq	7c5c <__aeabi_dmul+0x280>
    7c18:	e134000c 	teq	r4, ip
    7c1c:	1a000001 	bne	7c28 <__aeabi_dmul+0x24c>
    7c20:	e1916600 	orrs	r6, r1, r0, lsl #12
    7c24:	1a00000c 	bne	7c5c <__aeabi_dmul+0x280>
    7c28:	e135000c 	teq	r5, ip
    7c2c:	1a000003 	bne	7c40 <__aeabi_dmul+0x264>
    7c30:	e1936602 	orrs	r6, r3, r2, lsl #12
    7c34:	11a01003 	movne	r1, r3
    7c38:	11a00002 	movne	r0, r2
    7c3c:	1a000006 	bne	7c5c <__aeabi_dmul+0x280>
    7c40:	e0200002 	eor	r0, r0, r2
    7c44:	e2000102 	and	r0, r0, #-2147483648	; 0x80000000
    7c48:	e380047f 	orr	r0, r0, #2130706432	; 0x7f000000
    7c4c:	e380060f 	orr	r0, r0, #15728640	; 0xf00000
    7c50:	e3a01000 	mov	r1, #0
    7c54:	e8bd4070 	pop	{r4, r5, r6, lr}
    7c58:	e12fff1e 	bx	lr
    7c5c:	e380047f 	orr	r0, r0, #2130706432	; 0x7f000000
    7c60:	e380073e 	orr	r0, r0, #16252928	; 0xf80000
    7c64:	e8bd4070 	pop	{r4, r5, r6, lr}
    7c68:	e12fff1e 	bx	lr

00007c6c <__aeabi_ddiv>:
    7c6c:	e92d4070 	push	{r4, r5, r6, lr}
    7c70:	e3a0c0ff 	mov	ip, #255	; 0xff
    7c74:	e38ccc07 	orr	ip, ip, #1792	; 0x700
    7c78:	e01c4a20 	ands	r4, ip, r0, lsr #20
    7c7c:	101c5a22 	andsne	r5, ip, r2, lsr #20
    7c80:	1134000c 	teqne	r4, ip
    7c84:	1135000c 	teqne	r5, ip
    7c88:	0b00005e 	bleq	7e08 <__aeabi_ddiv+0x19c>
    7c8c:	e0444005 	sub	r4, r4, r5
    7c90:	e020e002 	eor	lr, r0, r2
    7c94:	e1935602 	orrs	r5, r3, r2, lsl #12
    7c98:	e1a00600 	lsl	r0, r0, #12
    7c9c:	0a00004c 	beq	7dd4 <__aeabi_ddiv+0x168>
    7ca0:	e1a02602 	lsl	r2, r2, #12
    7ca4:	e3a05201 	mov	r5, #268435456	; 0x10000000
    7ca8:	e1852222 	orr	r2, r5, r2, lsr #4
    7cac:	e1822c23 	orr	r2, r2, r3, lsr #24
    7cb0:	e1a03403 	lsl	r3, r3, #8
    7cb4:	e1855220 	orr	r5, r5, r0, lsr #4
    7cb8:	e1855c21 	orr	r5, r5, r1, lsr #24
    7cbc:	e1a06401 	lsl	r6, r1, #8
    7cc0:	e20e0102 	and	r0, lr, #-2147483648	; 0x80000000
    7cc4:	e1550002 	cmp	r5, r2
    7cc8:	01560003 	cmpeq	r6, r3
    7ccc:	e2a440fd 	adc	r4, r4, #253	; 0xfd
    7cd0:	e2844c03 	add	r4, r4, #768	; 0x300
    7cd4:	2a000001 	bcs	7ce0 <__aeabi_ddiv+0x74>
    7cd8:	e1b020a2 	lsrs	r2, r2, #1
    7cdc:	e1a03063 	rrx	r3, r3
    7ce0:	e0566003 	subs	r6, r6, r3
    7ce4:	e0c55002 	sbc	r5, r5, r2
    7ce8:	e1b020a2 	lsrs	r2, r2, #1
    7cec:	e1a03063 	rrx	r3, r3
    7cf0:	e3a01601 	mov	r1, #1048576	; 0x100000
    7cf4:	e3a0c702 	mov	ip, #524288	; 0x80000
    7cf8:	e056e003 	subs	lr, r6, r3
    7cfc:	e0d5e002 	sbcs	lr, r5, r2
    7d00:	20466003 	subcs	r6, r6, r3
    7d04:	21a0500e 	movcs	r5, lr
    7d08:	2181100c 	orrcs	r1, r1, ip
    7d0c:	e1b020a2 	lsrs	r2, r2, #1
    7d10:	e1a03063 	rrx	r3, r3
    7d14:	e056e003 	subs	lr, r6, r3
    7d18:	e0d5e002 	sbcs	lr, r5, r2
    7d1c:	20466003 	subcs	r6, r6, r3
    7d20:	21a0500e 	movcs	r5, lr
    7d24:	218110ac 	orrcs	r1, r1, ip, lsr #1
    7d28:	e1b020a2 	lsrs	r2, r2, #1
    7d2c:	e1a03063 	rrx	r3, r3
    7d30:	e056e003 	subs	lr, r6, r3
    7d34:	e0d5e002 	sbcs	lr, r5, r2
    7d38:	20466003 	subcs	r6, r6, r3
    7d3c:	21a0500e 	movcs	r5, lr
    7d40:	2181112c 	orrcs	r1, r1, ip, lsr #2
    7d44:	e1b020a2 	lsrs	r2, r2, #1
    7d48:	e1a03063 	rrx	r3, r3
    7d4c:	e056e003 	subs	lr, r6, r3
    7d50:	e0d5e002 	sbcs	lr, r5, r2
    7d54:	20466003 	subcs	r6, r6, r3
    7d58:	21a0500e 	movcs	r5, lr
    7d5c:	218111ac 	orrcs	r1, r1, ip, lsr #3
    7d60:	e195e006 	orrs	lr, r5, r6
    7d64:	0a00000d 	beq	7da0 <__aeabi_ddiv+0x134>
    7d68:	e1a05205 	lsl	r5, r5, #4
    7d6c:	e1855e26 	orr	r5, r5, r6, lsr #28
    7d70:	e1a06206 	lsl	r6, r6, #4
    7d74:	e1a02182 	lsl	r2, r2, #3
    7d78:	e1822ea3 	orr	r2, r2, r3, lsr #29
    7d7c:	e1a03183 	lsl	r3, r3, #3
    7d80:	e1b0c22c 	lsrs	ip, ip, #4
    7d84:	1affffdb 	bne	7cf8 <__aeabi_ddiv+0x8c>
    7d88:	e3100601 	tst	r0, #1048576	; 0x100000
    7d8c:	1a000006 	bne	7dac <__aeabi_ddiv+0x140>
    7d90:	e1800001 	orr	r0, r0, r1
    7d94:	e3a01000 	mov	r1, #0
    7d98:	e3a0c102 	mov	ip, #-2147483648	; 0x80000000
    7d9c:	eaffffd5 	b	7cf8 <__aeabi_ddiv+0x8c>
    7da0:	e3100601 	tst	r0, #1048576	; 0x100000
    7da4:	01800001 	orreq	r0, r0, r1
    7da8:	03a01000 	moveq	r1, #0
    7dac:	e254c0fd 	subs	ip, r4, #253	; 0xfd
    7db0:	835c0c07 	cmphi	ip, #1792	; 0x700
    7db4:	8affff43 	bhi	7ac8 <__aeabi_dmul+0xec>
    7db8:	e055c002 	subs	ip, r5, r2
    7dbc:	0056c003 	subseq	ip, r6, r3
    7dc0:	01b0c0a1 	lsrseq	ip, r1, #1
    7dc4:	e2b11000 	adcs	r1, r1, #0
    7dc8:	e0a00a04 	adc	r0, r0, r4, lsl #20
    7dcc:	e8bd4070 	pop	{r4, r5, r6, lr}
    7dd0:	e12fff1e 	bx	lr
    7dd4:	e20ee102 	and	lr, lr, #-2147483648	; 0x80000000
    7dd8:	e18e0620 	orr	r0, lr, r0, lsr #12
    7ddc:	e09440ac 	adds	r4, r4, ip, lsr #1
    7de0:	c074500c 	rsbsgt	r5, r4, ip
    7de4:	c1800a04 	orrgt	r0, r0, r4, lsl #20
    7de8:	c8bd4070 	popgt	{r4, r5, r6, lr}
    7dec:	c12fff1e 	bxgt	lr
    7df0:	e3800601 	orr	r0, r0, #1048576	; 0x100000
    7df4:	e3a0e000 	mov	lr, #0
    7df8:	e2544001 	subs	r4, r4, #1
    7dfc:	eaffff31 	b	7ac8 <__aeabi_dmul+0xec>
    7e00:	e185e006 	orr	lr, r5, r6
    7e04:	eaffff2f 	b	7ac8 <__aeabi_dmul+0xec>
    7e08:	e00c5a22 	and	r5, ip, r2, lsr #20
    7e0c:	e134000c 	teq	r4, ip
    7e10:	0135000c 	teqeq	r5, ip
    7e14:	0affff90 	beq	7c5c <__aeabi_dmul+0x280>
    7e18:	e134000c 	teq	r4, ip
    7e1c:	1a000006 	bne	7e3c <__aeabi_ddiv+0x1d0>
    7e20:	e1914600 	orrs	r4, r1, r0, lsl #12
    7e24:	1affff8c 	bne	7c5c <__aeabi_dmul+0x280>
    7e28:	e135000c 	teq	r5, ip
    7e2c:	1affff83 	bne	7c40 <__aeabi_dmul+0x264>
    7e30:	e1a01003 	mov	r1, r3
    7e34:	e1a00002 	mov	r0, r2
    7e38:	eaffff87 	b	7c5c <__aeabi_dmul+0x280>
    7e3c:	e135000c 	teq	r5, ip
    7e40:	1a000004 	bne	7e58 <__aeabi_ddiv+0x1ec>
    7e44:	e1935602 	orrs	r5, r3, r2, lsl #12
    7e48:	0affff68 	beq	7bf0 <__aeabi_dmul+0x214>
    7e4c:	e1a01003 	mov	r1, r3
    7e50:	e1a00002 	mov	r0, r2
    7e54:	eaffff80 	b	7c5c <__aeabi_dmul+0x280>
    7e58:	e1916080 	orrs	r6, r1, r0, lsl #1
    7e5c:	11936082 	orrsne	r6, r3, r2, lsl #1
    7e60:	1affff48 	bne	7b88 <__aeabi_dmul+0x1ac>
    7e64:	e1914080 	orrs	r4, r1, r0, lsl #1
    7e68:	1affff74 	bne	7c40 <__aeabi_dmul+0x264>
    7e6c:	e1935082 	orrs	r5, r3, r2, lsl #1
    7e70:	1affff5e 	bne	7bf0 <__aeabi_dmul+0x214>
    7e74:	eaffff78 	b	7c5c <__aeabi_dmul+0x280>
    7e78:	e1a0c00d 	.word	0xe1a0c00d
    7e7c:	e92dd8f0 	.word	0xe92dd8f0
    7e80:	e24cb004 	.word	0xe24cb004
    7e84:	e24dd014 	.word	0xe24dd014
    7e88:	e50b0020 	.word	0xe50b0020
    7e8c:	e50b1024 	.word	0xe50b1024
    7e90:	e50b2028 	.word	0xe50b2028
    7e94:	e50b302c 	.word	0xe50b302c
    7e98:	e51b3020 	.word	0xe51b3020
    7e9c:	e50b3030 	.word	0xe50b3030
    7ea0:	e51b3030 	.word	0xe51b3030
    7ea4:	e3530000 	.word	0xe3530000
    7ea8:	0a000002 	.word	0x0a000002
    7eac:	e51b3030 	.word	0xe51b3030
    7eb0:	e3530001 	.word	0xe3530001
    7eb4:	0a000220 	.word	0x0a000220
    7eb8:	e51b3024 	.word	0xe51b3024
    7ebc:	e5932000 	.word	0xe5932000
    7ec0:	e59f3bd8 	.word	0xe59f3bd8
    7ec4:	e5832000 	.word	0xe5832000
    7ec8:	e59f2bc8 	.word	0xe59f2bc8
    7ecc:	e59f3c00 	.word	0xe59f3c00
    7ed0:	e5823000 	.word	0xe5823000
    7ed4:	e59f3c00 	.word	0xe59f3c00
    7ed8:	e5931000 	.word	0xe5931000
    7edc:	e59f2b08 	.word	0xe59f2b08
    7ee0:	e59f3b08 	.word	0xe59f3b08
    7ee4:	e5823000 	.word	0xe5823000
    7ee8:	e59f3afc 	.word	0xe59f3afc
    7eec:	e5933000 	.word	0xe5933000
    7ef0:	e5813000 	.word	0xe5813000
    7ef4:	e5912000 	.word	0xe5912000
    7ef8:	e59f3b9c 	.word	0xe59f3b9c
    7efc:	e5832000 	.word	0xe5832000
    7f00:	e59f2be0 	.word	0xe59f2be0
    7f04:	e59f3bc8 	.word	0xe59f3bc8
    7f08:	e5823000 	.word	0xe5823000
    7f0c:	e59f2ae0 	.word	0xe59f2ae0
    7f10:	e59f3ae0 	.word	0xe59f3ae0
    7f14:	e5823000 	.word	0xe5823000
    7f18:	e59f2adc 	.word	0xe59f2adc
    7f1c:	e59f3adc 	.word	0xe59f3adc
    7f20:	e5823000 	.word	0xe5823000
    7f24:	e59f2b78 	.word	0xe59f2b78
    7f28:	e59f3ad4 	.word	0xe59f3ad4
    7f2c:	e5823000 	.word	0xe5823000
    7f30:	e59f3abc 	.word	0xe59f3abc
    7f34:	e5932000 	.word	0xe5932000
    7f38:	e59f3ab4 	.word	0xe59f3ab4
    7f3c:	e5933000 	.word	0xe5933000
    7f40:	e1a00002 	.word	0xe1a00002
    7f44:	e1a01003 	.word	0xe1a01003
    7f48:	eb001530 	.word	0xeb001530
    7f4c:	e1a03000 	.word	0xe1a03000
    7f50:	e1a02003 	.word	0xe1a02003
    7f54:	e59f3b10 	.word	0xe59f3b10
    7f58:	e5832000 	.word	0xe5832000
    7f5c:	e59f3a98 	.word	0xe59f3a98
    7f60:	e5932000 	.word	0xe5932000
    7f64:	e59f3a90 	.word	0xe59f3a90
    7f68:	e5933000 	.word	0xe5933000
    7f6c:	e1a00002 	.word	0xe1a00002
    7f70:	e1a01003 	.word	0xe1a01003
    7f74:	eb001525 	.word	0xeb001525
    7f78:	e1a03000 	.word	0xe1a03000
    7f7c:	e1a02003 	.word	0xe1a02003
    7f80:	e59f3aec 	.word	0xe59f3aec
    7f84:	e5832000 	.word	0xe5832000
    7f88:	e59f3adc 	.word	0xe59f3adc
    7f8c:	e5932000 	.word	0xe5932000
    7f90:	e59f3adc 	.word	0xe59f3adc
    7f94:	e5933000 	.word	0xe5933000
    7f98:	e1a00002 	.word	0xe1a00002
    7f9c:	e1a01003 	.word	0xe1a01003
    7fa0:	eb001471 	.word	0xeb001471
    7fa4:	e1a03000 	.word	0xe1a03000
    7fa8:	e1a02003 	.word	0xe1a02003
    7fac:	e59f3acc 	.word	0xe59f3acc
    7fb0:	e5832000 	.word	0xe5832000
    7fb4:	e59f3ab0 	.word	0xe59f3ab0
    7fb8:	e5932000 	.word	0xe5932000
    7fbc:	e59f3aa8 	.word	0xe59f3aa8
    7fc0:	e5933000 	.word	0xe5933000
    7fc4:	e1a00002 	.word	0xe1a00002
    7fc8:	e1a01003 	.word	0xe1a01003
    7fcc:	eb00150f 	.word	0xeb00150f
    7fd0:	e1a03000 	.word	0xe1a03000
    7fd4:	e1a02003 	.word	0xe1a02003
    7fd8:	e59f3a7c 	.word	0xe59f3a7c
    7fdc:	e5832000 	.word	0xe5832000
    7fe0:	e59f3a8c 	.word	0xe59f3a8c
    7fe4:	e5932000 	.word	0xe5932000
    7fe8:	e59f3a84 	.word	0xe59f3a84
    7fec:	e5933000 	.word	0xe5933000
    7ff0:	e1a00002 	.word	0xe1a00002
    7ff4:	e1a01003 	.word	0xe1a01003
    7ff8:	eb001504 	.word	0xeb001504
    7ffc:	e1a03000 	.word	0xe1a03000
    8000:	e1a02003 	.word	0xe1a02003
    8004:	e59f39fc 	.word	0xe59f39fc
    8008:	e5832000 	.word	0xe5832000
    800c:	e59f3a48 	.word	0xe59f3a48
    8010:	e5932000 	.word	0xe5932000
    8014:	e59f39ec 	.word	0xe59f39ec
    8018:	e5933000 	.word	0xe5933000
    801c:	e1a00002 	.word	0xe1a00002
    8020:	e1a01003 	.word	0xe1a01003
    8024:	eb001450 	.word	0xeb001450
    8028:	e1a03000 	.word	0xe1a03000
    802c:	e1a02003 	.word	0xe1a02003
    8030:	e59f3a28 	.word	0xe59f3a28
    8034:	e5832000 	.word	0xe5832000
    8038:	e59f29cc 	.word	0xe59f29cc
    803c:	e59f39cc 	.word	0xe59f39cc
    8040:	e5823000 	.word	0xe5823000
    8044:	e59f29c8 	.word	0xe59f29c8
    8048:	e59f39a0 	.word	0xe59f39a0
    804c:	e5823000 	.word	0xe5823000
    8050:	e59f2a9c 	.word	0xe59f2a9c
    8054:	e3a03001 	.word	0xe3a03001
    8058:	e5823000 	.word	0xe5823000
    805c:	ea00019d 	.word	0xea00019d
    8060:	e59f3a8c 	.word	0xe59f3a8c
    8064:	e5933000 	.word	0xe5933000
    8068:	e1a03103 	.word	0xe1a03103
    806c:	e1a02003 	.word	0xe1a02003
    8070:	e59f399c 	.word	0xe59f399c
    8074:	e0825003 	.word	0xe0825003
    8078:	e59f3a74 	.word	0xe59f3a74
    807c:	e5933000 	.word	0xe5933000
    8080:	e1a03103 	.word	0xe1a03103
    8084:	e1a02003 	.word	0xe1a02003
    8088:	e59f3984 	.word	0xe59f3984
    808c:	e2433004 	.word	0xe2433004
    8090:	e0823003 	.word	0xe0823003
    8094:	e5934000 	.word	0xe5934000
    8098:	e59f3a54 	.word	0xe59f3a54
    809c:	e5933000 	.word	0xe5933000
    80a0:	e1a03083 	.word	0xe1a03083
    80a4:	e2433001 	.word	0xe2433001
    80a8:	e1a00003 	.word	0xe1a00003
    80ac:	eb0014a0 	.word	0xeb0014a0
    80b0:	e1a03000 	.word	0xe1a03000
    80b4:	e1a00004 	.word	0xe1a00004
    80b8:	e1a01003 	.word	0xe1a01003
    80bc:	eb0014d3 	.word	0xeb0014d3
    80c0:	e1a03000 	.word	0xe1a03000
    80c4:	e1a04003 	.word	0xe1a04003
    80c8:	e59f3a24 	.word	0xe59f3a24
    80cc:	e5933000 	.word	0xe5933000
    80d0:	e1a00003 	.word	0xe1a00003
    80d4:	eb001496 	.word	0xeb001496
    80d8:	e1a03000 	.word	0xe1a03000
    80dc:	e1a00004 	.word	0xe1a00004
    80e0:	e1a01003 	.word	0xe1a01003
    80e4:	eb00152f 	.word	0xeb00152f
    80e8:	e1a03000 	.word	0xe1a03000
    80ec:	e5853000 	.word	0xe5853000
    80f0:	e59f2920 	.word	0xe59f2920
    80f4:	e3a03002 	.word	0xe3a03002
    80f8:	e5823000 	.word	0xe5823000
    80fc:	e59f2a00 	.word	0xe59f2a00
    8100:	e3a03000 	.word	0xe3a03000
    8104:	e5823000 	.word	0xe5823000
    8108:	e59f290c 	.word	0xe59f290c
    810c:	e3a03001 	.word	0xe3a03001
    8110:	e5823000 	.word	0xe5823000
    8114:	e59f39d8 	.word	0xe59f39d8
    8118:	e5932000 	.word	0xe5932000
    811c:	e59f39e0 	.word	0xe59f39e0
    8120:	e5933000 	.word	0xe5933000
    8124:	e0632002 	.word	0xe0632002
    8128:	e59f38ec 	.word	0xe59f38ec
    812c:	e5933000 	.word	0xe5933000
    8130:	e0822003 	.word	0xe0822003
    8134:	e59f38e0 	.word	0xe59f38e0
    8138:	e5933000 	.word	0xe5933000
    813c:	e1a00002 	.word	0xe1a00002
    8140:	e1a01003 	.word	0xe1a01003
    8144:	eb0015d0 	.word	0xeb0015d0
    8148:	e1a03000 	.word	0xe1a03000
    814c:	e1a02003 	.word	0xe1a02003
    8150:	e59f38c8 	.word	0xe59f38c8
    8154:	e5832000 	.word	0xe5832000
    8158:	ea000142 	.word	0xea000142
    815c:	e59f39a0 	.word	0xe59f39a0
    8160:	e5934000 	.word	0xe5934000
    8164:	e59f3988 	.word	0xe59f3988
    8168:	e5935000 	.word	0xe5935000
    816c:	e59f3980 	.word	0xe59f3980
    8170:	e5933000 	.word	0xe5933000
    8174:	e2432001 	.word	0xe2432001
    8178:	e59f3974 	.word	0xe59f3974
    817c:	e5933000 	.word	0xe5933000
    8180:	e2433001 	.word	0xe2433001
    8184:	e0010293 	.word	0xe0010293
    8188:	e59f3974 	.word	0xe59f3974
    818c:	e5932000 	.word	0xe5932000
    8190:	e59f396c 	.word	0xe59f396c
    8194:	e5933000 	.word	0xe5933000
    8198:	e0030392 	.word	0xe0030392
    819c:	e0633001 	.word	0xe0633001
    81a0:	e1a00003 	.word	0xe1a00003
    81a4:	eb001462 	.word	0xeb001462
    81a8:	e1a06000 	.word	0xe1a06000
    81ac:	e59f3940 	.word	0xe59f3940
    81b0:	e5933000 	.word	0xe5933000
    81b4:	e1a03083 	.word	0xe1a03083
    81b8:	e2432001 	.word	0xe2432001
    81bc:	e59f3930 	.word	0xe59f3930
    81c0:	e5933000 	.word	0xe5933000
    81c4:	e1a03083 	.word	0xe1a03083
    81c8:	e2433003 	.word	0xe2433003
    81cc:	e0030392 	.word	0xe0030392
    81d0:	e1a00003 	.word	0xe1a00003
    81d4:	eb001456 	.word	0xeb001456
    81d8:	e1a03000 	.word	0xe1a03000
    81dc:	e1a00006 	.word	0xe1a00006
    81e0:	e1a01003 	.word	0xe1a01003
    81e4:	eb0014ef 	.word	0xeb0014ef
    81e8:	e1a03000 	.word	0xe1a03000
    81ec:	e1a02003 	.word	0xe1a02003
    81f0:	e59f18ec 	.word	0xe59f18ec
    81f4:	e1a03004 	.word	0xe1a03004
    81f8:	e1a03083 	.word	0xe1a03083
    81fc:	e0833004 	.word	0xe0833004
    8200:	e1a03103 	.word	0xe1a03103
    8204:	e0833004 	.word	0xe0833004
    8208:	e0833005 	.word	0xe0833005
    820c:	e7812103 	.word	0xe7812103
    8210:	e59f38ec 	.word	0xe59f38ec
    8214:	e5933000 	.word	0xe5933000
    8218:	e3530000 	.word	0xe3530000
    821c:	da0000af 	.word	0xda0000af
    8220:	e59f38cc 	.word	0xe59f38cc
    8224:	e5932000 	.word	0xe5932000
    8228:	e59f38d4 	.word	0xe59f38d4
    822c:	e5933000 	.word	0xe5933000
    8230:	e0633002 	.word	0xe0633002
    8234:	e2832001 	.word	0xe2832001
    8238:	e59f37d8 	.word	0xe59f37d8
    823c:	e5933000 	.word	0xe5933000
    8240:	e0030392 	.word	0xe0030392
    8244:	e1a00003 	.word	0xe1a00003
    8248:	eb001439 	.word	0xeb001439
    824c:	e1a04000 	.word	0xe1a04000
    8250:	e59f389c 	.word	0xe59f389c
    8254:	e5932000 	.word	0xe5932000
    8258:	e59f38a4 	.word	0xe59f38a4
    825c:	e5933000 	.word	0xe5933000
    8260:	e0823003 	.word	0xe0823003
    8264:	e1a00003 	.word	0xe1a00003
    8268:	eb001431 	.word	0xeb001431
    826c:	e1a03000 	.word	0xe1a03000
    8270:	e1a00004 	.word	0xe1a00004
    8274:	e1a01003 	.word	0xe1a01003
    8278:	eb0014ca 	.word	0xeb0014ca
    827c:	e1a03000 	.word	0xe1a03000
    8280:	e1a02003 	.word	0xe1a02003
    8284:	e59f3798 	.word	0xe59f3798
    8288:	e5832000 	.word	0xe5832000
    828c:	e59f3870 	.word	0xe59f3870
    8290:	e5932000 	.word	0xe5932000
    8294:	e1a03002 	.word	0xe1a03002
    8298:	e1a03083 	.word	0xe1a03083
    829c:	e0833002 	.word	0xe0833002
    82a0:	e1a03103 	.word	0xe1a03103
    82a4:	e0832002 	.word	0xe0832002
    82a8:	e59f3844 	.word	0xe59f3844
    82ac:	e5933000 	.word	0xe5933000
    82b0:	e0823003 	.word	0xe0823003
    82b4:	e1a02103 	.word	0xe1a02103
    82b8:	e59f3754 	.word	0xe59f3754
    82bc:	e0827003 	.word	0xe0827003
    82c0:	e59f383c 	.word	0xe59f383c
    82c4:	e5932000 	.word	0xe5932000
    82c8:	e1a03002 	.word	0xe1a03002
    82cc:	e1a03083 	.word	0xe1a03083
    82d0:	e0833002 	.word	0xe0833002
    82d4:	e1a03103 	.word	0xe1a03103
    82d8:	e0832002 	.word	0xe0832002
    82dc:	e59f3810 	.word	0xe59f3810
    82e0:	e5933000 	.word	0xe5933000
    82e4:	e0823003 	.word	0xe0823003
    82e8:	e1a01103 	.word	0xe1a01103
    82ec:	e3e02033 	.word	0xe3e02033
    82f0:	e59f371c 	.word	0xe59f371c
    82f4:	e0823003 	.word	0xe0823003
    82f8:	e0813003 	.word	0xe0813003
    82fc:	e5933000 	.word	0xe5933000
    8300:	e1a00003 	.word	0xe1a00003
    8304:	ebfffd84 	.word	0xebfffd84
    8308:	e1a05000 	.word	0xe1a05000
    830c:	e1a06001 	.word	0xe1a06001
    8310:	e59f370c 	.word	0xe59f370c
    8314:	e5933000 	.word	0xe5933000
    8318:	e1a00003 	.word	0xe1a00003
    831c:	ebfffd7e 	.word	0xebfffd7e
    8320:	e1a03000 	.word	0xe1a03000
    8324:	e1a04001 	.word	0xe1a04001
    8328:	e1a00003 	.word	0xe1a00003
    832c:	e1a01004 	.word	0xe1a01004
    8330:	eb00155e 	.word	0xeb00155e
    8334:	e1a03000 	.word	0xe1a03000
    8338:	e1a04001 	.word	0xe1a04001
    833c:	e1a00005 	.word	0xe1a00005
    8340:	e1a01006 	.word	0xe1a01006
    8344:	e1a02003 	.word	0xe1a02003
    8348:	e1a03004 	.word	0xe1a03004
    834c:	ebfffda2 	.word	0xebfffda2
    8350:	e1a03000 	.word	0xe1a03000
    8354:	e1a04001 	.word	0xe1a04001
    8358:	e1a00003 	.word	0xe1a00003
    835c:	e1a01004 	.word	0xe1a01004
    8360:	eb001357 	.word	0xeb001357
    8364:	e1a03000 	.word	0xe1a03000
    8368:	e5873000 	.word	0xe5873000
    836c:	e59f26a4 	.word	0xe59f26a4
    8370:	e3a03001 	.word	0xe3a03001
    8374:	e5823000 	.word	0xe5823000
    8378:	e59f3774 	.word	0xe59f3774
    837c:	e5932000 	.word	0xe5932000
    8380:	e1a03002 	.word	0xe1a03002
    8384:	e1a03083 	.word	0xe1a03083
    8388:	e0833002 	.word	0xe0833002
    838c:	e1a03103 	.word	0xe1a03103
    8390:	e0832002 	.word	0xe0832002
    8394:	e59f3768 	.word	0xe59f3768
    8398:	e5933000 	.word	0xe5933000
    839c:	e0823003 	.word	0xe0823003
    83a0:	e2434001 	.word	0xe2434001
    83a4:	e59f3758 	.word	0xe59f3758
    83a8:	e5932000 	.word	0xe5932000
    83ac:	e1a03002 	.word	0xe1a03002
    83b0:	e1a03083 	.word	0xe1a03083
    83b4:	e0833002 	.word	0xe0833002
    83b8:	e1a03103 	.word	0xe1a03103
    83bc:	e0832002 	.word	0xe0832002
    83c0:	e59f372c 	.word	0xe59f372c
    83c4:	e5933000 	.word	0xe5933000
    83c8:	e0823003 	.word	0xe0823003
    83cc:	e1a02103 	.word	0xe1a02103
    83d0:	e59f363c 	.word	0xe59f363c
    83d4:	e0823003 	.word	0xe0823003
    83d8:	e5931000 	.word	0xe5931000
    83dc:	e59f3710 	.word	0xe59f3710
    83e0:	e5932000 	.word	0xe5932000
    83e4:	e1a03002 	.word	0xe1a03002
    83e8:	e1a03083 	.word	0xe1a03083
    83ec:	e0833002 	.word	0xe0833002
    83f0:	e1a03103 	.word	0xe1a03103
    83f4:	e0832002 	.word	0xe0832002
    83f8:	e59f3704 	.word	0xe59f3704
    83fc:	e5933000 	.word	0xe5933000
    8400:	e0823003 	.word	0xe0823003
    8404:	e2432001 	.word	0xe2432001
    8408:	e59f36e0 	.word	0xe59f36e0
    840c:	e7933102 	.word	0xe7933102
    8410:	e1a00001 	.word	0xe1a00001
    8414:	e1a01003 	.word	0xe1a01003
    8418:	eb0013fc 	.word	0xeb0013fc
    841c:	e1a03000 	.word	0xe1a03000
    8420:	e1a02003 	.word	0xe1a02003
    8424:	e59f36c4 	.word	0xe59f36c4
    8428:	e7832104 	.word	0xe7832104
    842c:	e59f36c0 	.word	0xe59f36c0
    8430:	e5932000 	.word	0xe5932000
    8434:	e1a03002 	.word	0xe1a03002
    8438:	e1a03083 	.word	0xe1a03083
    843c:	e0833002 	.word	0xe0833002
    8440:	e1a03103 	.word	0xe1a03103
    8444:	e0832002 	.word	0xe0832002
    8448:	e59f36b4 	.word	0xe59f36b4
    844c:	e5933000 	.word	0xe5933000
    8450:	e0823003 	.word	0xe0823003
    8454:	e2434001 	.word	0xe2434001
    8458:	e59f36a4 	.word	0xe59f36a4
    845c:	e5932000 	.word	0xe5932000
    8460:	e1a03002 	.word	0xe1a03002
    8464:	e1a03083 	.word	0xe1a03083
    8468:	e0833002 	.word	0xe0833002
    846c:	e1a03103 	.word	0xe1a03103
    8470:	e0832002 	.word	0xe0832002
    8474:	e59f3678 	.word	0xe59f3678
    8478:	e5933000 	.word	0xe5933000
    847c:	e0823003 	.word	0xe0823003
    8480:	e1a02103 	.word	0xe1a02103
    8484:	e59f3588 	.word	0xe59f3588
    8488:	e0823003 	.word	0xe0823003
    848c:	e5931000 	.word	0xe5931000
    8490:	e59f365c 	.word	0xe59f365c
    8494:	e5932000 	.word	0xe5932000
    8498:	e1a03002 	.word	0xe1a03002
    849c:	e1a03083 	.word	0xe1a03083
    84a0:	e0833002 	.word	0xe0833002
    84a4:	e1a03103 	.word	0xe1a03103
    84a8:	e0832002 	.word	0xe0832002
    84ac:	e59f3650 	.word	0xe59f3650
    84b0:	e5933000 	.word	0xe5933000
    84b4:	e0823003 	.word	0xe0823003
    84b8:	e2432001 	.word	0xe2432001
    84bc:	e59f3634 	.word	0xe59f3634
    84c0:	e7933102 	.word	0xe7933102
    84c4:	e1a00001 	.word	0xe1a00001
    84c8:	e1a01003 	.word	0xe1a01003
    84cc:	eb0013cf 	.word	0xeb0013cf
    84d0:	e1a03000 	.word	0xe1a03000
    84d4:	e1a02003 	.word	0xe1a02003
    84d8:	e59f3618 	.word	0xe59f3618
    84dc:	e7832104 	.word	0xe7832104
    84e0:	e59f361c 	.word	0xe59f361c
    84e4:	e5932000 	.word	0xe5932000
    84e8:	e1a03002 	.word	0xe1a03002
    84ec:	e1a03083 	.word	0xe1a03083
    84f0:	e0833002 	.word	0xe0833002
    84f4:	e1a03103 	.word	0xe1a03103
    84f8:	e0832002 	.word	0xe0832002
    84fc:	e59f35f0 	.word	0xe59f35f0
    8500:	e5933000 	.word	0xe5933000
    8504:	e0824003 	.word	0xe0824003
    8508:	e59f35f4 	.word	0xe59f35f4
    850c:	e5932000 	.word	0xe5932000
    8510:	e1a03002 	.word	0xe1a03002
    8514:	e1a03083 	.word	0xe1a03083
    8518:	e0833002 	.word	0xe0833002
    851c:	e1a03103 	.word	0xe1a03103
    8520:	e0832002 	.word	0xe0832002
    8524:	e59f35c8 	.word	0xe59f35c8
    8528:	e5933000 	.word	0xe5933000
    852c:	e0823003 	.word	0xe0823003
    8530:	e1a02103 	.word	0xe1a02103
    8534:	e59f34d8 	.word	0xe59f34d8
    8538:	e0823003 	.word	0xe0823003
    853c:	e5931000 	.word	0xe5931000
    8540:	e59f35bc 	.word	0xe59f35bc
    8544:	e5932000 	.word	0xe5932000
    8548:	e1a03002 	.word	0xe1a03002
    854c:	e1a03083 	.word	0xe1a03083
    8550:	e0833002 	.word	0xe0833002
    8554:	e1a03103 	.word	0xe1a03103
    8558:	e0832002 	.word	0xe0832002
    855c:	e59f3590 	.word	0xe59f3590
    8560:	e5933000 	.word	0xe5933000
    8564:	e0822003 	.word	0xe0822003
    8568:	e59f3580 	.word	0xe59f3580
    856c:	e7933102 	.word	0xe7933102
    8570:	e1a00001 	.word	0xe1a00001
    8574:	e1a01003 	.word	0xe1a01003
    8578:	eb0013a4 	.word	0xeb0013a4
    857c:	e1a03000 	.word	0xe1a03000
    8580:	e1a02003 	.word	0xe1a02003
    8584:	e59f3564 	.word	0xe59f3564
    8588:	e7832104 	.word	0xe7832104
    858c:	e59f3570 	.word	0xe59f3570
    8590:	e5932000 	.word	0xe5932000
    8594:	e1a03002 	.word	0xe1a03002
    8598:	e1a03083 	.word	0xe1a03083
    859c:	e0833002 	.word	0xe0833002
    85a0:	e1a03103 	.word	0xe1a03103
    85a4:	e0832002 	.word	0xe0832002
    85a8:	e59f3544 	.word	0xe59f3544
    85ac:	e5933000 	.word	0xe5933000
    85b0:	e0824003 	.word	0xe0824003
    85b4:	e59f3548 	.word	0xe59f3548
    85b8:	e5932000 	.word	0xe5932000
    85bc:	e1a03002 	.word	0xe1a03002
    85c0:	e1a03083 	.word	0xe1a03083
    85c4:	e0833002 	.word	0xe0833002
    85c8:	e1a03103 	.word	0xe1a03103
    85cc:	e0832002 	.word	0xe0832002
    85d0:	e59f351c 	.word	0xe59f351c
    85d4:	e5933000 	.word	0xe5933000
    85d8:	e0823003 	.word	0xe0823003
    85dc:	e1a02103 	.word	0xe1a02103
    85e0:	e59f342c 	.word	0xe59f342c
    85e4:	e0823003 	.word	0xe0823003
    85e8:	e5931000 	.word	0xe5931000
    85ec:	e59f3510 	.word	0xe59f3510
    85f0:	e5932000 	.word	0xe5932000
    85f4:	e1a03002 	.word	0xe1a03002
    85f8:	e1a03083 	.word	0xe1a03083
    85fc:	e0833002 	.word	0xe0833002
    8600:	e1a03103 	.word	0xe1a03103
    8604:	e0832002 	.word	0xe0832002
    8608:	e59f34e4 	.word	0xe59f34e4
    860c:	e5933000 	.word	0xe5933000
    8610:	e0822003 	.word	0xe0822003
    8614:	e59f34dc 	.word	0xe59f34dc
    8618:	e7933102 	.word	0xe7933102
    861c:	e1a00001 	.word	0xe1a00001
    8620:	e1a01003 	.word	0xe1a01003
    8624:	eb001379 	.word	0xeb001379
    8628:	e1a03000 	.word	0xe1a03000
    862c:	e1a02003 	.word	0xe1a02003
    8630:	e59f34c0 	.word	0xe59f34c0
    8634:	e7832104 	.word	0xe7832104
    8638:	e59f33e0 	.word	0xe59f33e0
    863c:	e5933000 	.word	0xe5933000
    8640:	e2432001 	.word	0xe2432001
    8644:	e59f33d4 	.word	0xe59f33d4
    8648:	e5832000 	.word	0xe5832000
    864c:	e59f34b0 	.word	0xe59f34b0
    8650:	e5932000 	.word	0xe5932000
    8654:	e59f33c0 	.word	0xe59f33c0
    8658:	e5933000 	.word	0xe5933000
    865c:	e0822003 	.word	0xe0822003
    8660:	e59f349c 	.word	0xe59f349c
    8664:	e5832000 	.word	0xe5832000
    8668:	e59f33b0 	.word	0xe59f33b0
    866c:	e5933000 	.word	0xe5933000
    8670:	e3530000 	.word	0xe3530000
    8674:	cafffeb8 	.word	0xcafffeb8
    8678:	e59f3474 	.word	0xe59f3474
    867c:	e5934000 	.word	0xe5934000
    8680:	e59f346c 	.word	0xe59f346c
    8684:	e5933000 	.word	0xe5933000
    8688:	e2833001 	.word	0xe2833001
    868c:	e1a00003 	.word	0xe1a00003
    8690:	eb001327 	.word	0xeb001327
    8694:	e1a02000 	.word	0xe1a02000
    8698:	e59f3388 	.word	0xe59f3388
    869c:	e7832104 	.word	0xe7832104
    86a0:	e59f344c 	.word	0xe59f344c
    86a4:	e5934000 	.word	0xe5934000
    86a8:	e59f3444 	.word	0xe59f3444
    86ac:	e5933000 	.word	0xe5933000
    86b0:	e1a00003 	.word	0xe1a00003
    86b4:	eb00131e 	.word	0xeb00131e
    86b8:	e1a02000 	.word	0xe1a02000
    86bc:	e59f3368 	.word	0xe59f3368
    86c0:	e7832104 	.word	0xe7832104
    86c4:	e59f3428 	.word	0xe59f3428
    86c8:	e5933000 	.word	0xe5933000
    86cc:	e2832001 	.word	0xe2832001
    86d0:	e59f341c 	.word	0xe59f341c
    86d4:	e5832000 	.word	0xe5832000
    86d8:	e59f3414 	.word	0xe59f3414
    86dc:	e5932000 	.word	0xe5932000
    86e0:	e59f33b8 	.word	0xe59f33b8
    86e4:	e5933000 	.word	0xe5933000
    86e8:	e1520003 	.word	0xe1520003
    86ec:	dafffe5b 	.word	0xdafffe5b
    86f0:	e59f23ec 	.word	0xe59f23ec
    86f4:	e59f33d8 	.word	0xe59f33d8
    86f8:	e5823038 	.word	0xe5823038
    86fc:	e59f2390 	.word	0xe59f2390
    8700:	e59f3328 	.word	0xe59f3328
    8704:	e5823000 	.word	0xe5823000
    8708:	e59f3384 	.word	0xe59f3384
    870c:	e5932000 	.word	0xe5932000
    8710:	e59f33b8 	.word	0xe59f33b8
    8714:	e5832000 	.word	0xe5832000
    8718:	e59f33b0 	.word	0xe59f33b0
    871c:	e5932000 	.word	0xe5932000
    8720:	e59f33a4 	.word	0xe59f33a4
    8724:	e5832000 	.word	0xe5832000
    8728:	e59f339c 	.word	0xe59f339c
    872c:	e5932000 	.word	0xe5932000
    8730:	e59f33b4 	.word	0xe59f33b4
    8734:	e5832000 	.word	0xe5832000
    8738:	ea00082f 	.word	0xea00082f
    873c:	e59f32c8 	.word	0xe59f32c8
    8740:	e5933000 	.word	0xe5933000
    8744:	e59b0008 	.word	0xe59b0008
    8748:	e1a01003 	.word	0xe1a01003
    874c:	eb001286 	.word	0xeb001286
    8750:	e1a03000 	.word	0xe1a03000
    8754:	e1a02003 	.word	0xe1a02003
    8758:	e59f339c 	.word	0xe59f339c
    875c:	e5832000 	.word	0xe5832000
    8760:	e59f3384 	.word	0xe59f3384
    8764:	e5933000 	.word	0xe5933000
    8768:	e1a00003 	.word	0xe1a00003
    876c:	e59f1360 	.word	0xe59f1360
    8770:	eb0013e6 	.word	0xeb0013e6
    8774:	e1a03000 	.word	0xe1a03000
    8778:	e3530000 	.word	0xe3530000
    877c:	ba000000 	.word	0xba000000
    8780:	ea000008 	.word	0xea000008
    8784:	e59f3370 	.word	0xe59f3370
    8788:	e5933000 	.word	0xe5933000
    878c:	e1a00003 	.word	0xe1a00003
    8790:	e59f133c 	.word	0xe59f133c
    8794:	eb0013dd 	.word	0xeb0013dd
    8798:	e1a03000 	.word	0xe1a03000
    879c:	e3530000 	.word	0xe3530000
    87a0:	ba000000 	.word	0xba000000
    87a4:	eaffffff 	.word	0xeaffffff
    87a8:	e59f2284 	.word	0xe59f2284
    87ac:	e59f3284 	.word	0xe59f3284
    87b0:	e5823000 	.word	0xe5823000
    87b4:	e59f3278 	.word	0xe59f3278
    87b8:	e5933000 	.word	0xe5933000
    87bc:	e1a00003 	.word	0xe1a00003
    87c0:	e59f1274 	.word	0xe59f1274
    87c4:	eb001377 	.word	0xeb001377
    87c8:	e1a03000 	.word	0xe1a03000
    87cc:	e1a02003 	.word	0xe1a02003
    87d0:	e59f3268 	.word	0xe59f3268
    87d4:	e5832000 	.word	0xe5832000
    87d8:	e59f3260 	.word	0xe59f3260
    87dc:	e5933000 	.word	0xe5933000
    87e0:	e1a00003 	.word	0xe1a00003
    87e4:	e59b1004 	.word	0xe59b1004
    87e8:	eb001308 	.word	0xeb001308
    87ec:	e1a03000 	.word	0xe1a03000
    87f0:	e1a02003 	.word	0xe1a02003
    87f4:	e59f3248 	.word	0xe59f3248
    87f8:	e5832000 	.word	0xe5832000
    87fc:	e59f323c 	.word	0xe59f323c
    8800:	e5933000 	.word	0xe5933000
    8804:	e1a00003 	.word	0xe1a00003
    8808:	e51b102c 	.word	0xe51b102c
    880c:	eb0012ff 	.word	0xeb0012ff
    8810:	e1a03000 	.word	0xe1a03000
    8814:	e1a02003 	.word	0xe1a02003
    8818:	e59f3228 	.word	0xe59f3228
    881c:	e5832000 	.word	0xe5832000
    8820:	e59f321c 	.word	0xe59f321c
    8824:	e5933000 	.word	0xe5933000
    8828:	e1a00003 	.word	0xe1a00003
    882c:	ebfffc3a 	.word	0xebfffc3a
    8830:	e1a03000 	.word	0xe1a03000
    8834:	e1a04001 	.word	0xe1a04001
    8838:	e1a00003 	.word	0xe1a00003
    883c:	e1a01004 	.word	0xe1a01004
    8840:	eb00141d 	.word	0xeb00141d
    8844:	e1a03000 	.word	0xe1a03000
    8848:	e1a04001 	.word	0xe1a04001
    884c:	e1a00003 	.word	0xe1a00003
    8850:	e1a01004 	.word	0xe1a01004
    8854:	eb00121a 	.word	0xeb00121a
    8858:	e1a02000 	.word	0xe1a02000
    885c:	e59f31e8 	.word	0xe59f31e8
    8860:	e5832000 	.word	0xe5832000
    8864:	e59f31dc 	.word	0xe59f31dc
    8868:	e5933000 	.word	0xe5933000
    886c:	e1a00003 	.word	0xe1a00003
    8870:	ebfffc29 	.word	0xebfffc29
    8874:	e1a03000 	.word	0xe1a03000
    8878:	e1a04001 	.word	0xe1a04001
    887c:	e1a00003 	.word	0xe1a00003
    8880:	e1a01004 	.word	0xe1a01004
    8884:	eb00140c 	.word	0xeb00140c
    8888:	e1a03000 	.word	0xe1a03000
    888c:	e1a04001 	.word	0xe1a04001
    8890:	e1a00003 	.word	0xe1a00003
    8894:	e1a01004 	.word	0xe1a01004
    8898:	eb001209 	.word	0xeb001209
    889c:	e1a02000 	.word	0xe1a02000
    88a0:	e59f31e0 	.word	0xe59f31e0
    88a4:	e5832000 	.word	0xe5832000
    88a8:	e59f3194 	.word	0xe59f3194
    88ac:	e5933000 	.word	0xe5933000
    88b0:	e1a00003 	.word	0xe1a00003
    88b4:	ebfffc18 	.word	0xebfffc18
    88b8:	e1a03000 	.word	0xe1a03000
    88bc:	e1a04001 	.word	0xe1a04001
    88c0:	e1a00003 	.word	0xe1a00003
    88c4:	e1a01004 	.word	0xe1a01004
    88c8:	eb0013f2 	.word	0xeb0013f2
    88cc:	e1a03000 	.word	0xe1a03000
    88d0:	e1a04001 	.word	0xe1a04001
    88d4:	e1a00003 	.word	0xe1a00003
    88d8:	e1a01004 	.word	0xe1a01004
    88dc:	eb0011f8 	.word	0xeb0011f8
    88e0:	e1a02000 	.word	0xe1a02000
    88e4:	e59f3164 	.word	0xe59f3164
    88e8:	e5832000 	.word	0xe5832000
    88ec:	e59f3154 	.word	0xe59f3154
    88f0:	e5933000 	.word	0xe5933000
    88f4:	e1a00003 	.word	0xe1a00003
    88f8:	ebfffc07 	.word	0xebfffc07
    88fc:	e1a03000 	.word	0xe1a03000
    8900:	e1a04001 	.word	0xe1a04001
    8904:	e1a00003 	.word	0xe1a00003
    8908:	e1a01004 	.word	0xe1a01004
    890c:	eb0013e1 	.word	0xeb0013e1
    8910:	e1a03000 	.word	0xe1a03000
    8914:	e1a04001 	.word	0xe1a04001
    8918:	e1a00003 	.word	0xe1a00003
    891c:	e1a01004 	.word	0xe1a01004
    8920:	eb0011e7 	.word	0xeb0011e7
    8924:	e1a02000 	.word	0xe1a02000
    8928:	e59f3154 	.word	0xe59f3154
    892c:	e5832000 	.word	0xe5832000
    8930:	e59f3150 	.word	0xe59f3150
    8934:	e5932000 	.word	0xe5932000
    8938:	e59f3148 	.word	0xe59f3148
    893c:	e5933000 	.word	0xe5933000
    8940:	e1a00002 	.word	0xe1a00002
    8944:	e1a01003 	.word	0xe1a01003
    8948:	eb0012b0 	.word	0xeb0012b0
    894c:	e1a03000 	.word	0xe1a03000
    8950:	e1a02003 	.word	0xe1a02003
    8954:	e59f311c 	.word	0xe59f311c
    8958:	e5832000 	.word	0xe5832000
    895c:	e59f3120 	.word	0xe59f3120
    8960:	e5932000 	.word	0xe5932000
    8964:	e59f3118 	.word	0xe59f3118
    8968:	e5933000 	.word	0xe5933000
    896c:	e1a00002 	.word	0xe1a00002
    8970:	e1a01003 	.word	0xe1a01003
    8974:	eb0012a5 	.word	0xeb0012a5
    8978:	e1a03000 	.word	0xe1a03000
    897c:	e1a02003 	.word	0xe1a02003
    8980:	e59f30e8 	.word	0xe59f30e8
    8984:	e5832000 	.word	0xe5832000
    8988:	e59f30bc 	.word	0xe59f30bc
    898c:	e5932000 	.word	0xe5932000
    8990:	e59f3100 	.word	0xe59f3100
    8994:	e5832004 	.word	0xe5832004
    8998:	e59f30b0 	.word	0xe59f30b0
    899c:	e5932000 	.word	0xe5932000
    89a0:	e59f30f4 	.word	0xe59f30f4
    89a4:	e5832004 	.word	0xe5832004
    89a8:	e59f311c 	.word	0xe59f311c
    89ac:	e5933000 	.word	0xe5933000
    89b0:	e51b0028 	.word	0xe51b0028
    89b4:	e1a01003 	.word	0xe1a01003
    89b8:	eb001356 	.word	0xeb001356
    89bc:	e1a03000 	.word	0xe1a03000
    89c0:	e3530000 	.word	0xe3530000
    89c4:	1a00004f 	.word	0x1a00004f
    89c8:	e59f3100 	.word	0xe59f3100
    89cc:	e5933000 	.word	0xe5933000
    89d0:	e51b002c 	.word	0xe51b002c
    89d4:	e1a01003 	.word	0xe1a01003
    89d8:	eb00134e 	.word	0xeb00134e
    89dc:	e1a03000 	.word	0xe1a03000
    89e0:	e3530000 	.word	0xe3530000
    89e4:	1a000047 	.word	0x1a000047
    89e8:	ea000196 	.word	0xea000196
    89ec:	40000db4 	.word	0x40000db4
    89f0:	3f800000 	.word	0x3f800000
    89f4:	40000b04 	.word	0x40000b04
    89f8:	45c75119 	.word	0x45c75119
    89fc:	40000b00 	.word	0x40000b00
    8a00:	45c6a605 	.word	0x45c6a605
    8a04:	45c7199a 	.word	0x45c7199a
    8a08:	40000ae8 	.word	0x40000ae8
    8a0c:	40000ae0 	.word	0x40000ae0
    8a10:	44faa000 	.word	0x44faa000
    8a14:	40000eb8 	.word	0x40000eb8
    8a18:	400016b4 	.word	0x400016b4
    8a1c:	400016b0 	.word	0x400016b0
    8a20:	400016ac 	.word	0x400016ac
    8a24:	40000adc 	.word	0x40000adc
    8a28:	40000e1c 	.word	0x40000e1c
    8a2c:	40000de8 	.word	0x40000de8
    8a30:	c47a0000 	.word	0xc47a0000
    8a34:	40000b0c 	.word	0x40000b0c
    8a38:	40490fdb 	.word	0x40490fdb
    8a3c:	43340000 	.word	0x43340000
    8a40:	40000b08 	.word	0x40000b08
    8a44:	40000ac4 	.word	0x40000ac4
    8a48:	40000ac0 	.word	0x40000ac0
    8a4c:	40000abc 	.word	0x40000abc
    8a50:	40000ab4 	.word	0x40000ab4
    8a54:	40000a9c 	.word	0x40000a9c
    8a58:	40000aa0 	.word	0x40000aa0
    8a5c:	40000aec 	.word	0x40000aec
    8a60:	40000ae4 	.word	0x40000ae4
    8a64:	40000aa4 	.word	0x40000aa4
    8a68:	40000a90 	.word	0x40000a90
    8a6c:	40000af8 	.word	0x40000af8
    8a70:	40000aa8 	.word	0x40000aa8
    8a74:	40000af4 	.word	0x40000af4
    8a78:	40000aac 	.word	0x40000aac
    8a7c:	40000a84 	.word	0x40000a84
    8a80:	40000af0 	.word	0x40000af0
    8a84:	40000ab0 	.word	0x40000ab0
    8a88:	40000ab8 	.word	0x40000ab8
    8a8c:	40000a88 	.word	0x40000a88
    8a90:	40000a80 	.word	0x40000a80
    8a94:	40000acc 	.word	0x40000acc
    8a98:	40000e84 	.word	0x40000e84
    8a9c:	40000e50 	.word	0x40000e50
    8aa0:	400016c0 	.word	0x400016c0
    8aa4:	40000afc 	.word	0x40000afc
    8aa8:	40000a8c 	.word	0x40000a8c
    8aac:	40000a68 	.word	0x40000a68
    8ab0:	40000a6c 	.word	0x40000a6c
    8ab4:	40000a70 	.word	0x40000a70
    8ab8:	40000a74 	.word	0x40000a74
    8abc:	40000a7c 	.word	0x40000a7c
    8ac0:	40000a78 	.word	0x40000a78
    8ac4:	400016a8 	.word	0x400016a8
    8ac8:	400016a4 	.word	0x400016a4
    8acc:	40000ad4 	.word	0x40000ad4
    8ad0:	40000ad0 	.word	0x40000ad0
    8ad4:	00000000 	.word	0x00000000
    8ad8:	40000a98 	.word	0x40000a98
    8adc:	40000014 	.word	0x40000014
    8ae0:	40000a94 	.word	0x40000a94
    8ae4:	40000b10 	.word	0x40000b10
    8ae8:	4000115c 	.word	0x4000115c
    8aec:	40000ad8 	.word	0x40000ad8
    8af0:	40000018 	.word	0x40000018
    8af4:	400016bc 	.word	0x400016bc
    8af8:	400002bc 	.word	0x400002bc
    8afc:	40000ac8 	.word	0x40000ac8
    8b00:	40001400 	.word	0x40001400
    8b04:	400016b8 	.word	0x400016b8
    8b08:	e51f30a4 	.word	0xe51f30a4
    8b0c:	e5934000 	.word	0xe5934000
    8b10:	e51f3098 	.word	0xe51f3098
    8b14:	e5932000 	.word	0xe5932000
    8b18:	e51f30a8 	.word	0xe51f30a8
    8b1c:	e5933000 	.word	0xe5933000
    8b20:	e1a00002 	.word	0xe1a00002
    8b24:	e1a01003 	.word	0xe1a01003
    8b28:	eb001238 	.word	0xeb001238
    8b2c:	e1a03000 	.word	0xe1a03000
    8b30:	e1a00004 	.word	0xe1a00004
    8b34:	e1a01003 	.word	0xe1a01003
    8b38:	eb00118b 	.word	0xeb00118b
    8b3c:	e1a03000 	.word	0xe1a03000
    8b40:	e1a00003 	.word	0xe1a00003
    8b44:	ebfffb74 	.word	0xebfffb74
    8b48:	e1a03000 	.word	0xe1a03000
    8b4c:	e1a04001 	.word	0xe1a04001
    8b50:	e1a00003 	.word	0xe1a00003
    8b54:	e1a01004 	.word	0xe1a01004
    8b58:	eb001354 	.word	0xeb001354
    8b5c:	e1a03000 	.word	0xe1a03000
    8b60:	e1a04001 	.word	0xe1a04001
    8b64:	e1a00003 	.word	0xe1a00003
    8b68:	e1a01004 	.word	0xe1a01004
    8b6c:	eb001154 	.word	0xeb001154
    8b70:	e1a02000 	.word	0xe1a02000
    8b74:	e51f3118 	.word	0xe51f3118
    8b78:	e5832000 	.word	0xe5832000
    8b7c:	e51f3120 	.word	0xe51f3120
    8b80:	e5933000 	.word	0xe5933000
    8b84:	e1a00003 	.word	0xe1a00003
    8b88:	e51b1028 	.word	0xe51b1028
    8b8c:	eb00121f 	.word	0xeb00121f
    8b90:	e1a03000 	.word	0xe1a03000
    8b94:	e1a02003 	.word	0xe1a02003
    8b98:	e51f3148 	.word	0xe51f3148
    8b9c:	e5832000 	.word	0xe5832000
    8ba0:	e51f3150 	.word	0xe51f3150
    8ba4:	e5932000 	.word	0xe5932000
    8ba8:	e51f3144 	.word	0xe51f3144
    8bac:	e5933000 	.word	0xe5933000
    8bb0:	e1a00002 	.word	0xe1a00002
    8bb4:	e1a01003 	.word	0xe1a01003
    8bb8:	eb00116c 	.word	0xeb00116c
    8bbc:	e1a03000 	.word	0xe1a03000
    8bc0:	e1a04003 	.word	0xe1a04003
    8bc4:	e51f3174 	.word	0xe51f3174
    8bc8:	e5932000 	.word	0xe5932000
    8bcc:	e51f3160 	.word	0xe51f3160
    8bd0:	e5933000 	.word	0xe5933000
    8bd4:	e1a00002 	.word	0xe1a00002
    8bd8:	e1a01003 	.word	0xe1a01003
    8bdc:	eb001163 	.word	0xeb001163
    8be0:	e1a03000 	.word	0xe1a03000
    8be4:	e1a00004 	.word	0xe1a00004
    8be8:	e1a01003 	.word	0xe1a01003
    8bec:	eb00126d 	.word	0xeb00126d
    8bf0:	e1a03000 	.word	0xe1a03000
    8bf4:	e1a05003 	.word	0xe1a05003
    8bf8:	e51f31a8 	.word	0xe51f31a8
    8bfc:	e5932000 	.word	0xe5932000
    8c00:	e51f319c 	.word	0xe51f319c
    8c04:	e5933000 	.word	0xe5933000
    8c08:	e1a00002 	.word	0xe1a00002
    8c0c:	e1a01003 	.word	0xe1a01003
    8c10:	eb001156 	.word	0xeb001156
    8c14:	e1a03000 	.word	0xe1a03000
    8c18:	e1a04003 	.word	0xe1a04003
    8c1c:	e51f31cc 	.word	0xe51f31cc
    8c20:	e5932000 	.word	0xe5932000
    8c24:	e51f31b8 	.word	0xe51f31b8
    8c28:	e5933000 	.word	0xe5933000
    8c2c:	e1a00002 	.word	0xe1a00002
    8c30:	e1a01003 	.word	0xe1a01003
    8c34:	eb00114d 	.word	0xeb00114d
    8c38:	e1a03000 	.word	0xe1a03000
    8c3c:	e1a00004 	.word	0xe1a00004
    8c40:	e1a01003 	.word	0xe1a01003
    8c44:	eb001257 	.word	0xeb001257
    8c48:	e1a03000 	.word	0xe1a03000
    8c4c:	e1a00005 	.word	0xe1a00005
    8c50:	e1a01003 	.word	0xe1a01003
    8c54:	eb0011ed 	.word	0xeb0011ed
    8c58:	e1a03000 	.word	0xe1a03000
    8c5c:	e1a02003 	.word	0xe1a02003
    8c60:	e51f3214 	.word	0xe51f3214
    8c64:	e5832000 	.word	0xe5832000
    8c68:	e51f31e8 	.word	0xe51f31e8
    8c6c:	e5933000 	.word	0xe5933000
    8c70:	e1a00003 	.word	0xe1a00003
    8c74:	ebfffb28 	.word	0xebfffb28
    8c78:	e1a05000 	.word	0xe1a05000
    8c7c:	e1a06001 	.word	0xe1a06001
    8c80:	e51f3234 	.word	0xe51f3234
    8c84:	e5932000 	.word	0xe5932000
    8c88:	e51f3220 	.word	0xe51f3220
    8c8c:	e5933000 	.word	0xe5933000
    8c90:	e1a00002 	.word	0xe1a00002
    8c94:	e1a01003 	.word	0xe1a01003
    8c98:	eb0011dc 	.word	0xeb0011dc
    8c9c:	e1a03000 	.word	0xe1a03000
    8ca0:	e1a02003 	.word	0xe1a02003
    8ca4:	e51f3234 	.word	0xe51f3234
    8ca8:	e5933000 	.word	0xe5933000
    8cac:	e1a00002 	.word	0xe1a00002
    8cb0:	e1a01003 	.word	0xe1a01003
    8cb4:	eb00112d 	.word	0xeb00112d
    8cb8:	e1a03000 	.word	0xe1a03000
    8cbc:	e1a00003 	.word	0xe1a00003
    8cc0:	ebfffb15 	.word	0xebfffb15
    8cc4:	e1a03000 	.word	0xe1a03000
    8cc8:	e1a04001 	.word	0xe1a04001
    8ccc:	e1a00003 	.word	0xe1a00003
    8cd0:	e1a01004 	.word	0xe1a01004
    8cd4:	eb0012f5 	.word	0xeb0012f5
    8cd8:	e1a03000 	.word	0xe1a03000
    8cdc:	e1a04001 	.word	0xe1a04001
    8ce0:	e1a00005 	.word	0xe1a00005
    8ce4:	e1a01006 	.word	0xe1a01006
    8ce8:	e1a02003 	.word	0xe1a02003
    8cec:	e1a03004 	.word	0xe1a03004
    8cf0:	ebfffbdd 	.word	0xebfffbdd
    8cf4:	e1a03000 	.word	0xe1a03000
    8cf8:	e1a04001 	.word	0xe1a04001
    8cfc:	e1a00003 	.word	0xe1a00003
    8d00:	e1a01004 	.word	0xe1a01004
    8d04:	eb0010ee 	.word	0xeb0010ee
    8d08:	e1a02000 	.word	0xe1a02000
    8d0c:	e51f323c 	.word	0xe51f323c
    8d10:	e5832000 	.word	0xe5832000
    8d14:	e51f3244 	.word	0xe51f3244
    8d18:	e5932000 	.word	0xe5932000
    8d1c:	e51f324c 	.word	0xe51f324c
    8d20:	e5933000 	.word	0xe5933000
    8d24:	e1a00002 	.word	0xe1a00002
    8d28:	e1a01003 	.word	0xe1a01003
    8d2c:	eb0011b7 	.word	0xeb0011b7
    8d30:	e1a03000 	.word	0xe1a03000
    8d34:	e1a00003 	.word	0xe1a00003
    8d38:	ebfffaf7 	.word	0xebfffaf7
    8d3c:	e1a03000 	.word	0xe1a03000
    8d40:	e1a04001 	.word	0xe1a04001
    8d44:	e3a005ff 	.word	0xe3a005ff
    8d48:	e2800603 	.word	0xe2800603
    8d4c:	e3a01000 	.word	0xe3a01000
    8d50:	e1a02003 	.word	0xe1a02003
    8d54:	e1a03004 	.word	0xe1a03004
    8d58:	ebfffa15 	.word	0xebfffa15
    8d5c:	e1a03000 	.word	0xe1a03000
    8d60:	e1a04001 	.word	0xe1a04001
    8d64:	e1a00003 	.word	0xe1a00003
    8d68:	e1a01004 	.word	0xe1a01004
    8d6c:	eb0012cf 	.word	0xeb0012cf
    8d70:	e1a03000 	.word	0xe1a03000
    8d74:	e1a04001 	.word	0xe1a04001
    8d78:	e1a00003 	.word	0xe1a00003
    8d7c:	e1a01004 	.word	0xe1a01004
    8d80:	eb0010cf 	.word	0xeb0010cf
    8d84:	e1a02000 	.word	0xe1a02000
    8d88:	e51f32b0 	.word	0xe51f32b0
    8d8c:	e5832000 	.word	0xe5832000
    8d90:	e51b0028 	.word	0xe51b0028
    8d94:	e51b1028 	.word	0xe51b1028
    8d98:	eb00119c 	.word	0xeb00119c
    8d9c:	e1a03000 	.word	0xe1a03000
    8da0:	e1a00003 	.word	0xe1a00003
    8da4:	ebfffadc 	.word	0xebfffadc
    8da8:	e1a05000 	.word	0xe1a05000
    8dac:	e1a06001 	.word	0xe1a06001
    8db0:	e51f3360 	.word	0xe51f3360
    8db4:	e5933000 	.word	0xe5933000
    8db8:	e1a00003 	.word	0xe1a00003
    8dbc:	ebfffad6 	.word	0xebfffad6
    8dc0:	e1a03000 	.word	0xe1a03000
    8dc4:	e1a04001 	.word	0xe1a04001
    8dc8:	e1a00003 	.word	0xe1a00003
    8dcc:	e1a01004 	.word	0xe1a01004
    8dd0:	e1a02003 	.word	0xe1a02003
    8dd4:	e1a03004 	.word	0xe1a03004
    8dd8:	ebfff9f6 	.word	0xebfff9f6
    8ddc:	e1a03000 	.word	0xe1a03000
    8de0:	e1a04001 	.word	0xe1a04001
    8de4:	e1a00005 	.word	0xe1a00005
    8de8:	e1a01006 	.word	0xe1a01006
    8dec:	e1a02003 	.word	0xe1a02003
    8df0:	e1a03004 	.word	0xe1a03004
    8df4:	ebfff9ef 	.word	0xebfff9ef
    8df8:	e1a03000 	.word	0xe1a03000
    8dfc:	e1a04001 	.word	0xe1a04001
    8e00:	e1a05003 	.word	0xe1a05003
    8e04:	e1a06004 	.word	0xe1a06004
    8e08:	e51f33b4 	.word	0xe51f33b4
    8e0c:	e5934000 	.word	0xe5934000
    8e10:	e51f33b8 	.word	0xe51f33b8
    8e14:	e5932000 	.word	0xe5932000
    8e18:	e51f33a8 	.word	0xe51f33a8
    8e1c:	e5933000 	.word	0xe5933000
    8e20:	e1a00002 	.word	0xe1a00002
    8e24:	e1a01003 	.word	0xe1a01003
    8e28:	eb001178 	.word	0xeb001178
    8e2c:	e1a03000 	.word	0xe1a03000
    8e30:	e1a00004 	.word	0xe1a00004
    8e34:	e1a01003 	.word	0xe1a01003
    8e38:	eb0010cb 	.word	0xeb0010cb
    8e3c:	e1a03000 	.word	0xe1a03000
    8e40:	e1a04003 	.word	0xe1a04003
    8e44:	e51f33e8 	.word	0xe51f33e8
    8e48:	e5932000 	.word	0xe5932000
    8e4c:	e51f33f0 	.word	0xe51f33f0
    8e50:	e5933000 	.word	0xe5933000
    8e54:	e1a00002 	.word	0xe1a00002
    8e58:	e1a01003 	.word	0xe1a01003
    8e5c:	eb00116b 	.word	0xeb00116b
    8e60:	e1a03000 	.word	0xe1a03000
    8e64:	e1a00004 	.word	0xe1a00004
    8e68:	e1a01003 	.word	0xe1a01003
    8e6c:	eb0011cd 	.word	0xeb0011cd
    8e70:	e1a03000 	.word	0xe1a03000
    8e74:	e1a00003 	.word	0xe1a00003
    8e78:	ebfffaa7 	.word	0xebfffaa7
    8e7c:	e1a03000 	.word	0xe1a03000
    8e80:	e1a04001 	.word	0xe1a04001
    8e84:	e1a00005 	.word	0xe1a00005
    8e88:	e1a01006 	.word	0xe1a01006
    8e8c:	e1a02003 	.word	0xe1a02003
    8e90:	e1a03004 	.word	0xe1a03004
    8e94:	ebfff9c7 	.word	0xebfff9c7
    8e98:	e1a03000 	.word	0xe1a03000
    8e9c:	e1a04001 	.word	0xe1a04001
    8ea0:	e1a00003 	.word	0xe1a00003
    8ea4:	e1a01004 	.word	0xe1a01004
    8ea8:	eb001085 	.word	0xeb001085
    8eac:	e1a02000 	.word	0xe1a02000
    8eb0:	e51f3450 	.word	0xe51f3450
    8eb4:	e5832000 	.word	0xe5832000
    8eb8:	e51f3458 	.word	0xe51f3458
    8ebc:	e5933000 	.word	0xe5933000
    8ec0:	e1a00003 	.word	0xe1a00003
    8ec4:	ebfffa94 	.word	0xebfffa94
    8ec8:	e1a03000 	.word	0xe1a03000
    8ecc:	e1a04001 	.word	0xe1a04001
    8ed0:	e1a00003 	.word	0xe1a00003
    8ed4:	e1a01004 	.word	0xe1a01004
    8ed8:	eb001274 	.word	0xeb001274
    8edc:	e1a03000 	.word	0xe1a03000
    8ee0:	e1a04001 	.word	0xe1a04001
    8ee4:	e1a00003 	.word	0xe1a00003
    8ee8:	e1a01004 	.word	0xe1a01004
    8eec:	eb001074 	.word	0xeb001074
    8ef0:	e1a02000 	.word	0xe1a02000
    8ef4:	e51f3454 	.word	0xe51f3454
    8ef8:	e5832000 	.word	0xe5832000
    8efc:	e51f3498 	.word	0xe51f3498
    8f00:	e5932000 	.word	0xe5932000
    8f04:	e51f349c 	.word	0xe51f349c
    8f08:	e5933000 	.word	0xe5933000
    8f0c:	e1a00002 	.word	0xe1a00002
    8f10:	e1a01003 	.word	0xe1a01003
    8f14:	eb00113d 	.word	0xeb00113d
    8f18:	e1a03000 	.word	0xe1a03000
    8f1c:	e1a04003 	.word	0xe1a04003
    8f20:	e51f34b4 	.word	0xe51f34b4
    8f24:	e5932000 	.word	0xe5932000
    8f28:	e51f34b8 	.word	0xe51f34b8
    8f2c:	e5933000 	.word	0xe5933000
    8f30:	e1a00002 	.word	0xe1a00002
    8f34:	e1a01003 	.word	0xe1a01003
    8f38:	eb001134 	.word	0xeb001134
    8f3c:	e1a03000 	.word	0xe1a03000
    8f40:	e1a00004 	.word	0xe1a00004
    8f44:	e1a01003 	.word	0xe1a01003
    8f48:	eb001088 	.word	0xeb001088
    8f4c:	e1a03000 	.word	0xe1a03000
    8f50:	e1a00003 	.word	0xe1a00003
    8f54:	ebfffa70 	.word	0xebfffa70
    8f58:	e1a03000 	.word	0xe1a03000
    8f5c:	e1a04001 	.word	0xe1a04001
    8f60:	e1a00003 	.word	0xe1a00003
    8f64:	e1a01004 	.word	0xe1a01004
    8f68:	eb001250 	.word	0xeb001250
    8f6c:	e1a03000 	.word	0xe1a03000
    8f70:	e1a04001 	.word	0xe1a04001
    8f74:	e1a00003 	.word	0xe1a00003
    8f78:	e1a01004 	.word	0xe1a01004
    8f7c:	eb001050 	.word	0xeb001050
    8f80:	e1a02000 	.word	0xe1a02000
    8f84:	e51f3500 	.word	0xe51f3500
    8f88:	e5832000 	.word	0xe5832000
    8f8c:	e51f3508 	.word	0xe51f3508
    8f90:	e5933000 	.word	0xe5933000
    8f94:	e1a00003 	.word	0xe1a00003
    8f98:	e51b1028 	.word	0xe51b1028
    8f9c:	eb001073 	.word	0xeb001073
    8fa0:	e1a03000 	.word	0xe1a03000
    8fa4:	e1a02003 	.word	0xe1a02003
    8fa8:	e51f3508 	.word	0xe51f3508
    8fac:	e5933000 	.word	0xe5933000
    8fb0:	e1a00002 	.word	0xe1a00002
    8fb4:	e1a01003 	.word	0xe1a01003
    8fb8:	eb00117a 	.word	0xeb00117a
    8fbc:	e1a03000 	.word	0xe1a03000
    8fc0:	e1a02003 	.word	0xe1a02003
    8fc4:	e51f3550 	.word	0xe51f3550
    8fc8:	e5832000 	.word	0xe5832000
    8fcc:	e51f3554 	.word	0xe51f3554
    8fd0:	e5932000 	.word	0xe5932000
    8fd4:	e51f3558 	.word	0xe51f3558
    8fd8:	e5933000 	.word	0xe5933000
    8fdc:	e1a00002 	.word	0xe1a00002
    8fe0:	e1a01003 	.word	0xe1a01003
    8fe4:	eb001109 	.word	0xeb001109
    8fe8:	e1a03000 	.word	0xe1a03000
    8fec:	e1a02003 	.word	0xe1a02003
    8ff0:	e51f3570 	.word	0xe51f3570
    8ff4:	e5933000 	.word	0xe5933000
    8ff8:	e1a00002 	.word	0xe1a00002
    8ffc:	e1a01003 	.word	0xe1a01003
    9000:	eb001102 	.word	0xeb001102
    9004:	e1a03000 	.word	0xe1a03000
    9008:	e1a04003 	.word	0xe1a04003
    900c:	e51f356c 	.word	0xe51f356c
    9010:	e5932000 	.word	0xe5932000
    9014:	e51f3590 	.word	0xe51f3590
    9018:	e5933000 	.word	0xe5933000
    901c:	e1a00002 	.word	0xe1a00002
    9020:	e1a01003 	.word	0xe1a01003
    9024:	eb0010f9 	.word	0xeb0010f9
    9028:	e1a03000 	.word	0xe1a03000
    902c:	e1a00004 	.word	0xe1a00004
    9030:	e1a01003 	.word	0xe1a01003
    9034:	eb00115b 	.word	0xeb00115b
    9038:	e1a03000 	.word	0xe1a03000
    903c:	e1a02003 	.word	0xe1a02003
    9040:	e51f35b8 	.word	0xe51f35b8
    9044:	e5832000 	.word	0xe5832000
    9048:	e51f35bc 	.word	0xe51f35bc
    904c:	e5933000 	.word	0xe5933000
    9050:	e59b0004 	.word	0xe59b0004
    9054:	e1a01003 	.word	0xe1a01003
    9058:	eb0011ae 	.word	0xeb0011ae
    905c:	e1a03000 	.word	0xe1a03000
    9060:	e3530000 	.word	0xe3530000
    9064:	1a000000 	.word	0x1a000000
    9068:	ea00004e 	.word	0xea00004e
    906c:	e51f2570 	.word	0xe51f2570
    9070:	e3a03002 	.word	0xe3a03002
    9074:	e5823000 	.word	0xe5823000
    9078:	ea000044 	.word	0xea000044
    907c:	e51f3580 	.word	0xe51f3580
    9080:	e5934000 	.word	0xe5934000
    9084:	e51f35f4 	.word	0xe51f35f4
    9088:	e5931004 	.word	0xe5931004
    908c:	e51f3590 	.word	0xe51f3590
    9090:	e5933000 	.word	0xe5933000
    9094:	e2432001 	.word	0xe2432001
    9098:	e51f3604 	.word	0xe51f3604
    909c:	e7933102 	.word	0xe7933102
    90a0:	e1a00001 	.word	0xe1a00001
    90a4:	e1a01003 	.word	0xe1a01003
    90a8:	eb0010d8 	.word	0xeb0010d8
    90ac:	e1a03000 	.word	0xe1a03000
    90b0:	e1a05003 	.word	0xe1a05003
    90b4:	e51f3620 	.word	0xe51f3620
    90b8:	e5931004 	.word	0xe5931004
    90bc:	e51f35c0 	.word	0xe51f35c0
    90c0:	e5933000 	.word	0xe5933000
    90c4:	e2432001 	.word	0xe2432001
    90c8:	e51f3638 	.word	0xe51f3638
    90cc:	e7933102 	.word	0xe7933102
    90d0:	e1a00001 	.word	0xe1a00001
    90d4:	e1a01003 	.word	0xe1a01003
    90d8:	eb0010cc 	.word	0xeb0010cc
    90dc:	e1a03000 	.word	0xe1a03000
    90e0:	e1a00005 	.word	0xe1a00005
    90e4:	e1a01003 	.word	0xe1a01003
    90e8:	eb001020 	.word	0xeb001020
    90ec:	e1a03000 	.word	0xe1a03000
    90f0:	e1a02003 	.word	0xe1a02003
    90f4:	e51f3664 	.word	0xe51f3664
    90f8:	e7832104 	.word	0xe7832104
    90fc:	e51f3600 	.word	0xe51f3600
    9100:	e5934000 	.word	0xe5934000
    9104:	e51f3670 	.word	0xe51f3670
    9108:	e5931004 	.word	0xe5931004
    910c:	e51f3610 	.word	0xe51f3610
    9110:	e5933000 	.word	0xe5933000
    9114:	e2432001 	.word	0xe2432001
    9118:	e51f3684 	.word	0xe51f3684
    911c:	e7933102 	.word	0xe7933102
    9120:	e1a00001 	.word	0xe1a00001
    9124:	e1a01003 	.word	0xe1a01003
    9128:	eb0010b8 	.word	0xeb0010b8
    912c:	e1a03000 	.word	0xe1a03000
    9130:	e1a05003 	.word	0xe1a05003
    9134:	e51f36a4 	.word	0xe51f36a4
    9138:	e5931004 	.word	0xe5931004
    913c:	e51f3640 	.word	0xe51f3640
    9140:	e5933000 	.word	0xe5933000
    9144:	e2432001 	.word	0xe2432001
    9148:	e51f36b8 	.word	0xe51f36b8
    914c:	e7933102 	.word	0xe7933102
    9150:	e1a00001 	.word	0xe1a00001
    9154:	e1a01003 	.word	0xe1a01003
    9158:	eb0010ac 	.word	0xeb0010ac
    915c:	e1a03000 	.word	0xe1a03000
    9160:	e1a00005 	.word	0xe1a00005
    9164:	e1a01003 	.word	0xe1a01003
    9168:	eb000fff 	.word	0xeb000fff
    916c:	e1a03000 	.word	0xe1a03000
    9170:	e1a02003 	.word	0xe1a02003
    9174:	e51f36e0 	.word	0xe51f36e0
    9178:	e7832104 	.word	0xe7832104
    917c:	e51f3680 	.word	0xe51f3680
    9180:	e5933000 	.word	0xe5933000
    9184:	e2832001 	.word	0xe2832001
    9188:	e51f368c 	.word	0xe51f368c
    918c:	e5832000 	.word	0xe5832000
    9190:	e51f3694 	.word	0xe51f3694
    9194:	e5932000 	.word	0xe5932000
    9198:	e51f3700 	.word	0xe51f3700
    919c:	e5933000 	.word	0xe5933000
    91a0:	e1520003 	.word	0xe1520003
    91a4:	daffffb4 	.word	0xdaffffb4
    91a8:	e51f370c 	.word	0xe51f370c
    91ac:	e5932000 	.word	0xe5932000
    91b0:	e51f3710 	.word	0xe51f3710
    91b4:	e5933000 	.word	0xe5933000
    91b8:	e1a00002 	.word	0xe1a00002
    91bc:	e1a01003 	.word	0xe1a01003
    91c0:	eb0010f8 	.word	0xeb0010f8
    91c4:	e1a03000 	.word	0xe1a03000
    91c8:	e1a02003 	.word	0xe1a02003
    91cc:	e51f3718 	.word	0xe51f3718
    91d0:	e5832000 	.word	0xe5832000
    91d4:	e51f3720 	.word	0xe51f3720
    91d8:	e5932000 	.word	0xe5932000
    91dc:	e51f3728 	.word	0xe51f3728
    91e0:	e5933000 	.word	0xe5933000
    91e4:	e1a00002 	.word	0xe1a00002
    91e8:	e1a01003 	.word	0xe1a01003
    91ec:	eb001087 	.word	0xeb001087
    91f0:	e1a03000 	.word	0xe1a03000
    91f4:	e1a02003 	.word	0xe1a02003
    91f8:	e51f3740 	.word	0xe51f3740
    91fc:	e5832000 	.word	0xe5832000
    9200:	e51f275c 	.word	0xe51f275c
    9204:	e51f3738 	.word	0xe51f3738
    9208:	e5823000 	.word	0xe5823000
    920c:	e51f3768 	.word	0xe51f3768
    9210:	e5932000 	.word	0xe5932000
    9214:	e51f376c 	.word	0xe51f376c
    9218:	e5832000 	.word	0xe5832000
    921c:	e51f3774 	.word	0xe51f3774
    9220:	e5932000 	.word	0xe5932000
    9224:	e51f3778 	.word	0xe51f3778
    9228:	e5832000 	.word	0xe5832000
    922c:	e51f3780 	.word	0xe51f3780
    9230:	e5932000 	.word	0xe5932000
    9234:	e51f3784 	.word	0xe51f3784
    9238:	e5832000 	.word	0xe5832000
    923c:	e51f2750 	.word	0xe51f2750
    9240:	e3a03001 	.word	0xe3a03001
    9244:	e5823000 	.word	0xe5823000
    9248:	ea0003e7 	.word	0xea0003e7
    924c:	e51f3794 	.word	0xe51f3794
    9250:	e5932000 	.word	0xe5932000
    9254:	e51f37a0 	.word	0xe51f37a0
    9258:	e5933000 	.word	0xe5933000
    925c:	e1a00002 	.word	0xe1a00002
    9260:	e1a01003 	.word	0xe1a01003
    9264:	eb001069 	.word	0xeb001069
    9268:	e1a03000 	.word	0xe1a03000
    926c:	e1a02003 	.word	0xe1a02003
    9270:	e51f37b8 	.word	0xe51f37b8
    9274:	e5832000 	.word	0xe5832000
    9278:	e51f277c 	.word	0xe51f277c
    927c:	e3a03000 	.word	0xe3a03000
    9280:	e5823000 	.word	0xe5823000
    9284:	e51f27c8 	.word	0xe51f27c8
    9288:	e3a03001 	.word	0xe3a03001
    928c:	e5823000 	.word	0xe5823000
    9290:	e51f37a4 	.word	0xe51f37a4
    9294:	e5932000 	.word	0xe5932000
    9298:	e51f379c 	.word	0xe51f379c
    929c:	e5933000 	.word	0xe5933000
    92a0:	e0822003 	.word	0xe0822003
    92a4:	e51f37e8 	.word	0xe51f37e8
    92a8:	e5933000 	.word	0xe5933000
    92ac:	e0822003 	.word	0xe0822003
    92b0:	e51f37f4 	.word	0xe51f37f4
    92b4:	e5933000 	.word	0xe5933000
    92b8:	e1a00002 	.word	0xe1a00002
    92bc:	e1a01003 	.word	0xe1a01003
    92c0:	eb001171 	.word	0xeb001171
    92c4:	e1a03000 	.word	0xe1a03000
    92c8:	e1a02003 	.word	0xe1a02003
    92cc:	e51f380c 	.word	0xe51f380c
    92d0:	e5832000 	.word	0xe5832000
    92d4:	ea0003bb 	.word	0xea0003bb
    92d8:	e51f3814 	.word	0xe51f3814
    92dc:	e5933000 	.word	0xe5933000
    92e0:	e51b0028 	.word	0xe51b0028
    92e4:	e1a01003 	.word	0xe1a01003
    92e8:	eb00110a 	.word	0xeb00110a
    92ec:	e1a03000 	.word	0xe1a03000
    92f0:	e3530000 	.word	0xe3530000
    92f4:	1a000008 	.word	0x1a000008
    92f8:	e51f3830 	.word	0xe51f3830
    92fc:	e5933000 	.word	0xe5933000
    9300:	e51b002c 	.word	0xe51b002c
    9304:	e1a01003 	.word	0xe1a01003
    9308:	eb001102 	.word	0xeb001102
    930c:	e1a03000 	.word	0xe1a03000
    9310:	e3530000 	.word	0xe3530000
    9314:	1a000000 	.word	0x1a000000
    9318:	ea0001be 	.word	0xea0001be
    931c:	e51f3830 	.word	0xe51f3830
    9320:	e5932000 	.word	0xe5932000
    9324:	e51f3828 	.word	0xe51f3828
    9328:	e5933000 	.word	0xe5933000
    932c:	e1520003 	.word	0xe1520003
    9330:	1a000065 	.word	0x1a000065
    9334:	e51f3838 	.word	0xe51f3838
    9338:	e5932000 	.word	0xe5932000
    933c:	e1a03002 	.word	0xe1a03002
    9340:	e1a03083 	.word	0xe1a03083
    9344:	e0833002 	.word	0xe0833002
    9348:	e1a03103 	.word	0xe1a03103
    934c:	e0832002 	.word	0xe0832002
    9350:	e51f3864 	.word	0xe51f3864
    9354:	e5933000 	.word	0xe5933000
    9358:	e0823003 	.word	0xe0823003
    935c:	e1a02103 	.word	0xe1a02103
    9360:	e51f388c 	.word	0xe51f388c
    9364:	e5933000 	.word	0xe5933000
    9368:	e0824003 	.word	0xe0824003
    936c:	e51f3880 	.word	0xe51f3880
    9370:	e5933000 	.word	0xe5933000
    9374:	e1a03103 	.word	0xe1a03103
    9378:	e1a02003 	.word	0xe1a02003
    937c:	e51f38a8 	.word	0xe51f38a8
    9380:	e5933000 	.word	0xe5933000
    9384:	e0821003 	.word	0xe0821003
    9388:	e51f388c 	.word	0xe51f388c
    938c:	e5932000 	.word	0xe5932000
    9390:	e1a03002 	.word	0xe1a03002
    9394:	e1a03083 	.word	0xe1a03083
    9398:	e0833002 	.word	0xe0833002
    939c:	e1a03103 	.word	0xe1a03103
    93a0:	e0833002 	.word	0xe0833002
    93a4:	e1a03103 	.word	0xe1a03103
    93a8:	e0813003 	.word	0xe0813003
    93ac:	e2433038 	.word	0xe2433038
    93b0:	e5932000 	.word	0xe5932000
    93b4:	e51f38dc 	.word	0xe51f38dc
    93b8:	e5933000 	.word	0xe5933000
    93bc:	e1a00002 	.word	0xe1a00002
    93c0:	e1a01003 	.word	0xe1a01003
    93c4:	eb001011 	.word	0xeb001011
    93c8:	e1a03000 	.word	0xe1a03000
    93cc:	e5843000 	.word	0xe5843000
    93d0:	e51f38d4 	.word	0xe51f38d4
    93d4:	e5934000 	.word	0xe5934000
    93d8:	e51f38ec 	.word	0xe51f38ec
    93dc:	e5935000 	.word	0xe5935000
    93e0:	e51f38e4 	.word	0xe51f38e4
    93e4:	e5933000 	.word	0xe5933000
    93e8:	e2432001 	.word	0xe2432001
    93ec:	e51f3900 	.word	0xe51f3900
    93f0:	e5933000 	.word	0xe5933000
    93f4:	e2431001 	.word	0xe2431001
    93f8:	e51f0918 	.word	0xe51f0918
    93fc:	e1a03002 	.word	0xe1a03002
    9400:	e1a03083 	.word	0xe1a03083
    9404:	e0833002 	.word	0xe0833002
    9408:	e1a03103 	.word	0xe1a03103
    940c:	e0833002 	.word	0xe0833002
    9410:	e0833001 	.word	0xe0833001
    9414:	e7902103 	.word	0xe7902103
    9418:	e51f3940 	.word	0xe51f3940
    941c:	e5933000 	.word	0xe5933000
    9420:	e1a00002 	.word	0xe1a00002
    9424:	e1a01003 	.word	0xe1a01003
    9428:	eb000ff8 	.word	0xeb000ff8
    942c:	e1a03000 	.word	0xe1a03000
    9430:	e1a06003 	.word	0xe1a06003
    9434:	e51f3948 	.word	0xe51f3948
    9438:	e5933000 	.word	0xe5933000
    943c:	e1a03103 	.word	0xe1a03103
    9440:	e1a02003 	.word	0xe1a02003
    9444:	e51f3970 	.word	0xe51f3970
    9448:	e5933000 	.word	0xe5933000
    944c:	e0821003 	.word	0xe0821003
    9450:	e51f3954 	.word	0xe51f3954
    9454:	e5932000 	.word	0xe5932000
    9458:	e1a03002 	.word	0xe1a03002
    945c:	e1a03083 	.word	0xe1a03083
    9460:	e0833002 	.word	0xe0833002
    9464:	e1a03103 	.word	0xe1a03103
    9468:	e0833002 	.word	0xe0833002
    946c:	e1a03103 	.word	0xe1a03103
    9470:	e0813003 	.word	0xe0813003
    9474:	e2433038 	.word	0xe2433038
    9478:	e5932000 	.word	0xe5932000
    947c:	e51f39ac 	.word	0xe51f39ac
    9480:	e5933000 	.word	0xe5933000
    9484:	e1a00002 	.word	0xe1a00002
    9488:	e1a01003 	.word	0xe1a01003
    948c:	eb000fdf 	.word	0xeb000fdf
    9490:	e1a03000 	.word	0xe1a03000
    9494:	e1a00006 	.word	0xe1a00006
    9498:	e1a01003 	.word	0xe1a01003
    949c:	eb000f33 	.word	0xeb000f33
    94a0:	e1a03000 	.word	0xe1a03000
    94a4:	e1a02003 	.word	0xe1a02003
    94a8:	e51f19c8 	.word	0xe51f19c8
    94ac:	e1a03004 	.word	0xe1a03004
    94b0:	e1a03083 	.word	0xe1a03083
    94b4:	e0833004 	.word	0xe0833004
    94b8:	e1a03103 	.word	0xe1a03103
    94bc:	e0833004 	.word	0xe0833004
    94c0:	e0833005 	.word	0xe0833005
    94c4:	e7812103 	.word	0xe7812103
    94c8:	ea000152 	.word	0xea000152
    94cc:	e51f39e0 	.word	0xe51f39e0
    94d0:	e5933000 	.word	0xe5933000
    94d4:	e3530001 	.word	0xe3530001
    94d8:	1a000068 	.word	0x1a000068
    94dc:	e51f39e0 	.word	0xe51f39e0
    94e0:	e5933000 	.word	0xe5933000
    94e4:	e3530000 	.word	0xe3530000
    94e8:	1a000064 	.word	0x1a000064
    94ec:	e51f39f0 	.word	0xe51f39f0
    94f0:	e5932000 	.word	0xe5932000
    94f4:	e1a03002 	.word	0xe1a03002
    94f8:	e1a03083 	.word	0xe1a03083
    94fc:	e0833002 	.word	0xe0833002
    9500:	e1a03103 	.word	0xe1a03103
    9504:	e0832002 	.word	0xe0832002
    9508:	e51f3a1c 	.word	0xe51f3a1c
    950c:	e5933000 	.word	0xe5933000
    9510:	e0823003 	.word	0xe0823003
    9514:	e1a02103 	.word	0xe1a02103
    9518:	e51f3a44 	.word	0xe51f3a44
    951c:	e5933000 	.word	0xe5933000
    9520:	e0824003 	.word	0xe0824003
    9524:	e51f3a38 	.word	0xe51f3a38
    9528:	e5933000 	.word	0xe5933000
    952c:	e1a03103 	.word	0xe1a03103
    9530:	e1a02003 	.word	0xe1a02003
    9534:	e51f3a60 	.word	0xe51f3a60
    9538:	e5933000 	.word	0xe5933000
    953c:	e0821003 	.word	0xe0821003
    9540:	e51f3a44 	.word	0xe51f3a44
    9544:	e5932000 	.word	0xe5932000
    9548:	e1a03002 	.word	0xe1a03002
    954c:	e1a03083 	.word	0xe1a03083
    9550:	e0833002 	.word	0xe0833002
    9554:	e1a03103 	.word	0xe1a03103
    9558:	e0833002 	.word	0xe0833002
    955c:	e1a03103 	.word	0xe1a03103
    9560:	e0813003 	.word	0xe0813003
    9564:	e2433004 	.word	0xe2433004
    9568:	e5932000 	.word	0xe5932000
    956c:	e51f3a9c 	.word	0xe51f3a9c
    9570:	e5933000 	.word	0xe5933000
    9574:	e1a00002 	.word	0xe1a00002
    9578:	e1a01003 	.word	0xe1a01003
    957c:	eb000fa3 	.word	0xeb000fa3
    9580:	e1a03000 	.word	0xe1a03000
    9584:	e5843000 	.word	0xe5843000
    9588:	e51f3a8c 	.word	0xe51f3a8c
    958c:	e5934000 	.word	0xe5934000
    9590:	e51f3aa4 	.word	0xe51f3aa4
    9594:	e5935000 	.word	0xe5935000
    9598:	e51f3a9c 	.word	0xe51f3a9c
    959c:	e5932000 	.word	0xe5932000
    95a0:	e51f3ab4 	.word	0xe51f3ab4
    95a4:	e5933000 	.word	0xe5933000
    95a8:	e2431001 	.word	0xe2431001
    95ac:	e51f0acc 	.word	0xe51f0acc
    95b0:	e1a03002 	.word	0xe1a03002
    95b4:	e1a03083 	.word	0xe1a03083
    95b8:	e0833002 	.word	0xe0833002
    95bc:	e1a03103 	.word	0xe1a03103
    95c0:	e0833002 	.word	0xe0833002
    95c4:	e0833001 	.word	0xe0833001
    95c8:	e7902103 	.word	0xe7902103
    95cc:	e51f3afc 	.word	0xe51f3afc
    95d0:	e5933000 	.word	0xe5933000
    95d4:	e1a00002 	.word	0xe1a00002
    95d8:	e1a01003 	.word	0xe1a01003
    95dc:	eb000f8b 	.word	0xeb000f8b
    95e0:	e1a03000 	.word	0xe1a03000
    95e4:	e1a06003 	.word	0xe1a06003
    95e8:	e51f3afc 	.word	0xe51f3afc
    95ec:	e5933000 	.word	0xe5933000
    95f0:	e1a03103 	.word	0xe1a03103
    95f4:	e1a02003 	.word	0xe1a02003
    95f8:	e51f3b24 	.word	0xe51f3b24
    95fc:	e5933000 	.word	0xe5933000
    9600:	e0821003 	.word	0xe0821003
    9604:	e51f3b08 	.word	0xe51f3b08
    9608:	e5932000 	.word	0xe5932000
    960c:	e1a03002 	.word	0xe1a03002
    9610:	e1a03083 	.word	0xe1a03083
    9614:	e0833002 	.word	0xe0833002
    9618:	e1a03103 	.word	0xe1a03103
    961c:	e0833002 	.word	0xe0833002
    9620:	e1a03103 	.word	0xe1a03103
    9624:	e0813003 	.word	0xe0813003
    9628:	e2433004 	.word	0xe2433004
    962c:	e5932000 	.word	0xe5932000
    9630:	e51f3b58 	.word	0xe51f3b58
    9634:	e5933000 	.word	0xe5933000
    9638:	e1a00002 	.word	0xe1a00002
    963c:	e1a01003 	.word	0xe1a01003
    9640:	eb000f72 	.word	0xeb000f72
    9644:	e1a03000 	.word	0xe1a03000
    9648:	e1a00006 	.word	0xe1a00006
    964c:	e1a01003 	.word	0xe1a01003
    9650:	eb000ec5 	.word	0xeb000ec5
    9654:	e1a03000 	.word	0xe1a03000
    9658:	e1a02003 	.word	0xe1a02003
    965c:	e51f1b7c 	.word	0xe51f1b7c
    9660:	e1a03004 	.word	0xe1a03004
    9664:	e1a03083 	.word	0xe1a03083
    9668:	e0833004 	.word	0xe0833004
    966c:	e1a03103 	.word	0xe1a03103
    9670:	e0833004 	.word	0xe0833004
    9674:	e0833005 	.word	0xe0833005
    9678:	e7812103 	.word	0xe7812103
    967c:	ea0000e5 	.word	0xea0000e5
    9680:	e51f3b94 	.word	0xe51f3b94
    9684:	e5933000 	.word	0xe5933000
    9688:	e3530001 	.word	0xe3530001
    968c:	da0000e1 	.word	0xda0000e1
    9690:	e51f3ba4 	.word	0xe51f3ba4
    9694:	e5932000 	.word	0xe5932000
    9698:	e51f3b9c 	.word	0xe51f3b9c
    969c:	e5933000 	.word	0xe5933000
    96a0:	e1520003 	.word	0xe1520003
    96a4:	0a0000db 	.word	0x0a0000db
    96a8:	e51f3bbc 	.word	0xe51f3bbc
    96ac:	e5933000 	.word	0xe5933000
    96b0:	e2432002 	.word	0xe2432002
    96b4:	e51f3bb8 	.word	0xe51f3bb8
    96b8:	e5933000 	.word	0xe5933000
    96bc:	e1520003 	.word	0xe1520003
    96c0:	aa000012 	.word	0xaa000012
    96c4:	e51f3bd8 	.word	0xe51f3bd8
    96c8:	e5933000 	.word	0xe5933000
    96cc:	e1a03103 	.word	0xe1a03103
    96d0:	e1a02003 	.word	0xe1a02003
    96d4:	e51f3c00 	.word	0xe51f3c00
    96d8:	e5933000 	.word	0xe5933000
    96dc:	e0821003 	.word	0xe0821003
    96e0:	e51f3be4 	.word	0xe51f3be4
    96e4:	e5932000 	.word	0xe5932000
    96e8:	e1a03002 	.word	0xe1a03002
    96ec:	e1a03083 	.word	0xe1a03083
    96f0:	e0833002 	.word	0xe0833002
    96f4:	e1a03103 	.word	0xe1a03103
    96f8:	e0833002 	.word	0xe0833002
    96fc:	e1a03103 	.word	0xe1a03103
    9700:	e0813003 	.word	0xe0813003
    9704:	e2432008 	.word	0xe2432008
    9708:	e51f3c3c 	.word	0xe51f3c3c
    970c:	e5823000 	.word	0xe5823000
    9710:	e51f3c24 	.word	0xe51f3c24
    9714:	e5933000 	.word	0xe5933000
    9718:	e2432002 	.word	0xe2432002
    971c:	e51f3c20 	.word	0xe51f3c20
    9720:	e5933000 	.word	0xe5933000
    9724:	e1520003 	.word	0xe1520003
    9728:	aa00000d 	.word	0xaa00000d
    972c:	e51f3c30 	.word	0xe51f3c30
    9730:	e5932000 	.word	0xe5932000
    9734:	e51f3c48 	.word	0xe51f3c48
    9738:	e5933000 	.word	0xe5933000
    973c:	e2431002 	.word	0xe2431002
    9740:	e51f0c60 	.word	0xe51f0c60
    9744:	e1a03002 	.word	0xe1a03002
    9748:	e1a03083 	.word	0xe1a03083
    974c:	e0833002 	.word	0xe0833002
    9750:	e1a03103 	.word	0xe1a03103
    9754:	e0833002 	.word	0xe0833002
    9758:	e0832001 	.word	0xe0832001
    975c:	e51f3c90 	.word	0xe51f3c90
    9760:	e7803102 	.word	0xe7803102
    9764:	e51f3c68 	.word	0xe51f3c68
    9768:	e5932000 	.word	0xe5932000
    976c:	e1a03002 	.word	0xe1a03002
    9770:	e1a03083 	.word	0xe1a03083
    9774:	e0833002 	.word	0xe0833002
    9778:	e1a03103 	.word	0xe1a03103
    977c:	e0832002 	.word	0xe0832002
    9780:	e51f3c94 	.word	0xe51f3c94
    9784:	e5933000 	.word	0xe5933000
    9788:	e0823003 	.word	0xe0823003
    978c:	e1a02103 	.word	0xe1a02103
    9790:	e51f3cbc 	.word	0xe51f3cbc
    9794:	e5933000 	.word	0xe5933000
    9798:	e0824003 	.word	0xe0824003
    979c:	e51f3cb0 	.word	0xe51f3cb0
    97a0:	e5933000 	.word	0xe5933000
    97a4:	e1a03103 	.word	0xe1a03103
    97a8:	e1a02003 	.word	0xe1a02003
    97ac:	e51f3cd8 	.word	0xe51f3cd8
    97b0:	e5933000 	.word	0xe5933000
    97b4:	e0821003 	.word	0xe0821003
    97b8:	e51f3cbc 	.word	0xe51f3cbc
    97bc:	e5932000 	.word	0xe5932000
    97c0:	e1a03002 	.word	0xe1a03002
    97c4:	e1a03083 	.word	0xe1a03083
    97c8:	e0833002 	.word	0xe0833002
    97cc:	e1a03103 	.word	0xe1a03103
    97d0:	e0833002 	.word	0xe0833002
    97d4:	e1a03103 	.word	0xe1a03103
    97d8:	e0813003 	.word	0xe0813003
    97dc:	e2433004 	.word	0xe2433004
    97e0:	e5932000 	.word	0xe5932000
    97e4:	e51f3d14 	.word	0xe51f3d14
    97e8:	e5933000 	.word	0xe5933000
    97ec:	e1a00002 	.word	0xe1a00002
    97f0:	e1a01003 	.word	0xe1a01003
    97f4:	eb000f05 	.word	0xeb000f05
    97f8:	e1a03000 	.word	0xe1a03000
    97fc:	e1a05003 	.word	0xe1a05003
    9800:	e51f3d04 	.word	0xe51f3d04
    9804:	e5932000 	.word	0xe5932000
    9808:	e51f3d1c 	.word	0xe51f3d1c
    980c:	e5931000 	.word	0xe5931000
    9810:	e51f0d34 	.word	0xe51f0d34
    9814:	e1a03002 	.word	0xe1a03002
    9818:	e1a03083 	.word	0xe1a03083
    981c:	e0833002 	.word	0xe0833002
    9820:	e1a03103 	.word	0xe1a03103
    9824:	e0833002 	.word	0xe0833002
    9828:	e0833001 	.word	0xe0833001
    982c:	e7901103 	.word	0xe7901103
    9830:	e51f3d44 	.word	0xe51f3d44
    9834:	e5933000 	.word	0xe5933000
    9838:	e1a03103 	.word	0xe1a03103
    983c:	e1a02003 	.word	0xe1a02003
    9840:	e51f3d6c 	.word	0xe51f3d6c
    9844:	e5933000 	.word	0xe5933000
    9848:	e0820003 	.word	0xe0820003
    984c:	e51f3d50 	.word	0xe51f3d50
    9850:	e5932000 	.word	0xe5932000
    9854:	e1a03002 	.word	0xe1a03002
    9858:	e1a03083 	.word	0xe1a03083
    985c:	e0833002 	.word	0xe0833002
    9860:	e1a03103 	.word	0xe1a03103
    9864:	e0833002 	.word	0xe0833002
    9868:	e1a03103 	.word	0xe1a03103
    986c:	e0803003 	.word	0xe0803003
    9870:	e2433008 	.word	0xe2433008
    9874:	e5933000 	.word	0xe5933000
    9878:	e1a00001 	.word	0xe1a00001
    987c:	e1a01003 	.word	0xe1a01003
    9880:	eb000ee2 	.word	0xeb000ee2
    9884:	e1a03000 	.word	0xe1a03000
    9888:	e1a00005 	.word	0xe1a00005
    988c:	e1a01003 	.word	0xe1a01003
    9890:	eb000e35 	.word	0xeb000e35
    9894:	e1a03000 	.word	0xe1a03000
    9898:	e5843000 	.word	0xe5843000
    989c:	e51f3da0 	.word	0xe51f3da0
    98a0:	e5934000 	.word	0xe5934000
    98a4:	e51f3db8 	.word	0xe51f3db8
    98a8:	e5935000 	.word	0xe5935000
    98ac:	e51f3db0 	.word	0xe51f3db0
    98b0:	e5932000 	.word	0xe5932000
    98b4:	e51f3dc8 	.word	0xe51f3dc8
    98b8:	e5933000 	.word	0xe5933000
    98bc:	e2431001 	.word	0xe2431001
    98c0:	e51f0de0 	.word	0xe51f0de0
    98c4:	e1a03002 	.word	0xe1a03002
    98c8:	e1a03083 	.word	0xe1a03083
    98cc:	e0833002 	.word	0xe0833002
    98d0:	e1a03103 	.word	0xe1a03103
    98d4:	e0833002 	.word	0xe0833002
    98d8:	e0833001 	.word	0xe0833001
    98dc:	e7902103 	.word	0xe7902103
    98e0:	e51f3e10 	.word	0xe51f3e10
    98e4:	e5933000 	.word	0xe5933000
    98e8:	e1a00002 	.word	0xe1a00002
    98ec:	e1a01003 	.word	0xe1a01003
    98f0:	eb000ec6 	.word	0xeb000ec6
    98f4:	e1a03000 	.word	0xe1a03000
    98f8:	e1a06003 	.word	0xe1a06003
    98fc:	e51f3e10 	.word	0xe51f3e10
    9900:	e5933000 	.word	0xe5933000
    9904:	e1a03103 	.word	0xe1a03103
    9908:	e1a02003 	.word	0xe1a02003
    990c:	e51f3e38 	.word	0xe51f3e38
    9910:	e5933000 	.word	0xe5933000
    9914:	e0821003 	.word	0xe0821003
    9918:	e51f3e1c 	.word	0xe51f3e1c
    991c:	e5932000 	.word	0xe5932000
    9920:	e1a03002 	.word	0xe1a03002
    9924:	e1a03083 	.word	0xe1a03083
    9928:	e0833002 	.word	0xe0833002
    992c:	e1a03103 	.word	0xe1a03103
    9930:	e0833002 	.word	0xe0833002
    9934:	e1a03103 	.word	0xe1a03103
    9938:	e0813003 	.word	0xe0813003
    993c:	e2433004 	.word	0xe2433004
    9940:	e5932000 	.word	0xe5932000
    9944:	e51f3e6c 	.word	0xe51f3e6c
    9948:	e5933000 	.word	0xe5933000
    994c:	e1a00002 	.word	0xe1a00002
    9950:	e1a01003 	.word	0xe1a01003
    9954:	eb000ead 	.word	0xeb000ead
    9958:	e1a03000 	.word	0xe1a03000
    995c:	e1a00006 	.word	0xe1a00006
    9960:	e1a01003 	.word	0xe1a01003
    9964:	eb000e00 	.word	0xeb000e00
    9968:	e1a03000 	.word	0xe1a03000
    996c:	e1a06003 	.word	0xe1a06003
    9970:	e51f3e74 	.word	0xe51f3e74
    9974:	e5932000 	.word	0xe5932000
    9978:	e51f3e8c 	.word	0xe51f3e8c
    997c:	e5931000 	.word	0xe5931000
    9980:	e51f0ea4 	.word	0xe51f0ea4
    9984:	e1a03002 	.word	0xe1a03002
    9988:	e1a03083 	.word	0xe1a03083
    998c:	e0833002 	.word	0xe0833002
    9990:	e1a03103 	.word	0xe1a03103
    9994:	e0833002 	.word	0xe0833002
    9998:	e0833001 	.word	0xe0833001
    999c:	e790c103 	.word	0xe790c103
    99a0:	e51f3ea4 	.word	0xe51f3ea4
    99a4:	e5932000 	.word	0xe5932000
    99a8:	e51f3ebc 	.word	0xe51f3ebc
    99ac:	e5933000 	.word	0xe5933000
    99b0:	e2431002 	.word	0xe2431002
    99b4:	e51f0ed4 	.word	0xe51f0ed4
    99b8:	e1a03002 	.word	0xe1a03002
    99bc:	e1a03083 	.word	0xe1a03083
    99c0:	e0833002 	.word	0xe0833002
    99c4:	e1a03103 	.word	0xe1a03103
    99c8:	e0833002 	.word	0xe0833002
    99cc:	e0833001 	.word	0xe0833001
    99d0:	e7903103 	.word	0xe7903103
    99d4:	e1a0000c 	.word	0xe1a0000c
    99d8:	e1a01003 	.word	0xe1a01003
    99dc:	eb000e8b 	.word	0xeb000e8b
    99e0:	e1a03000 	.word	0xe1a03000
    99e4:	e1a00006 	.word	0xe1a00006
    99e8:	e1a01003 	.word	0xe1a01003
    99ec:	eb000dde 	.word	0xeb000dde
    99f0:	e1a03000 	.word	0xe1a03000
    99f4:	e1a02003 	.word	0xe1a02003
    99f8:	e51f1f18 	.word	0xe51f1f18
    99fc:	e1a03004 	.word	0xe1a03004
    9a00:	e1a03083 	.word	0xe1a03083
    9a04:	e0833004 	.word	0xe0833004
    9a08:	e1a03103 	.word	0xe1a03103
    9a0c:	e0833004 	.word	0xe0833004
    9a10:	e0833005 	.word	0xe0833005
    9a14:	e7812103 	.word	0xe7812103
    9a18:	e51f3f34 	.word	0xe51f3f34
    9a1c:	e5933000 	.word	0xe5933000
    9a20:	e59b0008 	.word	0xe59b0008
    9a24:	e1a01003 	.word	0xe1a01003
    9a28:	eb000f3a 	.word	0xeb000f3a
    9a2c:	e1a03000 	.word	0xe1a03000
    9a30:	e3530000 	.word	0xe3530000
    9a34:	1a000000 	.word	0x1a000000
    9a38:	ea000064 	.word	0xea000064
    9a3c:	e51f3f40 	.word	0xe51f3f40
    9a40:	e5934000 	.word	0xe5934000
    9a44:	e51f3f58 	.word	0xe51f3f58
    9a48:	e5935000 	.word	0xe5935000
    9a4c:	e51f3f50 	.word	0xe51f3f50
    9a50:	e5932000 	.word	0xe5932000
    9a54:	e1a03002 	.word	0xe1a03002
    9a58:	e1a03083 	.word	0xe1a03083
    9a5c:	e0833002 	.word	0xe0833002
    9a60:	e1a03103 	.word	0xe1a03103
    9a64:	e0832002 	.word	0xe0832002
    9a68:	e51f3f7c 	.word	0xe51f3f7c
    9a6c:	e5933000 	.word	0xe5933000
    9a70:	e0822003 	.word	0xe0822003
    9a74:	e51f3f8c 	.word	0xe51f3f8c
    9a78:	e7936102 	.word	0xe7936102
    9a7c:	e51f3f80 	.word	0xe51f3f80
    9a80:	e5932000 	.word	0xe5932000
    9a84:	e1a03002 	.word	0xe1a03002
    9a88:	e1a03083 	.word	0xe1a03083
    9a8c:	e0833002 	.word	0xe0833002
    9a90:	e1a03103 	.word	0xe1a03103
    9a94:	e0832002 	.word	0xe0832002
    9a98:	e51f3fac 	.word	0xe51f3fac
    9a9c:	e5933000 	.word	0xe5933000
    9aa0:	e0822003 	.word	0xe0822003
    9aa4:	e51f3fb4 	.word	0xe51f3fb4
    9aa8:	e7932102 	.word	0xe7932102
    9aac:	e51f3fb8 	.word	0xe51f3fb8
    9ab0:	e5933000 	.word	0xe5933000
    9ab4:	e1a00002 	.word	0xe1a00002
    9ab8:	e1a01003 	.word	0xe1a01003
    9abc:	eb000e53 	.word	0xeb000e53
    9ac0:	e1a03000 	.word	0xe1a03000
    9ac4:	e1a00006 	.word	0xe1a00006
    9ac8:	e1a01003 	.word	0xe1a01003
    9acc:	eb000da7 	.word	0xeb000da7
    9ad0:	e1a03000 	.word	0xe1a03000
    9ad4:	e1a02003 	.word	0xe1a02003
    9ad8:	e51f1fe0 	.word	0xe51f1fe0
    9adc:	e1a03004 	.word	0xe1a03004
    9ae0:	e1a03083 	.word	0xe1a03083
    9ae4:	e0833004 	.word	0xe0833004
    9ae8:	e1a03103 	.word	0xe1a03103
    9aec:	e0833004 	.word	0xe0833004
    9af0:	e0833005 	.word	0xe0833005
    9af4:	e7812103 	.word	0xe7812103
    9af8:	e51f3ffc 	.word	0xe51f3ffc
    9afc:	e5933000 	.word	0xe5933000
    9b00:	e3530000 	.word	0xe3530000
    9b04:	0a000031 	.word	0x0a000031
    9b08:	e59f3cf8 	.word	0xe59f3cf8
    9b0c:	e5934000 	.word	0xe5934000
    9b10:	e59f3cf4 	.word	0xe59f3cf4
    9b14:	e5933000 	.word	0xe5933000
    9b18:	e2435001 	.word	0xe2435001
    9b1c:	e59f3ce4 	.word	0xe59f3ce4
    9b20:	e5932000 	.word	0xe5932000
    9b24:	e1a03002 	.word	0xe1a03002
    9b28:	e1a03083 	.word	0xe1a03083
    9b2c:	e0833002 	.word	0xe0833002
    9b30:	e1a03103 	.word	0xe1a03103
    9b34:	e0832002 	.word	0xe0832002
    9b38:	e59f3ccc 	.word	0xe59f3ccc
    9b3c:	e5933000 	.word	0xe5933000
    9b40:	e0823003 	.word	0xe0823003
    9b44:	e2432001 	.word	0xe2432001
    9b48:	e59f3cc0 	.word	0xe59f3cc0
    9b4c:	e7936102 	.word	0xe7936102
    9b50:	e59f3cb0 	.word	0xe59f3cb0
    9b54:	e5932000 	.word	0xe5932000
    9b58:	e1a03002 	.word	0xe1a03002
    9b5c:	e1a03083 	.word	0xe1a03083
    9b60:	e0833002 	.word	0xe0833002
    9b64:	e1a03103 	.word	0xe1a03103
    9b68:	e0832002 	.word	0xe0832002
    9b6c:	e59f3c98 	.word	0xe59f3c98
    9b70:	e5933000 	.word	0xe5933000
    9b74:	e0823003 	.word	0xe0823003
    9b78:	e2432001 	.word	0xe2432001
    9b7c:	e59f3c90 	.word	0xe59f3c90
    9b80:	e7932102 	.word	0xe7932102
    9b84:	e59f3c8c 	.word	0xe59f3c8c
    9b88:	e5933000 	.word	0xe5933000
    9b8c:	e1a00002 	.word	0xe1a00002
    9b90:	e1a01003 	.word	0xe1a01003
    9b94:	eb000e1d 	.word	0xeb000e1d
    9b98:	e1a03000 	.word	0xe1a03000
    9b9c:	e1a00006 	.word	0xe1a00006
    9ba0:	e1a01003 	.word	0xe1a01003
    9ba4:	eb000d71 	.word	0xeb000d71
    9ba8:	e1a03000 	.word	0xe1a03000
    9bac:	e1a02003 	.word	0xe1a02003
    9bb0:	e59f1c64 	.word	0xe59f1c64
    9bb4:	e1a03004 	.word	0xe1a03004
    9bb8:	e1a03083 	.word	0xe1a03083
    9bbc:	e0833004 	.word	0xe0833004
    9bc0:	e1a03103 	.word	0xe1a03103
    9bc4:	e0833004 	.word	0xe0833004
    9bc8:	e0833005 	.word	0xe0833005
    9bcc:	e7812103 	.word	0xe7812103
    9bd0:	e59f3c34 	.word	0xe59f3c34
    9bd4:	e5932000 	.word	0xe5932000
    9bd8:	e1a03002 	.word	0xe1a03002
    9bdc:	e1a03083 	.word	0xe1a03083
    9be0:	e0833002 	.word	0xe0833002
    9be4:	e1a03103 	.word	0xe1a03103
    9be8:	e0832002 	.word	0xe0832002
    9bec:	e59f3c14 	.word	0xe59f3c14
    9bf0:	e5933000 	.word	0xe5933000
    9bf4:	e0823003 	.word	0xe0823003
    9bf8:	e1a02103 	.word	0xe1a02103
    9bfc:	e59f3c1c 	.word	0xe59f3c1c
    9c00:	e5933000 	.word	0xe5933000
    9c04:	e0823003 	.word	0xe0823003
    9c08:	e5932000 	.word	0xe5932000
    9c0c:	e59f3c10 	.word	0xe59f3c10
    9c10:	e5933000 	.word	0xe5933000
    9c14:	e1a00002 	.word	0xe1a00002
    9c18:	e1a01003 	.word	0xe1a01003
    9c1c:	eb000dfb 	.word	0xeb000dfb
    9c20:	e1a03000 	.word	0xe1a03000
    9c24:	e1a02003 	.word	0xe1a02003
    9c28:	e59f3bf8 	.word	0xe59f3bf8
    9c2c:	e5832000 	.word	0xe5832000
    9c30:	e59f3bd4 	.word	0xe59f3bd4
    9c34:	e5933000 	.word	0xe5933000
    9c38:	e3530000 	.word	0xe3530000
    9c3c:	1a00002e 	.word	0x1a00002e
    9c40:	e59f3bc4 	.word	0xe59f3bc4
    9c44:	e5932000 	.word	0xe5932000
    9c48:	e59f3bb8 	.word	0xe59f3bb8
    9c4c:	e5931000 	.word	0xe5931000
    9c50:	e59f0bc4 	.word	0xe59f0bc4
    9c54:	e1a03002 	.word	0xe1a03002
    9c58:	e1a03083 	.word	0xe1a03083
    9c5c:	e0833002 	.word	0xe0833002
    9c60:	e1a03103 	.word	0xe1a03103
    9c64:	e0833002 	.word	0xe0833002
    9c68:	e0833001 	.word	0xe0833001
    9c6c:	e7901103 	.word	0xe7901103
    9c70:	e59f3b94 	.word	0xe59f3b94
    9c74:	e5932000 	.word	0xe5932000
    9c78:	e59f3bac 	.word	0xe59f3bac
    9c7c:	e7933102 	.word	0xe7933102
    9c80:	e1a00001 	.word	0xe1a00001
    9c84:	e1a01003 	.word	0xe1a01003
    9c88:	eb000de0 	.word	0xeb000de0
    9c8c:	e1a03000 	.word	0xe1a03000
    9c90:	e1a02003 	.word	0xe1a02003
    9c94:	e59f3b94 	.word	0xe59f3b94
    9c98:	e5832000 	.word	0xe5832000
    9c9c:	e59f3b68 	.word	0xe59f3b68
    9ca0:	e5932000 	.word	0xe5932000
    9ca4:	e59f3b5c 	.word	0xe59f3b5c
    9ca8:	e5931000 	.word	0xe5931000
    9cac:	e59f0b68 	.word	0xe59f0b68
    9cb0:	e1a03002 	.word	0xe1a03002
    9cb4:	e1a03083 	.word	0xe1a03083
    9cb8:	e0833002 	.word	0xe0833002
    9cbc:	e1a03103 	.word	0xe1a03103
    9cc0:	e0833002 	.word	0xe0833002
    9cc4:	e0833001 	.word	0xe0833001
    9cc8:	e7901103 	.word	0xe7901103
    9ccc:	e59f3b38 	.word	0xe59f3b38
    9cd0:	e5932000 	.word	0xe5932000
    9cd4:	e59f3b58 	.word	0xe59f3b58
    9cd8:	e7933102 	.word	0xe7933102
    9cdc:	e1a00001 	.word	0xe1a00001
    9ce0:	e1a01003 	.word	0xe1a01003
    9ce4:	eb000dc9 	.word	0xeb000dc9
    9ce8:	e1a03000 	.word	0xe1a03000
    9cec:	e1a02003 	.word	0xe1a02003
    9cf0:	e59f3b40 	.word	0xe59f3b40
    9cf4:	e5832000 	.word	0xe5832000
    9cf8:	ea000061 	.word	0xea000061
    9cfc:	e59f3b08 	.word	0xe59f3b08
    9d00:	e5932000 	.word	0xe5932000
    9d04:	e59f3afc 	.word	0xe59f3afc
    9d08:	e5931000 	.word	0xe5931000
    9d0c:	e59f0b08 	.word	0xe59f0b08
    9d10:	e1a03002 	.word	0xe1a03002
    9d14:	e1a03083 	.word	0xe1a03083
    9d18:	e0833002 	.word	0xe0833002
    9d1c:	e1a03103 	.word	0xe1a03103
    9d20:	e0833002 	.word	0xe0833002
    9d24:	e0833001 	.word	0xe0833001
    9d28:	e7901103 	.word	0xe7901103
    9d2c:	e59f3ad8 	.word	0xe59f3ad8
    9d30:	e5932000 	.word	0xe5932000
    9d34:	e59f3af0 	.word	0xe59f3af0
    9d38:	e7933102 	.word	0xe7933102
    9d3c:	e1a00001 	.word	0xe1a00001
    9d40:	e1a01003 	.word	0xe1a01003
    9d44:	eb000db1 	.word	0xeb000db1
    9d48:	e1a03000 	.word	0xe1a03000
    9d4c:	e1a04003 	.word	0xe1a04003
    9d50:	e59f3ab0 	.word	0xe59f3ab0
    9d54:	e5932000 	.word	0xe5932000
    9d58:	e59f3aac 	.word	0xe59f3aac
    9d5c:	e5933000 	.word	0xe5933000
    9d60:	e2431001 	.word	0xe2431001
    9d64:	e59f0ab0 	.word	0xe59f0ab0
    9d68:	e1a03002 	.word	0xe1a03002
    9d6c:	e1a03083 	.word	0xe1a03083
    9d70:	e0833002 	.word	0xe0833002
    9d74:	e1a03103 	.word	0xe1a03103
    9d78:	e0833002 	.word	0xe0833002
    9d7c:	e0833001 	.word	0xe0833001
    9d80:	e7901103 	.word	0xe7901103
    9d84:	e59f3a80 	.word	0xe59f3a80
    9d88:	e5932000 	.word	0xe5932000
    9d8c:	e59f3aa0 	.word	0xe59f3aa0
    9d90:	e7933102 	.word	0xe7933102
    9d94:	e1a00001 	.word	0xe1a00001
    9d98:	e1a01003 	.word	0xe1a01003
    9d9c:	eb000d9b 	.word	0xeb000d9b
    9da0:	e1a03000 	.word	0xe1a03000
    9da4:	e1a00004 	.word	0xe1a00004
    9da8:	e1a01003 	.word	0xe1a01003
    9dac:	eb000cef 	.word	0xeb000cef
    9db0:	e1a03000 	.word	0xe1a03000
    9db4:	e1a02003 	.word	0xe1a02003
    9db8:	e59f3a70 	.word	0xe59f3a70
    9dbc:	e5832000 	.word	0xe5832000
    9dc0:	e59f3a44 	.word	0xe59f3a44
    9dc4:	e5932000 	.word	0xe5932000
    9dc8:	e59f3a38 	.word	0xe59f3a38
    9dcc:	e5931000 	.word	0xe5931000
    9dd0:	e59f0a44 	.word	0xe59f0a44
    9dd4:	e1a03002 	.word	0xe1a03002
    9dd8:	e1a03083 	.word	0xe1a03083
    9ddc:	e0833002 	.word	0xe0833002
    9de0:	e1a03103 	.word	0xe1a03103
    9de4:	e0833002 	.word	0xe0833002
    9de8:	e0833001 	.word	0xe0833001
    9dec:	e7901103 	.word	0xe7901103
    9df0:	e59f3a14 	.word	0xe59f3a14
    9df4:	e5932000 	.word	0xe5932000
    9df8:	e59f3a34 	.word	0xe59f3a34
    9dfc:	e7933102 	.word	0xe7933102
    9e00:	e1a00001 	.word	0xe1a00001
    9e04:	e1a01003 	.word	0xe1a01003
    9e08:	eb000d80 	.word	0xeb000d80
    9e0c:	e1a03000 	.word	0xe1a03000
    9e10:	e1a04003 	.word	0xe1a04003
    9e14:	e59f39ec 	.word	0xe59f39ec
    9e18:	e5932000 	.word	0xe5932000
    9e1c:	e59f39e8 	.word	0xe59f39e8
    9e20:	e5933000 	.word	0xe5933000
    9e24:	e2431001 	.word	0xe2431001
    9e28:	e59f09ec 	.word	0xe59f09ec
    9e2c:	e1a03002 	.word	0xe1a03002
    9e30:	e1a03083 	.word	0xe1a03083
    9e34:	e0833002 	.word	0xe0833002
    9e38:	e1a03103 	.word	0xe1a03103
    9e3c:	e0833002 	.word	0xe0833002
    9e40:	e0833001 	.word	0xe0833001
    9e44:	e7901103 	.word	0xe7901103
    9e48:	e59f39bc 	.word	0xe59f39bc
    9e4c:	e5932000 	.word	0xe5932000
    9e50:	e59f39d4 	.word	0xe59f39d4
    9e54:	e7933102 	.word	0xe7933102
    9e58:	e1a00001 	.word	0xe1a00001
    9e5c:	e1a01003 	.word	0xe1a01003
    9e60:	eb000d6a 	.word	0xeb000d6a
    9e64:	e1a03000 	.word	0xe1a03000
    9e68:	e1a00004 	.word	0xe1a00004
    9e6c:	e1a01003 	.word	0xe1a01003
    9e70:	eb000cbd 	.word	0xeb000cbd
    9e74:	e1a03000 	.word	0xe1a03000
    9e78:	e1a02003 	.word	0xe1a02003
    9e7c:	e59f39b4 	.word	0xe59f39b4
    9e80:	e5832000 	.word	0xe5832000
    9e84:	e59f39b0 	.word	0xe59f39b0
    9e88:	e5934000 	.word	0xe5934000
    9e8c:	e59f3990 	.word	0xe59f3990
    9e90:	e5932000 	.word	0xe5932000
    9e94:	e59f3994 	.word	0xe59f3994
    9e98:	e5933000 	.word	0xe5933000
    9e9c:	e1a00002 	.word	0xe1a00002
    9ea0:	e1a01003 	.word	0xe1a01003
    9ea4:	eb000d59 	.word	0xeb000d59
    9ea8:	e1a03000 	.word	0xe1a03000
    9eac:	e1a0c003 	.word	0xe1a0c003
    9eb0:	e59f3954 	.word	0xe59f3954
    9eb4:	e5932000 	.word	0xe5932000
    9eb8:	e59f3948 	.word	0xe59f3948
    9ebc:	e5931000 	.word	0xe5931000
    9ec0:	e59f0978 	.word	0xe59f0978
    9ec4:	e1a03002 	.word	0xe1a03002
    9ec8:	e1a03083 	.word	0xe1a03083
    9ecc:	e0833002 	.word	0xe0833002
    9ed0:	e1a03103 	.word	0xe1a03103
    9ed4:	e0833002 	.word	0xe0833002
    9ed8:	e0833001 	.word	0xe0833001
    9edc:	e7903103 	.word	0xe7903103
    9ee0:	e1a0000c 	.word	0xe1a0000c
    9ee4:	e1a01003 	.word	0xe1a01003
    9ee8:	eb000d48 	.word	0xeb000d48
    9eec:	e1a03000 	.word	0xe1a03000
    9ef0:	e1a00004 	.word	0xe1a00004
    9ef4:	e1a01003 	.word	0xe1a01003
    9ef8:	eb000c9b 	.word	0xeb000c9b
    9efc:	e1a03000 	.word	0xe1a03000
    9f00:	e1a02003 	.word	0xe1a02003
    9f04:	e59f3930 	.word	0xe59f3930
    9f08:	e5832000 	.word	0xe5832000
    9f0c:	e59f38f8 	.word	0xe59f38f8
    9f10:	e5932000 	.word	0xe5932000
    9f14:	e59f3928 	.word	0xe59f3928
    9f18:	e7932102 	.word	0xe7932102
    9f1c:	e59f3914 	.word	0xe59f3914
    9f20:	e5933000 	.word	0xe5933000
    9f24:	e1a00002 	.word	0xe1a00002
    9f28:	e1a01003 	.word	0xe1a01003
    9f2c:	eb000d37 	.word	0xeb000d37
    9f30:	e1a03000 	.word	0xe1a03000
    9f34:	e1a02003 	.word	0xe1a02003
    9f38:	e59f38e8 	.word	0xe59f38e8
    9f3c:	e5933000 	.word	0xe5933000
    9f40:	e1a00002 	.word	0xe1a00002
    9f44:	e1a01003 	.word	0xe1a01003
    9f48:	eb000d30 	.word	0xeb000d30
    9f4c:	e1a03000 	.word	0xe1a03000
    9f50:	e1a02003 	.word	0xe1a02003
    9f54:	e59f38ec 	.word	0xe59f38ec
    9f58:	e5933000 	.word	0xe5933000
    9f5c:	e1a00002 	.word	0xe1a00002
    9f60:	e1a01003 	.word	0xe1a01003
    9f64:	eb000c81 	.word	0xeb000c81
    9f68:	e1a03000 	.word	0xe1a03000
    9f6c:	e1a02003 	.word	0xe1a02003
    9f70:	e59f38d0 	.word	0xe59f38d0
    9f74:	e5832000 	.word	0xe5832000
    9f78:	e59f3888 	.word	0xe59f3888
    9f7c:	e5932000 	.word	0xe5932000
    9f80:	e59f38c4 	.word	0xe59f38c4
    9f84:	e7932102 	.word	0xe7932102
    9f88:	e59f38a0 	.word	0xe59f38a0
    9f8c:	e5933000 	.word	0xe5933000
    9f90:	e1a00002 	.word	0xe1a00002
    9f94:	e1a01003 	.word	0xe1a01003
    9f98:	eb000d1c 	.word	0xeb000d1c
    9f9c:	e1a03000 	.word	0xe1a03000
    9fa0:	e1a02003 	.word	0xe1a02003
    9fa4:	e59f387c 	.word	0xe59f387c
    9fa8:	e5933000 	.word	0xe5933000
    9fac:	e1a00002 	.word	0xe1a00002
    9fb0:	e1a01003 	.word	0xe1a01003
    9fb4:	eb000d15 	.word	0xeb000d15
    9fb8:	e1a03000 	.word	0xe1a03000
    9fbc:	e1a02003 	.word	0xe1a02003
    9fc0:	e59f3888 	.word	0xe59f3888
    9fc4:	e5933000 	.word	0xe5933000
    9fc8:	e1a00002 	.word	0xe1a00002
    9fcc:	e1a01003 	.word	0xe1a01003
    9fd0:	eb000c66 	.word	0xeb000c66
    9fd4:	e1a03000 	.word	0xe1a03000
    9fd8:	e1a02003 	.word	0xe1a02003
    9fdc:	e59f386c 	.word	0xe59f386c
    9fe0:	e5832000 	.word	0xe5832000
    9fe4:	e59f3868 	.word	0xe59f3868
    9fe8:	e5933000 	.word	0xe5933000
    9fec:	e1a00003 	.word	0xe1a00003
    9ff0:	e59f1860 	.word	0xe59f1860
    9ff4:	eb000dc7 	.word	0xeb000dc7
    9ff8:	e1a03000 	.word	0xe1a03000
    9ffc:	e3530000 	.word	0xe3530000
    a000:	0a000000 	.word	0x0a000000
    a004:	ea000063 	.word	0xea000063
    a008:	e59f37fc 	.word	0xe59f37fc
    a00c:	e5933000 	.word	0xe5933000
    a010:	e3530001 	.word	0xe3530001
    a014:	1a00005f 	.word	0x1a00005f
    a018:	e59f37e8 	.word	0xe59f37e8
    a01c:	e5933000 	.word	0xe5933000
    a020:	e3530001 	.word	0xe3530001
    a024:	1a000009 	.word	0x1a000009
    a028:	e59f37d8 	.word	0xe59f37d8
    a02c:	e5931000 	.word	0xe5931000
    a030:	e59f37d0 	.word	0xe59f37d0
    a034:	e5933000 	.word	0xe5933000
    a038:	e2432001 	.word	0xe2432001
    a03c:	e59f3818 	.word	0xe59f3818
    a040:	e7932102 	.word	0xe7932102
    a044:	e59f3810 	.word	0xe59f3810
    a048:	e7832101 	.word	0xe7832101
    a04c:	ea000029 	.word	0xea000029
    a050:	e59f37b0 	.word	0xe59f37b0
    a054:	e5934000 	.word	0xe5934000
    a058:	e59f37a8 	.word	0xe59f37a8
    a05c:	e5933000 	.word	0xe5933000
    a060:	e2432001 	.word	0xe2432001
    a064:	e59f37f0 	.word	0xe59f37f0
    a068:	e7932102 	.word	0xe7932102
    a06c:	e59f37ec 	.word	0xe59f37ec
    a070:	e5933000 	.word	0xe5933000
    a074:	e1a00002 	.word	0xe1a00002
    a078:	e1a01003 	.word	0xe1a01003
    a07c:	eb000ce3 	.word	0xeb000ce3
    a080:	e1a03000 	.word	0xe1a03000
    a084:	e1a05003 	.word	0xe1a05003
    a088:	e59f377c 	.word	0xe59f377c
    a08c:	e5932000 	.word	0xe5932000
    a090:	e59f3770 	.word	0xe59f3770
    a094:	e5931000 	.word	0xe5931000
    a098:	e59f07c4 	.word	0xe59f07c4
    a09c:	e1a03002 	.word	0xe1a03002
    a0a0:	e1a03083 	.word	0xe1a03083
    a0a4:	e0833002 	.word	0xe0833002
    a0a8:	e1a03103 	.word	0xe1a03103
    a0ac:	e0833002 	.word	0xe0833002
    a0b0:	e0833001 	.word	0xe0833001
    a0b4:	e7901103 	.word	0xe7901103
    a0b8:	e59f3748 	.word	0xe59f3748
    a0bc:	e5933000 	.word	0xe5933000
    a0c0:	e2432002 	.word	0xe2432002
    a0c4:	e59f3790 	.word	0xe59f3790
    a0c8:	e7933102 	.word	0xe7933102
    a0cc:	e1a00001 	.word	0xe1a00001
    a0d0:	e1a01003 	.word	0xe1a01003
    a0d4:	eb000ccd 	.word	0xeb000ccd
    a0d8:	e1a03000 	.word	0xe1a03000
    a0dc:	e1a00005 	.word	0xe1a00005
    a0e0:	e1a01003 	.word	0xe1a01003
    a0e4:	eb000c20 	.word	0xeb000c20
    a0e8:	e1a03000 	.word	0xe1a03000
    a0ec:	e1a02003 	.word	0xe1a02003
    a0f0:	e59f3764 	.word	0xe59f3764
    a0f4:	e7832104 	.word	0xe7832104
    a0f8:	e59f3708 	.word	0xe59f3708
    a0fc:	e5932000 	.word	0xe5932000
    a100:	e59f3754 	.word	0xe59f3754
    a104:	e7932102 	.word	0xe7932102
    a108:	e59f3714 	.word	0xe59f3714
    a10c:	e5933000 	.word	0xe5933000
    a110:	e1a00002 	.word	0xe1a00002
    a114:	e1a01003 	.word	0xe1a01003
    a118:	eb000cbc 	.word	0xeb000cbc
    a11c:	e1a03000 	.word	0xe1a03000
    a120:	e1a02003 	.word	0xe1a02003
    a124:	e59f373c 	.word	0xe59f373c
    a128:	e5832000 	.word	0xe5832000
    a12c:	e59f36d8 	.word	0xe59f36d8
    a130:	e5932000 	.word	0xe5932000
    a134:	e59f3708 	.word	0xe59f3708
    a138:	e7932102 	.word	0xe7932102
    a13c:	e59f36f4 	.word	0xe59f36f4
    a140:	e5933000 	.word	0xe5933000
    a144:	e1a00002 	.word	0xe1a00002
    a148:	e1a01003 	.word	0xe1a01003
    a14c:	eb000caf 	.word	0xeb000caf
    a150:	e1a03000 	.word	0xe1a03000
    a154:	e1a02003 	.word	0xe1a02003
    a158:	e59f3708 	.word	0xe59f3708
    a15c:	e5933000 	.word	0xe5933000
    a160:	e1a00002 	.word	0xe1a00002
    a164:	e1a01003 	.word	0xe1a01003
    a168:	eb000ca8 	.word	0xeb000ca8
    a16c:	e1a03000 	.word	0xe1a03000
    a170:	e1a02003 	.word	0xe1a02003
    a174:	e59f36f0 	.word	0xe59f36f0
    a178:	e5933000 	.word	0xe5933000
    a17c:	e1a00002 	.word	0xe1a00002
    a180:	e1a01003 	.word	0xe1a01003
    a184:	eb000bf9 	.word	0xeb000bf9
    a188:	e1a03000 	.word	0xe1a03000
    a18c:	e1a02003 	.word	0xe1a02003
    a190:	e59f36d4 	.word	0xe59f36d4
    a194:	e5832000 	.word	0xe5832000
    a198:	e59f36d0 	.word	0xe59f36d0
    a19c:	e5933000 	.word	0xe5933000
    a1a0:	e2432001 	.word	0xe2432001
    a1a4:	e59f36c4 	.word	0xe59f36c4
    a1a8:	e5832000 	.word	0xe5832000
    a1ac:	e59f3658 	.word	0xe59f3658
    a1b0:	e5932000 	.word	0xe5932000
    a1b4:	e59f36b8 	.word	0xe59f36b8
    a1b8:	e5933000 	.word	0xe5933000
    a1bc:	e0822003 	.word	0xe0822003
    a1c0:	e59f3644 	.word	0xe59f3644
    a1c4:	e5832000 	.word	0xe5832000
    a1c8:	e59f36a0 	.word	0xe59f36a0
    a1cc:	e5933000 	.word	0xe5933000
    a1d0:	e3530000 	.word	0xe3530000
    a1d4:	cafffc3f 	.word	0xcafffc3f
    a1d8:	e59f3628 	.word	0xe59f3628
    a1dc:	e5933000 	.word	0xe5933000
    a1e0:	e2832001 	.word	0xe2832001
    a1e4:	e59f361c 	.word	0xe59f361c
    a1e8:	e5832000 	.word	0xe5832000
    a1ec:	e59f3614 	.word	0xe59f3614
    a1f0:	e5932000 	.word	0xe5932000
    a1f4:	e59f367c 	.word	0xe59f367c
    a1f8:	e5933000 	.word	0xe5933000
    a1fc:	e1520003 	.word	0xe1520003
    a200:	dafffc11 	.word	0xdafffc11
    a204:	e59f3648 	.word	0xe59f3648
    a208:	e5933000 	.word	0xe5933000
    a20c:	e1a00003 	.word	0xe1a00003
    a210:	e59f1640 	.word	0xe59f1640
    a214:	eb000d3f 	.word	0xeb000d3f
    a218:	e1a03000 	.word	0xe1a03000
    a21c:	e3530000 	.word	0xe3530000
    a220:	0a000000 	.word	0x0a000000
    a224:	ea000004 	.word	0xea000004
    a228:	e59f363c 	.word	0xe59f363c
    a22c:	e5932000 	.word	0xe5932000
    a230:	e59f3610 	.word	0xe59f3610
    a234:	e5832000 	.word	0xe5832000
    a238:	ea00000a 	.word	0xea00000a
    a23c:	e59f3604 	.word	0xe59f3604
    a240:	e5932000 	.word	0xe5932000
    a244:	e59f3608 	.word	0xe59f3608
    a248:	e5933000 	.word	0xe5933000
    a24c:	e1a00002 	.word	0xe1a00002
    a250:	e1a01003 	.word	0xe1a01003
    a254:	eb000cd3 	.word	0xeb000cd3
    a258:	e1a03000 	.word	0xe1a03000
    a25c:	e1a02003 	.word	0xe1a02003
    a260:	e59f35e0 	.word	0xe59f35e0
    a264:	e5832000 	.word	0xe5832000
    a268:	e59f35cc 	.word	0xe59f35cc
    a26c:	e5933000 	.word	0xe5933000
    a270:	e2232102 	.word	0xe2232102
    a274:	e59f3600 	.word	0xe59f3600
    a278:	e5933000 	.word	0xe5933000
    a27c:	e1a00002 	.word	0xe1a00002
    a280:	e1a01003 	.word	0xe1a01003
    a284:	eb000c61 	.word	0xeb000c61
    a288:	e1a03000 	.word	0xe1a03000
    a28c:	e1a04003 	.word	0xe1a04003
    a290:	e59f35b8 	.word	0xe59f35b8
    a294:	e5932000 	.word	0xe5932000
    a298:	e59f35e0 	.word	0xe59f35e0
    a29c:	e5933000 	.word	0xe5933000
    a2a0:	e1a00002 	.word	0xe1a00002
    a2a4:	e1a01003 	.word	0xe1a01003
    a2a8:	eb000c58 	.word	0xeb000c58
    a2ac:	e1a03000 	.word	0xe1a03000
    a2b0:	e1a00004 	.word	0xe1a00004
    a2b4:	e1a01003 	.word	0xe1a01003
    a2b8:	eb000bab 	.word	0xeb000bab
    a2bc:	e1a03000 	.word	0xe1a03000
    a2c0:	e1a02003 	.word	0xe1a02003
    a2c4:	e59f35b8 	.word	0xe59f35b8
    a2c8:	e5832000 	.word	0xe5832000
    a2cc:	e59f3574 	.word	0xe59f3574
    a2d0:	e5932000 	.word	0xe5932000
    a2d4:	e59f35ac 	.word	0xe59f35ac
    a2d8:	e5832000 	.word	0xe5832000
    a2dc:	e59f3558 	.word	0xe59f3558
    a2e0:	e5932000 	.word	0xe5932000
    a2e4:	e59f3594 	.word	0xe59f3594
    a2e8:	e5933000 	.word	0xe5933000
    a2ec:	e1a00002 	.word	0xe1a00002
    a2f0:	e1a01003 	.word	0xe1a01003
    a2f4:	eb000c45 	.word	0xeb000c45
    a2f8:	e1a03000 	.word	0xe1a03000
    a2fc:	e1a04003 	.word	0xe1a04003
    a300:	e59f3548 	.word	0xe59f3548
    a304:	e5932000 	.word	0xe5932000
    a308:	e59f356c 	.word	0xe59f356c
    a30c:	e5933000 	.word	0xe5933000
    a310:	e1a00002 	.word	0xe1a00002
    a314:	e1a01003 	.word	0xe1a01003
    a318:	eb000c3c 	.word	0xeb000c3c
    a31c:	e1a03000 	.word	0xe1a03000
    a320:	e1a00004 	.word	0xe1a00004
    a324:	e1a01003 	.word	0xe1a01003
    a328:	eb000b8f 	.word	0xeb000b8f
    a32c:	e1a03000 	.word	0xe1a03000
    a330:	e1a02003 	.word	0xe1a02003
    a334:	e59f3550 	.word	0xe59f3550
    a338:	e5832000 	.word	0xe5832000
    a33c:	e59f3540 	.word	0xe59f3540
    a340:	e5932000 	.word	0xe5932000
    a344:	e59f3538 	.word	0xe59f3538
    a348:	e5933000 	.word	0xe5933000
    a34c:	e1a00002 	.word	0xe1a00002
    a350:	e1a01003 	.word	0xe1a01003
    a354:	eb000c2d 	.word	0xeb000c2d
    a358:	e1a03000 	.word	0xe1a03000
    a35c:	e1a04003 	.word	0xe1a04003
    a360:	e59f3520 	.word	0xe59f3520
    a364:	e5932000 	.word	0xe5932000
    a368:	e59f3518 	.word	0xe59f3518
    a36c:	e5933000 	.word	0xe5933000
    a370:	e1a00002 	.word	0xe1a00002
    a374:	e1a01003 	.word	0xe1a01003
    a378:	eb000c24 	.word	0xeb000c24
    a37c:	e1a03000 	.word	0xe1a03000
    a380:	e1a00004 	.word	0xe1a00004
    a384:	e1a01003 	.word	0xe1a01003
    a388:	eb000b78 	.word	0xeb000b78
    a38c:	e1a03000 	.word	0xe1a03000
    a390:	e1a00003 	.word	0xe1a00003
    a394:	ebfff560 	.word	0xebfff560
    a398:	e1a03000 	.word	0xe1a03000
    a39c:	e1a04001 	.word	0xe1a04001
    a3a0:	e1a00003 	.word	0xe1a00003
    a3a4:	e1a01004 	.word	0xe1a01004
    a3a8:	eb000d40 	.word	0xeb000d40
    a3ac:	e1a03000 	.word	0xe1a03000
    a3b0:	e1a04001 	.word	0xe1a04001
    a3b4:	e1a00003 	.word	0xe1a00003
    a3b8:	e1a01004 	.word	0xe1a01004
    a3bc:	eb000b40 	.word	0xeb000b40
    a3c0:	e1a02000 	.word	0xe1a02000
    a3c4:	e59f34c4 	.word	0xe59f34c4
    a3c8:	e5832000 	.word	0xe5832000
    a3cc:	e59f34bc 	.word	0xe59f34bc
    a3d0:	e5932000 	.word	0xe5932000
    a3d4:	e59f34b4 	.word	0xe59f34b4
    a3d8:	e5933000 	.word	0xe5933000
    a3dc:	e1a00002 	.word	0xe1a00002
    a3e0:	e1a01003 	.word	0xe1a01003
    a3e4:	eb000c09 	.word	0xeb000c09
    a3e8:	e1a03000 	.word	0xe1a03000
    a3ec:	e1a04003 	.word	0xe1a04003
    a3f0:	e59f3494 	.word	0xe59f3494
    a3f4:	e5932000 	.word	0xe5932000
    a3f8:	e59f348c 	.word	0xe59f348c
    a3fc:	e5933000 	.word	0xe5933000
    a400:	e1a00002 	.word	0xe1a00002
    a404:	e1a01003 	.word	0xe1a01003
    a408:	eb000c00 	.word	0xeb000c00
    a40c:	e1a03000 	.word	0xe1a03000
    a410:	e1a00004 	.word	0xe1a00004
    a414:	e1a01003 	.word	0xe1a01003
    a418:	eb000b54 	.word	0xeb000b54
    a41c:	e1a03000 	.word	0xe1a03000
    a420:	e1a00003 	.word	0xe1a00003
    a424:	ebfff53c 	.word	0xebfff53c
    a428:	e1a03000 	.word	0xe1a03000
    a42c:	e1a04001 	.word	0xe1a04001
    a430:	e1a00003 	.word	0xe1a00003
    a434:	e1a01004 	.word	0xe1a01004
    a438:	eb000d1c 	.word	0xeb000d1c
    a43c:	e1a03000 	.word	0xe1a03000
    a440:	e1a04001 	.word	0xe1a04001
    a444:	e1a00003 	.word	0xe1a00003
    a448:	e1a01004 	.word	0xe1a01004
    a44c:	eb000b1c 	.word	0xeb000b1c
    a450:	e1a02000 	.word	0xe1a02000
    a454:	e59b3014 	.word	0xe59b3014
    a458:	e5832000 	.word	0xe5832000
    a45c:	e59f3424 	.word	0xe59f3424
    a460:	e5933000 	.word	0xe5933000
    a464:	e1a00003 	.word	0xe1a00003
    a468:	ebfff52b 	.word	0xebfff52b
    a46c:	e1a05000 	.word	0xe1a05000
    a470:	e1a06001 	.word	0xe1a06001
    a474:	e59f3408 	.word	0xe59f3408
    a478:	e5933000 	.word	0xe5933000
    a47c:	e1a00003 	.word	0xe1a00003
    a480:	ebfff525 	.word	0xebfff525
    a484:	e1a03000 	.word	0xe1a03000
    a488:	e1a04001 	.word	0xe1a04001
    a48c:	e1a00005 	.word	0xe1a00005
    a490:	e1a01006 	.word	0xe1a01006
    a494:	e1a02003 	.word	0xe1a02003
    a498:	e1a03004 	.word	0xe1a03004
    a49c:	eb000d09 	.word	0xeb000d09
    a4a0:	e1a05000 	.word	0xe1a05000
    a4a4:	e1a06001 	.word	0xe1a06001
    a4a8:	e59f33e4 	.word	0xe59f33e4
    a4ac:	e5933000 	.word	0xe5933000
    a4b0:	e1a00003 	.word	0xe1a00003
    a4b4:	ebfff518 	.word	0xebfff518
    a4b8:	e1a03000 	.word	0xe1a03000
    a4bc:	e1a04001 	.word	0xe1a04001
    a4c0:	e1a00005 	.word	0xe1a00005
    a4c4:	e1a01006 	.word	0xe1a01006
    a4c8:	e1a02003 	.word	0xe1a02003
    a4cc:	e1a03004 	.word	0xe1a03004
    a4d0:	ebfff5e5 	.word	0xebfff5e5
    a4d4:	e1a03000 	.word	0xe1a03000
    a4d8:	e1a04001 	.word	0xe1a04001
    a4dc:	e1a00003 	.word	0xe1a00003
    a4e0:	e1a01004 	.word	0xe1a01004
    a4e4:	eb000af6 	.word	0xeb000af6
    a4e8:	e1a02000 	.word	0xe1a02000
    a4ec:	e59b300c 	.word	0xe59b300c
    a4f0:	e5832000 	.word	0xe5832000
    a4f4:	e59f3390 	.word	0xe59f3390
    a4f8:	e5933000 	.word	0xe5933000
    a4fc:	e1a00003 	.word	0xe1a00003
    a500:	ebfff505 	.word	0xebfff505
    a504:	e1a05000 	.word	0xe1a05000
    a508:	e1a06001 	.word	0xe1a06001
    a50c:	e59f337c 	.word	0xe59f337c
    a510:	e5933000 	.word	0xe5933000
    a514:	e1a00003 	.word	0xe1a00003
    a518:	ebfff4ff 	.word	0xebfff4ff
    a51c:	e1a03000 	.word	0xe1a03000
    a520:	e1a04001 	.word	0xe1a04001
    a524:	e1a00005 	.word	0xe1a00005
    a528:	e1a01006 	.word	0xe1a01006
    a52c:	e1a02003 	.word	0xe1a02003
    a530:	e1a03004 	.word	0xe1a03004
    a534:	eb000ce3 	.word	0xeb000ce3
    a538:	e1a05000 	.word	0xe1a05000
    a53c:	e1a06001 	.word	0xe1a06001
    a540:	e59f334c 	.word	0xe59f334c
    a544:	e5933000 	.word	0xe5933000
    a548:	e1a00003 	.word	0xe1a00003
    a54c:	ebfff4f2 	.word	0xebfff4f2
    a550:	e1a03000 	.word	0xe1a03000
    a554:	e1a04001 	.word	0xe1a04001
    a558:	e1a00005 	.word	0xe1a00005
    a55c:	e1a01006 	.word	0xe1a01006
    a560:	e1a02003 	.word	0xe1a02003
    a564:	e1a03004 	.word	0xe1a03004
    a568:	ebfff5bf 	.word	0xebfff5bf
    a56c:	e1a03000 	.word	0xe1a03000
    a570:	e1a04001 	.word	0xe1a04001
    a574:	e1a00003 	.word	0xe1a00003
    a578:	e1a01004 	.word	0xe1a01004
    a57c:	eb000ad0 	.word	0xeb000ad0
    a580:	e1a02000 	.word	0xe1a02000
    a584:	e59b3010 	.word	0xe59b3010
    a588:	e5832000 	.word	0xe5832000
    a58c:	e59b2018 	.word	0xe59b2018
    a590:	e59f3300 	.word	0xe59f3300
    a594:	e5823000 	.word	0xe5823000
    a598:	e51b302c 	.word	0xe51b302c
    a59c:	e3c33102 	.word	0xe3c33102
    a5a0:	e1a00003 	.word	0xe1a00003
    a5a4:	e59f12f0 	.word	0xe59f12f0
    a5a8:	eb000c56 	.word	0xeb000c56
    a5ac:	e1a03000 	.word	0xe1a03000
    a5b0:	e3530000 	.word	0xe3530000
    a5b4:	aa000000 	.word	0xaa000000
    a5b8:	ea000083 	.word	0xea000083
    a5bc:	e51b002c 	.word	0xe51b002c
    a5c0:	e59f1290 	.word	0xe59f1290
    a5c4:	eb000c4f 	.word	0xeb000c4f
    a5c8:	e1a03000 	.word	0xe1a03000
    a5cc:	e3530000 	.word	0xe3530000
    a5d0:	ca000000 	.word	0xca000000
    a5d4:	ea00000f 	.word	0xea00000f
    a5d8:	e59b0004 	.word	0xe59b0004
    a5dc:	e59f1274 	.word	0xe59f1274
    a5e0:	eb000c48 	.word	0xeb000c48
    a5e4:	e1a03000 	.word	0xe1a03000
    a5e8:	e3530000 	.word	0xe3530000
    a5ec:	aa000000 	.word	0xaa000000
    a5f0:	ea000008 	.word	0xea000008
    a5f4:	e59b300c 	.word	0xe59b300c
    a5f8:	e5933000 	.word	0xe5933000
    a5fc:	e1a00003 	.word	0xe1a00003
    a600:	e59b1004 	.word	0xe59b1004
    a604:	eb000ad8 	.word	0xeb000ad8
    a608:	e1a03000 	.word	0xe1a03000
    a60c:	e1a02003 	.word	0xe1a02003
    a610:	e59b3018 	.word	0xe59b3018
    a614:	e5832000 	.word	0xe5832000
    a618:	e51b002c 	.word	0xe51b002c
    a61c:	e59f1234 	.word	0xe59f1234
    a620:	eb000c38 	.word	0xeb000c38
    a624:	e1a03000 	.word	0xe1a03000
    a628:	e3530000 	.word	0xe3530000
    a62c:	ca000000 	.word	0xca000000
    a630:	ea000011 	.word	0xea000011
    a634:	e59b0004 	.word	0xe59b0004
    a638:	e59f1218 	.word	0xe59f1218
    a63c:	eb000c33 	.word	0xeb000c33
    a640:	e1a03000 	.word	0xe1a03000
    a644:	e3530000 	.word	0xe3530000
    a648:	ba000000 	.word	0xba000000
    a64c:	ea00000a 	.word	0xea00000a
    a650:	e59b300c 	.word	0xe59b300c
    a654:	e5932000 	.word	0xe5932000
    a658:	e59b3004 	.word	0xe59b3004
    a65c:	e3c33102 	.word	0xe3c33102
    a660:	e1a00002 	.word	0xe1a00002
    a664:	e1a01003 	.word	0xe1a01003
    a668:	eb000ac0 	.word	0xeb000ac0
    a66c:	e1a03000 	.word	0xe1a03000
    a670:	e1a02003 	.word	0xe1a02003
    a674:	e59b3018 	.word	0xe59b3018
    a678:	e5832000 	.word	0xe5832000
    a67c:	e51b002c 	.word	0xe51b002c
    a680:	e59f11d0 	.word	0xe59f11d0
    a684:	eb000c21 	.word	0xeb000c21
    a688:	e1a03000 	.word	0xe1a03000
    a68c:	e3530000 	.word	0xe3530000
    a690:	ba000000 	.word	0xba000000
    a694:	ea00000f 	.word	0xea00000f
    a698:	e59b0004 	.word	0xe59b0004
    a69c:	e59f11b4 	.word	0xe59f11b4
    a6a0:	eb000c18 	.word	0xeb000c18
    a6a4:	e1a03000 	.word	0xe1a03000
    a6a8:	e3530000 	.word	0xe3530000
    a6ac:	aa000000 	.word	0xaa000000
    a6b0:	ea000008 	.word	0xea000008
    a6b4:	e59b300c 	.word	0xe59b300c
    a6b8:	e5933000 	.word	0xe5933000
    a6bc:	e1a00003 	.word	0xe1a00003
    a6c0:	e59b1004 	.word	0xe59b1004
    a6c4:	eb000aa9 	.word	0xeb000aa9
    a6c8:	e1a03000 	.word	0xe1a03000
    a6cc:	e1a02003 	.word	0xe1a02003
    a6d0:	e59b3018 	.word	0xe59b3018
    a6d4:	e5832000 	.word	0xe5832000
    a6d8:	e51b002c 	.word	0xe51b002c
    a6dc:	e59f1174 	.word	0xe59f1174
    a6e0:	eb000c0a 	.word	0xeb000c0a
    a6e4:	e1a03000 	.word	0xe1a03000
    a6e8:	e3530000 	.word	0xe3530000
    a6ec:	ba000000 	.word	0xba000000
    a6f0:	ea000011 	.word	0xea000011
    a6f4:	e59b0004 	.word	0xe59b0004
    a6f8:	e59f1158 	.word	0xe59f1158
    a6fc:	eb000c03 	.word	0xeb000c03
    a700:	e1a03000 	.word	0xe1a03000
    a704:	e3530000 	.word	0xe3530000
    a708:	ba000000 	.word	0xba000000
    a70c:	ea00000a 	.word	0xea00000a
    a710:	e59b300c 	.word	0xe59b300c
    a714:	e5932000 	.word	0xe5932000
    a718:	e59b3004 	.word	0xe59b3004
    a71c:	e3c33102 	.word	0xe3c33102
    a720:	e1a00002 	.word	0xe1a00002
    a724:	e1a01003 	.word	0xe1a01003
    a728:	eb000a8f 	.word	0xeb000a8f
    a72c:	e1a03000 	.word	0xe1a03000
    a730:	e1a02003 	.word	0xe1a02003
    a734:	e59b3018 	.word	0xe59b3018
    a738:	e5832000 	.word	0xe5832000
    a73c:	e59b3018 	.word	0xe59b3018
    a740:	e5933000 	.word	0xe5933000
    a744:	e1a00003 	.word	0xe1a00003
    a748:	e59f1150 	.word	0xe59f1150
    a74c:	eb000bed 	.word	0xeb000bed
    a750:	e1a03000 	.word	0xe1a03000
    a754:	e3530000 	.word	0xe3530000
    a758:	ca000000 	.word	0xca000000
    a75c:	ea000008 	.word	0xea000008
    a760:	e59b3018 	.word	0xe59b3018
    a764:	e5933000 	.word	0xe5933000
    a768:	e1a00003 	.word	0xe1a00003
    a76c:	e59f1130 	.word	0xe59f1130
    a770:	eb000a7d 	.word	0xeb000a7d
    a774:	e1a03000 	.word	0xe1a03000
    a778:	e1a02003 	.word	0xe1a02003
    a77c:	e59b3018 	.word	0xe59b3018
    a780:	e5832000 	.word	0xe5832000
    a784:	e59b3018 	.word	0xe59b3018
    a788:	e5933000 	.word	0xe5933000
    a78c:	e1a00003 	.word	0xe1a00003
    a790:	e59f1110 	.word	0xe59f1110
    a794:	eb000bdd 	.word	0xeb000bdd
    a798:	e1a03000 	.word	0xe1a03000
    a79c:	e3530000 	.word	0xe3530000
    a7a0:	ba000000 	.word	0xba000000
    a7a4:	ea000008 	.word	0xea000008
    a7a8:	e59b3018 	.word	0xe59b3018
    a7ac:	e5933000 	.word	0xe5933000
    a7b0:	e1a00003 	.word	0xe1a00003
    a7b4:	e59f10e8 	.word	0xe59f10e8
    a7b8:	eb000a6c 	.word	0xeb000a6c
    a7bc:	e1a03000 	.word	0xe1a03000
    a7c0:	e1a02003 	.word	0xe1a02003
    a7c4:	e59b3018 	.word	0xe59b3018
    a7c8:	e5832000 	.word	0xe5832000
    a7cc:	e59f20d8 	.word	0xe59f20d8
    a7d0:	e59b3008 	.word	0xe59b3008
    a7d4:	e5823000 	.word	0xe5823000
    a7d8:	e59f20d0 	.word	0xe59f20d0
    a7dc:	e51b3028 	.word	0xe51b3028
    a7e0:	e5823000 	.word	0xe5823000
    a7e4:	e59f20c8 	.word	0xe59f20c8
    a7e8:	e51b302c 	.word	0xe51b302c
    a7ec:	e5823000 	.word	0xe5823000
    a7f0:	e59f20c0 	.word	0xe59f20c0
    a7f4:	e59b3004 	.word	0xe59b3004
    a7f8:	e5823000 	.word	0xe5823000
    a7fc:	e24bd01c 	.word	0xe24bd01c
    a800:	e89d68f0 	.word	0xe89d68f0
    a804:	e12fff1e 	.word	0xe12fff1e
    a808:	400016bc 	.word	0x400016bc
    a80c:	400016b8 	.word	0x400016b8
    a810:	40000018 	.word	0x40000018
    a814:	400002bc 	.word	0x400002bc
    a818:	40000ac8 	.word	0x40000ac8
    a81c:	40001400 	.word	0x40001400
    a820:	40000014 	.word	0x40000014
    a824:	40000a78 	.word	0x40000a78
    a828:	40000a64 	.word	0x40000a64
    a82c:	40000e50 	.word	0x40000e50
    a830:	40000a60 	.word	0x40000a60
    a834:	40000e84 	.word	0x40000e84
    a838:	40000a5c 	.word	0x40000a5c
    a83c:	40000a70 	.word	0x40000a70
    a840:	4000115c 	.word	0x4000115c
    a844:	40000de8 	.word	0x40000de8
    a848:	40000a6c 	.word	0x40000a6c
    a84c:	40000e1c 	.word	0x40000e1c
    a850:	40000a74 	.word	0x40000a74
    a854:	40000a94 	.word	0x40000a94
    a858:	00000000 	.word	0x00000000
    a85c:	40000db4 	.word	0x40000db4
    a860:	40000a98 	.word	0x40000a98
    a864:	40000b10 	.word	0x40000b10
    a868:	40000a58 	.word	0x40000a58
    a86c:	40000a68 	.word	0x40000a68
    a870:	400016a4 	.word	0x400016a4
    a874:	400016a8 	.word	0x400016a8
    a878:	400016c0 	.word	0x400016c0
    a87c:	40000a84 	.word	0x40000a84
    a880:	40000a80 	.word	0x40000a80
    a884:	40000a54 	.word	0x40000a54
    a888:	40000a50 	.word	0x40000a50
    a88c:	40000a4c 	.word	0x40000a4c
    a890:	40000a48 	.word	0x40000a48
    a894:	40000b08 	.word	0x40000b08
    a898:	c479c000 	.word	0xc479c000
    a89c:	425c0000 	.word	0x425c0000
    a8a0:	43340000 	.word	0x43340000
    a8a4:	43b40000 	.word	0x43b40000
    a8a8:	c3340000 	.word	0xc3340000
    a8ac:	40000ad8 	.word	0x40000ad8
    a8b0:	40000ad4 	.word	0x40000ad4
    a8b4:	40000ad0 	.word	0x40000ad0
    a8b8:	40000acc 	.word	0x40000acc

0000a8bc <geomag>:
    a8bc:	e1a0c00d 	.word	0xe1a0c00d
    a8c0:	e92dd800 	.word	0xe92dd800
    a8c4:	e24cb004 	.word	0xe24cb004
    a8c8:	e24dd01c 	.word	0xe24dd01c
    a8cc:	e50b0010 	.word	0xe50b0010
    a8d0:	e59f3048 	.word	0xe59f3048
    a8d4:	e58d3000 	.word	0xe58d3000
    a8d8:	e59f3040 	.word	0xe59f3040
    a8dc:	e58d3004 	.word	0xe58d3004
    a8e0:	e3a03000 	.word	0xe3a03000
    a8e4:	e58d3008 	.word	0xe58d3008
    a8e8:	e3a03000 	.word	0xe3a03000
    a8ec:	e58d300c 	.word	0xe58d300c
    a8f0:	e3a03000 	.word	0xe3a03000
    a8f4:	e58d3010 	.word	0xe58d3010
    a8f8:	e3a03000 	.word	0xe3a03000
    a8fc:	e58d3014 	.word	0xe58d3014
    a900:	e3a00000 	.word	0xe3a00000
    a904:	e51b1010 	.word	0xe51b1010
    a908:	e59f2010 	.word	0xe59f2010
    a90c:	e59f300c 	.word	0xe59f300c
    a910:	ebfff558 	.word	0xebfff558
    a914:	e24bd00c 	.word	0xe24bd00c
    a918:	e89d6800 	.word	0xe89d6800
    a91c:	e12fff1e 	.word	0xe12fff1e
    a920:	00000000 	.word	0x00000000

0000a924 <geomg1>:
    a924:	e1a0c00d 	.word	0xe1a0c00d
    a928:	e92dd800 	.word	0xe92dd800
    a92c:	e24cb004 	.word	0xe24cb004
    a930:	e24dd028 	.word	0xe24dd028
    a934:	e50b0010 	.word	0xe50b0010
    a938:	e50b1014 	.word	0xe50b1014
    a93c:	e50b2018 	.word	0xe50b2018
    a940:	e50b301c 	.word	0xe50b301c
    a944:	e51b3018 	.word	0xe51b3018
    a948:	e58d3000 	.word	0xe58d3000
    a94c:	e51b301c 	.word	0xe51b301c
    a950:	e58d3004 	.word	0xe58d3004
    a954:	e59b3004 	.word	0xe59b3004
    a958:	e58d3008 	.word	0xe58d3008
    a95c:	e59b3008 	.word	0xe59b3008
    a960:	e58d300c 	.word	0xe58d300c
    a964:	e59b300c 	.word	0xe59b300c
    a968:	e58d3010 	.word	0xe58d3010
    a96c:	e59b3010 	.word	0xe59b3010
    a970:	e58d3014 	.word	0xe58d3014
    a974:	e3a00001 	.word	0xe3a00001
    a978:	e3a01000 	.word	0xe3a01000
    a97c:	e51b2010 	.word	0xe51b2010
    a980:	e51b3014 	.word	0xe51b3014
    a984:	ebfff53b 	.word	0xebfff53b
    a988:	e24bd00c 	.word	0xe24bd00c
    a98c:	e89d6800 	.word	0xe89d6800
    a990:	e12fff1e 	.word	0xe12fff1e

0000a994 <getDeclination>:
    a994:	e1a0c00d 	.word	0xe1a0c00d
    a998:	e92dd9f0 	.word	0xe92dd9f0
    a99c:	e24cb004 	.word	0xe24cb004
    a9a0:	e24dd060 	.word	0xe24dd060
    a9a4:	e50b0060 	.word	0xe50b0060
    a9a8:	e50b1064 	.word	0xe50b1064
    a9ac:	e50b2068 	.word	0xe50b2068
    a9b0:	e50b306c 	.word	0xe50b306c
    a9b4:	e59f36ac 	.word	0xe59f36ac
    a9b8:	e50b3038 	.word	0xe50b3038
    a9bc:	e59f36a8 	.word	0xe59f36a8
    a9c0:	e50b3034 	.word	0xe50b3034
    a9c4:	e59f36a4 	.word	0xe59f36a4
    a9c8:	e50b302c 	.word	0xe50b302c
    a9cc:	e59f26a0 	.word	0xe59f26a0
    a9d0:	e3a0300c 	.word	0xe3a0300c
    a9d4:	e5823000 	.word	0xe5823000
    a9d8:	e3a03000 	.word	0xe3a03000
    a9dc:	e50b305c 	.word	0xe50b305c
    a9e0:	e59f3690 	.word	0xe59f3690
    a9e4:	e50b3028 	.word	0xe50b3028
    a9e8:	e3a03000 	.word	0xe3a03000
    a9ec:	e50b3058 	.word	0xe50b3058
    a9f0:	e59f3680 	.word	0xe59f3680
    a9f4:	e50b3024 	.word	0xe50b3024
    a9f8:	e3a03000 	.word	0xe3a03000
    a9fc:	e50b3054 	.word	0xe50b3054
    aa00:	e59f066c 	.word	0xe59f066c
    aa04:	ebffffac 	.word	0xebffffac
    aa08:	e51b0060 	.word	0xe51b0060
    aa0c:	eb000a48 	.word	0xeb000a48
    aa10:	e1a03000 	.word	0xe1a03000
    aa14:	e1a00003 	.word	0xe1a00003
    aa18:	e59f165c 	.word	0xe59f165c
    aa1c:	eb000ae1 	.word	0xeb000ae1
    aa20:	e1a03000 	.word	0xe1a03000
    aa24:	e1a02003 	.word	0xe1a02003
    aa28:	e59f3650 	.word	0xe59f3650
    aa2c:	e5832000 	.word	0xe5832000
    aa30:	e51b0064 	.word	0xe51b0064
    aa34:	eb000a3e 	.word	0xeb000a3e
    aa38:	e1a03000 	.word	0xe1a03000
    aa3c:	e1a00003 	.word	0xe1a00003
    aa40:	e59f1634 	.word	0xe59f1634
    aa44:	eb000ad7 	.word	0xeb000ad7
    aa48:	e1a03000 	.word	0xe1a03000
    aa4c:	e1a02003 	.word	0xe1a02003
    aa50:	e59f362c 	.word	0xe59f362c
    aa54:	e5832000 	.word	0xe5832000
    aa58:	e51b0068 	.word	0xe51b0068
    aa5c:	eb000a34 	.word	0xeb000a34
    aa60:	e1a02000 	.word	0xe1a02000
    aa64:	e59f361c 	.word	0xe59f361c
    aa68:	e5832000 	.word	0xe5832000
    aa6c:	e59f3614 	.word	0xe59f3614
    aa70:	e5933000 	.word	0xe5933000
    aa74:	e1a00003 	.word	0xe1a00003
    aa78:	e59f160c 	.word	0xe59f160c
    aa7c:	eb000ac9 	.word	0xeb000ac9
    aa80:	e1a03000 	.word	0xe1a03000
    aa84:	e1a02003 	.word	0xe1a02003
    aa88:	e59f3600 	.word	0xe59f3600
    aa8c:	e5832000 	.word	0xe5832000
    aa90:	e51b0034 	.word	0xe51b0034
    aa94:	e51b102c 	.word	0xe51b102c
    aa98:	eb0009b4 	.word	0xeb0009b4
    aa9c:	e1a03000 	.word	0xe1a03000
    aaa0:	e50b3030 	.word	0xe50b3030
    aaa4:	e51b006c 	.word	0xe51b006c
    aaa8:	eb000a21 	.word	0xeb000a21
    aaac:	e1a02000 	.word	0xe1a02000
    aab0:	e59f35dc 	.word	0xe59f35dc
    aab4:	e5832000 	.word	0xe5832000
    aab8:	e59f35d0 	.word	0xe59f35d0
    aabc:	e5932000 	.word	0xe5932000
    aac0:	e59f35b8 	.word	0xe59f35b8
    aac4:	e5931000 	.word	0xe5931000
    aac8:	e59f35b4 	.word	0xe59f35b4
    aacc:	e593c000 	.word	0xe593c000
    aad0:	e59f35bc 	.word	0xe59f35bc
    aad4:	e593e000 	.word	0xe593e000
    aad8:	e59f35b8 	.word	0xe59f35b8
    aadc:	e58d3000 	.word	0xe58d3000
    aae0:	e59f35b4 	.word	0xe59f35b4
    aae4:	e58d3004 	.word	0xe58d3004
    aae8:	e59f35b0 	.word	0xe59f35b0
    aaec:	e58d3008 	.word	0xe58d3008
    aaf0:	e59f35ac 	.word	0xe59f35ac
    aaf4:	e58d300c 	.word	0xe58d300c
    aaf8:	e1a00002 	.word	0xe1a00002
    aafc:	e1a0200c 	.word	0xe1a0200c
    ab00:	e1a0300e 	.word	0xe1a0300e
    ab04:	ebffff86 	.word	0xebffff86
    ab08:	e59f3584 	.word	0xe59f3584
    ab0c:	e5932000 	.word	0xe5932000
    ab10:	e59f3590 	.word	0xe59f3590
    ab14:	e5832000 	.word	0xe5832000
    ab18:	e59f3578 	.word	0xe59f3578
    ab1c:	e5932000 	.word	0xe5932000
    ab20:	e59f3584 	.word	0xe59f3584
    ab24:	e5832000 	.word	0xe5832000
    ab28:	e59f356c 	.word	0xe59f356c
    ab2c:	e5932000 	.word	0xe5932000
    ab30:	e59f3578 	.word	0xe59f3578
    ab34:	e5832000 	.word	0xe5832000
    ab38:	e59f3560 	.word	0xe59f3560
    ab3c:	e5932000 	.word	0xe5932000
    ab40:	e59f356c 	.word	0xe59f356c
    ab44:	e5832000 	.word	0xe5832000
    ab48:	e59f3564 	.word	0xe59f3564
    ab4c:	e5933000 	.word	0xe5933000
    ab50:	e1a00003 	.word	0xe1a00003
    ab54:	ebfff370 	.word	0xebfff370
    ab58:	e1a07000 	.word	0xe1a07000
    ab5c:	e1a08001 	.word	0xe1a08001
    ab60:	e59f3544 	.word	0xe59f3544
    ab64:	e5933000 	.word	0xe5933000
    ab68:	e1a00003 	.word	0xe1a00003
    ab6c:	e51b1038 	.word	0xe51b1038
    ab70:	eb000a26 	.word	0xeb000a26
    ab74:	e1a03000 	.word	0xe1a03000
    ab78:	e1a00003 	.word	0xe1a00003
    ab7c:	ebfff366 	.word	0xebfff366
    ab80:	e1a03000 	.word	0xe1a03000
    ab84:	e1a04001 	.word	0xe1a04001
    ab88:	e1a00003 	.word	0xe1a00003
    ab8c:	e1a01004 	.word	0xe1a01004
    ab90:	eb000b40 	.word	0xeb000b40
    ab94:	e1a05000 	.word	0xe1a05000
    ab98:	e1a06001 	.word	0xe1a06001
    ab9c:	e59f350c 	.word	0xe59f350c
    aba0:	e5933000 	.word	0xe5933000
    aba4:	e1a00003 	.word	0xe1a00003
    aba8:	e51b1038 	.word	0xe51b1038
    abac:	eb000a17 	.word	0xeb000a17
    abb0:	e1a03000 	.word	0xe1a03000
    abb4:	e1a00003 	.word	0xe1a00003
    abb8:	ebfff357 	.word	0xebfff357
    abbc:	e1a03000 	.word	0xe1a03000
    abc0:	e1a04001 	.word	0xe1a04001
    abc4:	e1a00003 	.word	0xe1a00003
    abc8:	e1a01004 	.word	0xe1a01004
    abcc:	eb000b31 	.word	0xeb000b31
    abd0:	e1a03000 	.word	0xe1a03000
    abd4:	e1a04001 	.word	0xe1a04001
    abd8:	e1a00005 	.word	0xe1a00005
    abdc:	e1a01006 	.word	0xe1a01006
    abe0:	e1a02003 	.word	0xe1a02003
    abe4:	e1a03004 	.word	0xe1a03004
    abe8:	ebfff37b 	.word	0xebfff37b
    abec:	e1a03000 	.word	0xe1a03000
    abf0:	e1a04001 	.word	0xe1a04001
    abf4:	e1a00007 	.word	0xe1a00007
    abf8:	e1a01008 	.word	0xe1a01008
    abfc:	e1a02003 	.word	0xe1a02003
    ac00:	e1a03004 	.word	0xe1a03004
    ac04:	ebfff374 	.word	0xebfff374
    ac08:	e1a03000 	.word	0xe1a03000
    ac0c:	e1a04001 	.word	0xe1a04001
    ac10:	e1a00003 	.word	0xe1a00003
    ac14:	e1a01004 	.word	0xe1a01004
    ac18:	eb000929 	.word	0xeb000929
    ac1c:	e1a03000 	.word	0xe1a03000
    ac20:	e50b3050 	.word	0xe50b3050
    ac24:	e59f3488 	.word	0xe59f3488
    ac28:	e5933000 	.word	0xe5933000
    ac2c:	e1a00003 	.word	0xe1a00003
    ac30:	ebfff339 	.word	0xebfff339
    ac34:	e1a07000 	.word	0xe1a07000
    ac38:	e1a08001 	.word	0xe1a08001
    ac3c:	e59f346c 	.word	0xe59f346c
    ac40:	e5933000 	.word	0xe5933000
    ac44:	e1a00003 	.word	0xe1a00003
    ac48:	e51b1038 	.word	0xe51b1038
    ac4c:	eb0009ef 	.word	0xeb0009ef
    ac50:	e1a03000 	.word	0xe1a03000
    ac54:	e1a00003 	.word	0xe1a00003
    ac58:	ebfff32f 	.word	0xebfff32f
    ac5c:	e1a03000 	.word	0xe1a03000
    ac60:	e1a04001 	.word	0xe1a04001
    ac64:	e1a00003 	.word	0xe1a00003
    ac68:	e1a01004 	.word	0xe1a01004
    ac6c:	eb000b09 	.word	0xeb000b09
    ac70:	e1a05000 	.word	0xe1a05000
    ac74:	e1a06001 	.word	0xe1a06001
    ac78:	e59f342c 	.word	0xe59f342c
    ac7c:	e5933000 	.word	0xe5933000
    ac80:	e1a00003 	.word	0xe1a00003
    ac84:	e51b1038 	.word	0xe51b1038
    ac88:	eb0009e0 	.word	0xeb0009e0
    ac8c:	e1a03000 	.word	0xe1a03000
    ac90:	e1a00003 	.word	0xe1a00003
    ac94:	ebfff320 	.word	0xebfff320
    ac98:	e1a03000 	.word	0xe1a03000
    ac9c:	e1a04001 	.word	0xe1a04001
    aca0:	e1a00003 	.word	0xe1a00003
    aca4:	e1a01004 	.word	0xe1a01004
    aca8:	eb000b03 	.word	0xeb000b03
    acac:	e1a03000 	.word	0xe1a03000
    acb0:	e1a04001 	.word	0xe1a04001
    acb4:	e1a00005 	.word	0xe1a00005
    acb8:	e1a01006 	.word	0xe1a01006
    acbc:	e1a02003 	.word	0xe1a02003
    acc0:	e1a03004 	.word	0xe1a03004
    acc4:	ebfff344 	.word	0xebfff344
    acc8:	e1a03000 	.word	0xe1a03000
    accc:	e1a04001 	.word	0xe1a04001
    acd0:	e1a00007 	.word	0xe1a00007
    acd4:	e1a01008 	.word	0xe1a01008
    acd8:	e1a02003 	.word	0xe1a02003
    acdc:	e1a03004 	.word	0xe1a03004
    ace0:	ebfff33d 	.word	0xebfff33d
    ace4:	e1a03000 	.word	0xe1a03000
    ace8:	e1a04001 	.word	0xe1a04001
    acec:	e1a00003 	.word	0xe1a00003
    acf0:	e1a01004 	.word	0xe1a01004
    acf4:	eb0008f2 	.word	0xeb0008f2
    acf8:	e1a03000 	.word	0xe1a03000
    acfc:	e50b304c 	.word	0xe50b304c
    ad00:	e59f33ac 	.word	0xe59f33ac
    ad04:	e5933000 	.word	0xe5933000
    ad08:	e1a00003 	.word	0xe1a00003
    ad0c:	ebfff302 	.word	0xebfff302
    ad10:	e1a05000 	.word	0xe1a05000
    ad14:	e1a06001 	.word	0xe1a06001
    ad18:	e59f3390 	.word	0xe59f3390
    ad1c:	e5933000 	.word	0xe5933000
    ad20:	e1a00003 	.word	0xe1a00003
    ad24:	e51b1038 	.word	0xe51b1038
    ad28:	eb0009b8 	.word	0xeb0009b8
    ad2c:	e1a03000 	.word	0xe1a03000
    ad30:	e1a00003 	.word	0xe1a00003
    ad34:	ebfff2f8 	.word	0xebfff2f8
    ad38:	e1a03000 	.word	0xe1a03000
    ad3c:	e1a04001 	.word	0xe1a04001
    ad40:	e1a00003 	.word	0xe1a00003
    ad44:	e1a01004 	.word	0xe1a01004
    ad48:	eb000adb 	.word	0xeb000adb
    ad4c:	e1a03000 	.word	0xe1a03000
    ad50:	e1a04001 	.word	0xe1a04001
    ad54:	e1a00005 	.word	0xe1a00005
    ad58:	e1a01006 	.word	0xe1a01006
    ad5c:	e1a02003 	.word	0xe1a02003
    ad60:	e1a03004 	.word	0xe1a03004
    ad64:	ebfff31c 	.word	0xebfff31c
    ad68:	e1a03000 	.word	0xe1a03000
    ad6c:	e1a04001 	.word	0xe1a04001
    ad70:	e1a00003 	.word	0xe1a00003
    ad74:	e1a01004 	.word	0xe1a01004
    ad78:	eb0008d1 	.word	0xeb0008d1
    ad7c:	e1a03000 	.word	0xe1a03000
    ad80:	e50b3048 	.word	0xe50b3048
    ad84:	e59f3328 	.word	0xe59f3328
    ad88:	e5933000 	.word	0xe5933000
    ad8c:	e1a00003 	.word	0xe1a00003
    ad90:	ebfff2e1 	.word	0xebfff2e1
    ad94:	e1a05000 	.word	0xe1a05000
    ad98:	e1a06001 	.word	0xe1a06001
    ad9c:	e59f330c 	.word	0xe59f330c
    ada0:	e5933000 	.word	0xe5933000
    ada4:	e1a00003 	.word	0xe1a00003
    ada8:	e51b1038 	.word	0xe51b1038
    adac:	eb000997 	.word	0xeb000997
    adb0:	e1a03000 	.word	0xe1a03000
    adb4:	e1a00003 	.word	0xe1a00003
    adb8:	ebfff2d7 	.word	0xebfff2d7
    adbc:	e1a03000 	.word	0xe1a03000
    adc0:	e1a04001 	.word	0xe1a04001
    adc4:	e1a00003 	.word	0xe1a00003
    adc8:	e1a01004 	.word	0xe1a01004
    adcc:	eb000ab1 	.word	0xeb000ab1
    add0:	e1a03000 	.word	0xe1a03000
    add4:	e1a04001 	.word	0xe1a04001
    add8:	e1a00005 	.word	0xe1a00005
    addc:	e1a01006 	.word	0xe1a01006
    ade0:	e1a02003 	.word	0xe1a02003
    ade4:	e1a03004 	.word	0xe1a03004
    ade8:	ebfff2fb 	.word	0xebfff2fb
    adec:	e1a03000 	.word	0xe1a03000
    adf0:	e1a04001 	.word	0xe1a04001
    adf4:	e1a00003 	.word	0xe1a00003
    adf8:	e1a01004 	.word	0xe1a01004
    adfc:	eb0008b0 	.word	0xeb0008b0
    ae00:	e1a03000 	.word	0xe1a03000
    ae04:	e50b3044 	.word	0xe50b3044
    ae08:	e51b0044 	.word	0xe51b0044
    ae0c:	e59f12a4 	.word	0xe59f12a4
    ae10:	eb000a3e 	.word	0xeb000a3e
    ae14:	e1a03000 	.word	0xe1a03000
    ae18:	e3530000 	.word	0xe3530000
    ae1c:	ba000000 	.word	0xba000000
    ae20:	ea000005 	.word	0xea000005
    ae24:	e59f2280 	.word	0xe59f2280
    ae28:	e59f323c 	.word	0xe59f323c
    ae2c:	e5823000 	.word	0xe5823000
    ae30:	e59f2284 	.word	0xe59f2284
    ae34:	e59f3230 	.word	0xe59f3230
    ae38:	e5823000 	.word	0xe5823000
    ae3c:	e51b0044 	.word	0xe51b0044
    ae40:	e59f1244 	.word	0xe59f1244
    ae44:	eb000a31 	.word	0xeb000a31
    ae48:	e1a03000 	.word	0xe1a03000
    ae4c:	e3530000 	.word	0xe3530000
    ae50:	ba000000 	.word	0xba000000
    ae54:	ea000006 	.word	0xea000006
    ae58:	e3a03000 	.word	0xe3a03000
    ae5c:	e50b305c 	.word	0xe50b305c
    ae60:	e3a03001 	.word	0xe3a03001
    ae64:	e50b3058 	.word	0xe50b3058
    ae68:	e51b3044 	.word	0xe51b3044
    ae6c:	e50b3024 	.word	0xe50b3024
    ae70:	ea00000d 	.word	0xea00000d
    ae74:	e51b0044 	.word	0xe51b0044
    ae78:	e59f1240 	.word	0xe59f1240
    ae7c:	eb000a23 	.word	0xeb000a23
    ae80:	e1a03000 	.word	0xe1a03000
    ae84:	e3530000 	.word	0xe3530000
    ae88:	ba000000 	.word	0xba000000
    ae8c:	ea000006 	.word	0xea000006
    ae90:	e51b3058 	.word	0xe51b3058
    ae94:	e3530000 	.word	0xe3530000
    ae98:	1a000003 	.word	0x1a000003
    ae9c:	e3a03001 	.word	0xe3a03001
    aea0:	e50b305c 	.word	0xe50b305c
    aea4:	e51b3044 	.word	0xe51b3044
    aea8:	e50b3028 	.word	0xe50b3028
    aeac:	e59f31cc 	.word	0xe59f31cc
    aeb0:	e5933000 	.word	0xe5933000
    aeb4:	e3c33102 	.word	0xe3c33102
    aeb8:	e1a00003 	.word	0xe1a00003
    aebc:	ebfff296 	.word	0xebfff296
    aec0:	e1a03000 	.word	0xe1a03000
    aec4:	e1a04001 	.word	0xe1a04001
    aec8:	e3a00101 	.word	0xe3a00101
    aecc:	e2800856 	.word	0xe2800856
    aed0:	e2800902 	.word	0xe2800902
    aed4:	e3a01000 	.word	0xe3a01000
    aed8:	e1a02003 	.word	0xe1a02003
    aedc:	e1a03004 	.word	0xe1a03004
    aee0:	ebfff1b3 	.word	0xebfff1b3
    aee4:	e1a03000 	.word	0xe1a03000
    aee8:	e1a04001 	.word	0xe1a04001
    aeec:	e1a00003 	.word	0xe1a00003
    aef0:	e1a01004 	.word	0xe1a01004
    aef4:	e28f2f59 	.word	0xe28f2f59
    aef8:	e892000c 	.word	0xe892000c
    aefc:	eb00080b 	.word	0xeb00080b
    af00:	e1a03000 	.word	0xe1a03000
    af04:	e3530000 	.word	0xe3530000
    af08:	da000000 	.word	0xda000000
    af0c:	ea000013 	.word	0xea000013
    af10:	e59f3154 	.word	0xe59f3154
    af14:	e50b3050 	.word	0xe50b3050
    af18:	e59f314c 	.word	0xe59f314c
    af1c:	e50b304c 	.word	0xe50b304c
    af20:	e59f2184 	.word	0xe59f2184
    af24:	e59f3140 	.word	0xe59f3140
    af28:	e5823000 	.word	0xe5823000
    af2c:	e59f3138 	.word	0xe59f3138
    af30:	e50b3040 	.word	0xe50b3040
    af34:	e59f3130 	.word	0xe59f3130
    af38:	e50b303c 	.word	0xe50b303c
    af3c:	e59f2178 	.word	0xe59f2178
    af40:	e59f3124 	.word	0xe59f3124
    af44:	e5823000 	.word	0xe5823000
    af48:	e3a03001 	.word	0xe3a03001
    af4c:	e50b3054 	.word	0xe50b3054
    af50:	e3a03000 	.word	0xe3a03000
    af54:	e50b305c 	.word	0xe50b305c
    af58:	e3a03000 	.word	0xe3a03000
    af5c:	e50b3058 	.word	0xe50b3058
    af60:	e59b3004 	.word	0xe59b3004
    af64:	e3a02000 	.word	0xe3a02000
    af68:	e5832000 	.word	0xe5832000
    af6c:	e51b305c 	.word	0xe51b305c
    af70:	e3530000 	.word	0xe3530000
    af74:	0a000004 	.word	0x0a000004
    af78:	e59b3004 	.word	0xe59b3004
    af7c:	e5933000 	.word	0xe5933000
    af80:	e3832001 	.word	0xe3832001
    af84:	e59b3004 	.word	0xe59b3004
    af88:	e5832000 	.word	0xe5832000
    af8c:	e51b3058 	.word	0xe51b3058
    af90:	e3530000 	.word	0xe3530000
    af94:	0a000004 	.word	0x0a000004
    af98:	e59b3004 	.word	0xe59b3004
    af9c:	e5933000 	.word	0xe5933000
    afa0:	e3832002 	.word	0xe3832002
    afa4:	e59b3004 	.word	0xe59b3004
    afa8:	e5832000 	.word	0xe5832000
    afac:	e51b3054 	.word	0xe51b3054
    afb0:	e3530000 	.word	0xe3530000
    afb4:	0a000007 	.word	0x0a000007
    afb8:	e59b3004 	.word	0xe59b3004
    afbc:	e5933000 	.word	0xe5933000
    afc0:	e3832004 	.word	0xe3832004
    afc4:	e59b3004 	.word	0xe59b3004
    afc8:	e5832000 	.word	0xe5832000
    afcc:	e3a03000 	.word	0xe3a03000
    afd0:	e50b3070 	.word	0xe50b3070
    afd4:	ea00001c 	.word	0xea00001c
    afd8:	e59f30d0 	.word	0xe59f30d0
    afdc:	e5933000 	.word	0xe5933000
    afe0:	e1a00003 	.word	0xe1a00003
    afe4:	ebfff24c 	.word	0xebfff24c
    afe8:	e1a03000 	.word	0xe1a03000
    afec:	e1a04001 	.word	0xe1a04001
    aff0:	e1a00003 	.word	0xe1a00003
    aff4:	e1a01004 	.word	0xe1a01004
    aff8:	e3a02101 	.word	0xe3a02101
    affc:	e2822709 	.word	0xe2822709
    b000:	e3a03000 	.word	0xe3a03000
    b004:	ebfff274 	.word	0xebfff274
    b008:	e1a03000 	.word	0xe1a03000
    b00c:	e1a04001 	.word	0xe1a04001
    b010:	e1a00003 	.word	0xe1a00003
    b014:	e1a01004 	.word	0xe1a01004
    b018:	eb000812 	.word	0xeb000812
    b01c:	e1a02000 	.word	0xe1a02000
    b020:	e59f309c 	.word	0xe59f309c
    b024:	e5832000 	.word	0xe5832000
    b028:	e59f307c 	.word	0xe59f307c
    b02c:	e5933000 	.word	0xe5933000
    b030:	e1a00003 	.word	0xe1a00003
    b034:	e59f1050 	.word	0xe59f1050
    b038:	eb0008f4 	.word	0xeb0008f4
    b03c:	e1a03000 	.word	0xe1a03000
    b040:	e1a00003 	.word	0xe1a00003
    b044:	eb0009f3 	.word	0xeb0009f3
    b048:	e50b0070 	.word	0xe50b0070
    b04c:	e51b3070 	.word	0xe51b3070
    b050:	e1a00003 	.word	0xe1a00003
    b054:	e24bd020 	.word	0xe24bd020
    b058:	e89d69f0 	.word	0xe89d69f0
    b05c:	e12fff1e 	.word	0xe12fff1e
    b060:	3f50624d 	.word	0x3f50624d
    b064:	d2f1a9fc 	.word	0xd2f1a9fc
    b068:	3c8efa35 	.word	0x3c8efa35
    b06c:	00000000 	.word	0x00000000
    b070:	40a00000 	.word	0x40a00000
    b074:	400016fc 	.word	0x400016fc
    b078:	47c34f80 	.word	0x47c34f80
    b07c:	4b189680 	.word	0x4b189680
    b080:	400016f4 	.word	0x400016f4
    b084:	400016f0 	.word	0x400016f0
    b088:	400016f8 	.word	0x400016f8
    b08c:	447a0000 	.word	0x447a0000
    b090:	400016e8 	.word	0x400016e8
    b094:	400016e4 	.word	0x400016e4
    b098:	400016e0 	.word	0x400016e0
    b09c:	400016dc 	.word	0x400016dc
    b0a0:	400016d8 	.word	0x400016d8
    b0a4:	400016d4 	.word	0x400016d4
    b0a8:	400016d0 	.word	0x400016d0
    b0ac:	400016cc 	.word	0x400016cc
    b0b0:	400016c8 	.word	0x400016c8
    b0b4:	400016c4 	.word	0x400016c4
    b0b8:	42c80000 	.word	0x42c80000
    b0bc:	400016ec 	.word	0x400016ec
    b0c0:	459c4000 	.word	0x459c4000
    b0c4:	40000a40 	.word	0x40000a40

0000b0c8 <cos>:
    b0c8:	b570      	push	{r4, r5, r6, lr}
    b0ca:	4a28      	ldr	r2, [pc, #160]	; (b16c <cos+0xa4>)
    b0cc:	4b28      	ldr	r3, [pc, #160]	; (b170 <cos+0xa8>)
    b0ce:	4002      	ands	r2, r0
    b0d0:	b085      	sub	sp, #20
    b0d2:	1c05      	adds	r5, r0, #0
    b0d4:	1c0e      	adds	r6, r1, #0
    b0d6:	429a      	cmp	r2, r3
    b0d8:	dd23      	ble.n	b122 <cos+0x5a>
    b0da:	4b26      	ldr	r3, [pc, #152]	; (b174 <cos+0xac>)
    b0dc:	429a      	cmp	r2, r3
    b0de:	dd0b      	ble.n	b0f8 <cos+0x30>
    b0e0:	1c33      	adds	r3, r6, #0
    b0e2:	1c2a      	adds	r2, r5, #0
    b0e4:	f002 fc14 	bl	d910 <____subdf3_from_thumb>
    b0e8:	1c03      	adds	r3, r0, #0
    b0ea:	1c0c      	adds	r4, r1, #0
    b0ec:	1c18      	adds	r0, r3, #0
    b0ee:	1c21      	adds	r1, r4, #0
    b0f0:	b005      	add	sp, #20
    b0f2:	bc70      	pop	{r4, r5, r6}
    b0f4:	bc04      	pop	{r2}
    b0f6:	4710      	bx	r2
    b0f8:	aa01      	add	r2, sp, #4
    b0fa:	f000 fa79 	bl	b5f0 <__ieee754_rem_pio2>
    b0fe:	2303      	movs	r3, #3
    b100:	1c04      	adds	r4, r0, #0
    b102:	401c      	ands	r4, r3
    b104:	2c01      	cmp	r4, #1
    b106:	d013      	beq.n	b130 <cos+0x68>
    b108:	2c02      	cmp	r4, #2
    b10a:	d028      	beq.n	b15e <cos+0x96>
    b10c:	2c00      	cmp	r4, #0
    b10e:	d11b      	bne.n	b148 <cos+0x80>
    b110:	9a03      	ldr	r2, [sp, #12]
    b112:	9b04      	ldr	r3, [sp, #16]
    b114:	9801      	ldr	r0, [sp, #4]
    b116:	9902      	ldr	r1, [sp, #8]
    b118:	f000 fd76 	bl	bc08 <__kernel_cos>
    b11c:	1c03      	adds	r3, r0, #0
    b11e:	1c0c      	adds	r4, r1, #0
    b120:	e7e4      	b.n	b0ec <cos+0x24>
    b122:	4a15      	ldr	r2, [pc, #84]	; (b178 <cos+0xb0>)
    b124:	4b15      	ldr	r3, [pc, #84]	; (b17c <cos+0xb4>)
    b126:	f000 fd6f 	bl	bc08 <__kernel_cos>
    b12a:	1c03      	adds	r3, r0, #0
    b12c:	1c0c      	adds	r4, r1, #0
    b12e:	e7dd      	b.n	b0ec <cos+0x24>
    b130:	9801      	ldr	r0, [sp, #4]
    b132:	9902      	ldr	r1, [sp, #8]
    b134:	9a03      	ldr	r2, [sp, #12]
    b136:	9b04      	ldr	r3, [sp, #16]
    b138:	9400      	str	r4, [sp, #0]
    b13a:	f001 faf9 	bl	c730 <__kernel_sin>
    b13e:	2280      	movs	r2, #128	; 0x80
    b140:	0612      	lsls	r2, r2, #24
    b142:	1883      	adds	r3, r0, r2
    b144:	1c0c      	adds	r4, r1, #0
    b146:	e7d1      	b.n	b0ec <cos+0x24>
    b148:	9a03      	ldr	r2, [sp, #12]
    b14a:	9b04      	ldr	r3, [sp, #16]
    b14c:	2401      	movs	r4, #1
    b14e:	9801      	ldr	r0, [sp, #4]
    b150:	9902      	ldr	r1, [sp, #8]
    b152:	9400      	str	r4, [sp, #0]
    b154:	f001 faec 	bl	c730 <__kernel_sin>
    b158:	1c03      	adds	r3, r0, #0
    b15a:	1c0c      	adds	r4, r1, #0
    b15c:	e7c6      	b.n	b0ec <cos+0x24>
    b15e:	9801      	ldr	r0, [sp, #4]
    b160:	9902      	ldr	r1, [sp, #8]
    b162:	9a03      	ldr	r2, [sp, #12]
    b164:	9b04      	ldr	r3, [sp, #16]
    b166:	f000 fd4f 	bl	bc08 <__kernel_cos>
    b16a:	e7e8      	b.n	b13e <cos+0x76>
    b16c:	7fffffff 	.word	0x7fffffff
    b170:	3fe921fb 	.word	0x3fe921fb
    b174:	7fefffff 	.word	0x7fefffff
	...

0000b180 <sin>:
    b180:	b570      	push	{r4, r5, r6, lr}
    b182:	4a29      	ldr	r2, [pc, #164]	; (b228 <sin+0xa8>)
    b184:	4b29      	ldr	r3, [pc, #164]	; (b22c <sin+0xac>)
    b186:	4002      	ands	r2, r0
    b188:	b085      	sub	sp, #20
    b18a:	1c05      	adds	r5, r0, #0
    b18c:	1c0e      	adds	r6, r1, #0
    b18e:	429a      	cmp	r2, r3
    b190:	dd24      	ble.n	b1dc <sin+0x5c>
    b192:	4b27      	ldr	r3, [pc, #156]	; (b230 <sin+0xb0>)
    b194:	429a      	cmp	r2, r3
    b196:	dd0b      	ble.n	b1b0 <sin+0x30>
    b198:	1c33      	adds	r3, r6, #0
    b19a:	1c2a      	adds	r2, r5, #0
    b19c:	f002 fbb8 	bl	d910 <____subdf3_from_thumb>
    b1a0:	1c03      	adds	r3, r0, #0
    b1a2:	1c0c      	adds	r4, r1, #0
    b1a4:	1c18      	adds	r0, r3, #0
    b1a6:	1c21      	adds	r1, r4, #0
    b1a8:	b005      	add	sp, #20
    b1aa:	bc70      	pop	{r4, r5, r6}
    b1ac:	bc04      	pop	{r2}
    b1ae:	4710      	bx	r2
    b1b0:	aa01      	add	r2, sp, #4
    b1b2:	f000 fa1d 	bl	b5f0 <__ieee754_rem_pio2>
    b1b6:	2303      	movs	r3, #3
    b1b8:	4018      	ands	r0, r3
    b1ba:	2801      	cmp	r0, #1
    b1bc:	d017      	beq.n	b1ee <sin+0x6e>
    b1be:	2802      	cmp	r0, #2
    b1c0:	d029      	beq.n	b216 <sin+0x96>
    b1c2:	2800      	cmp	r0, #0
    b1c4:	d11c      	bne.n	b200 <sin+0x80>
    b1c6:	9a03      	ldr	r2, [sp, #12]
    b1c8:	9b04      	ldr	r3, [sp, #16]
    b1ca:	2401      	movs	r4, #1
    b1cc:	9801      	ldr	r0, [sp, #4]
    b1ce:	9902      	ldr	r1, [sp, #8]
    b1d0:	9400      	str	r4, [sp, #0]
    b1d2:	f001 faad 	bl	c730 <__kernel_sin>
    b1d6:	1c03      	adds	r3, r0, #0
    b1d8:	1c0c      	adds	r4, r1, #0
    b1da:	e7e3      	b.n	b1a4 <sin+0x24>
    b1dc:	2300      	movs	r3, #0
    b1de:	9300      	str	r3, [sp, #0]
    b1e0:	4a14      	ldr	r2, [pc, #80]	; (b234 <sin+0xb4>)
    b1e2:	4b15      	ldr	r3, [pc, #84]	; (b238 <sin+0xb8>)
    b1e4:	f001 faa4 	bl	c730 <__kernel_sin>
    b1e8:	1c03      	adds	r3, r0, #0
    b1ea:	1c0c      	adds	r4, r1, #0
    b1ec:	e7da      	b.n	b1a4 <sin+0x24>
    b1ee:	9a03      	ldr	r2, [sp, #12]
    b1f0:	9b04      	ldr	r3, [sp, #16]
    b1f2:	9801      	ldr	r0, [sp, #4]
    b1f4:	9902      	ldr	r1, [sp, #8]
    b1f6:	f000 fd07 	bl	bc08 <__kernel_cos>
    b1fa:	1c03      	adds	r3, r0, #0
    b1fc:	1c0c      	adds	r4, r1, #0
    b1fe:	e7d1      	b.n	b1a4 <sin+0x24>
    b200:	9801      	ldr	r0, [sp, #4]
    b202:	9902      	ldr	r1, [sp, #8]
    b204:	9a03      	ldr	r2, [sp, #12]
    b206:	9b04      	ldr	r3, [sp, #16]
    b208:	f000 fcfe 	bl	bc08 <__kernel_cos>
    b20c:	2280      	movs	r2, #128	; 0x80
    b20e:	0612      	lsls	r2, r2, #24
    b210:	1883      	adds	r3, r0, r2
    b212:	1c0c      	adds	r4, r1, #0
    b214:	e7c6      	b.n	b1a4 <sin+0x24>
    b216:	2401      	movs	r4, #1
    b218:	9801      	ldr	r0, [sp, #4]
    b21a:	9902      	ldr	r1, [sp, #8]
    b21c:	9a03      	ldr	r2, [sp, #12]
    b21e:	9b04      	ldr	r3, [sp, #16]
    b220:	9400      	str	r4, [sp, #0]
    b222:	f001 fa85 	bl	c730 <__kernel_sin>
    b226:	e7f1      	b.n	b20c <sin+0x8c>
    b228:	7fffffff 	.word	0x7fffffff
    b22c:	3fe921fb 	.word	0x3fe921fb
    b230:	7fefffff 	.word	0x7fefffff
	...

0000b23c <atan2>:
    b23c:	b5f0      	push	{r4, r5, r6, r7, lr}
    b23e:	4657      	mov	r7, sl
    b240:	4646      	mov	r6, r8
    b242:	b4c0      	push	{r6, r7}
    b244:	b08b      	sub	sp, #44	; 0x2c
    b246:	1c1d      	adds	r5, r3, #0
    b248:	1c06      	adds	r6, r0, #0
    b24a:	1c0f      	adds	r7, r1, #0
    b24c:	1c14      	adds	r4, r2, #0
    b24e:	f000 f8bf 	bl	b3d0 <__ieee754_atan2>
    b252:	4b2a      	ldr	r3, [pc, #168]	; (b2fc <atan2+0xc0>)
    b254:	681b      	ldr	r3, [r3, #0]
    b256:	9000      	str	r0, [sp, #0]
    b258:	9101      	str	r1, [sp, #4]
    b25a:	4698      	mov	r8, r3
    b25c:	3301      	adds	r3, #1
    b25e:	d005      	beq.n	b26c <atan2+0x30>
    b260:	1c20      	adds	r0, r4, #0
    b262:	1c29      	adds	r1, r5, #0
    b264:	f001 fda6 	bl	cdb4 <isnan>
    b268:	2800      	cmp	r0, #0
    b26a:	d008      	beq.n	b27e <atan2+0x42>
    b26c:	9800      	ldr	r0, [sp, #0]
    b26e:	9901      	ldr	r1, [sp, #4]
    b270:	b00b      	add	sp, #44	; 0x2c
    b272:	bc0c      	pop	{r2, r3}
    b274:	4690      	mov	r8, r2
    b276:	469a      	mov	sl, r3
    b278:	bcf0      	pop	{r4, r5, r6, r7}
    b27a:	bc04      	pop	{r2}
    b27c:	4710      	bx	r2
    b27e:	1c30      	adds	r0, r6, #0
    b280:	1c39      	adds	r1, r7, #0
    b282:	f001 fd97 	bl	cdb4 <isnan>
    b286:	4682      	mov	sl, r0
    b288:	2800      	cmp	r0, #0
    b28a:	d1ef      	bne.n	b26c <atan2+0x30>
    b28c:	1c20      	adds	r0, r4, #0
    b28e:	1c29      	adds	r1, r5, #0
    b290:	4a1b      	ldr	r2, [pc, #108]	; (b300 <atan2+0xc4>)
    b292:	4b1c      	ldr	r3, [pc, #112]	; (b304 <atan2+0xc8>)
    b294:	f002 fb2c 	bl	d8f0 <____eqdf2_from_thumb>
    b298:	2800      	cmp	r0, #0
    b29a:	d1e7      	bne.n	b26c <atan2+0x30>
    b29c:	1c30      	adds	r0, r6, #0
    b29e:	1c39      	adds	r1, r7, #0
    b2a0:	4a17      	ldr	r2, [pc, #92]	; (b300 <atan2+0xc4>)
    b2a2:	4b18      	ldr	r3, [pc, #96]	; (b304 <atan2+0xc8>)
    b2a4:	f002 fb24 	bl	d8f0 <____eqdf2_from_thumb>
    b2a8:	2800      	cmp	r0, #0
    b2aa:	d1df      	bne.n	b26c <atan2+0x30>
    b2ac:	2301      	movs	r3, #1
    b2ae:	9302      	str	r3, [sp, #8]
    b2b0:	4b15      	ldr	r3, [pc, #84]	; (b308 <atan2+0xcc>)
    b2b2:	9406      	str	r4, [sp, #24]
    b2b4:	9507      	str	r5, [sp, #28]
    b2b6:	4654      	mov	r4, sl
    b2b8:	9303      	str	r3, [sp, #12]
    b2ba:	940a      	str	r4, [sp, #40]	; 0x28
    b2bc:	4b10      	ldr	r3, [pc, #64]	; (b300 <atan2+0xc4>)
    b2be:	4c11      	ldr	r4, [pc, #68]	; (b304 <atan2+0xc8>)
    b2c0:	9308      	str	r3, [sp, #32]
    b2c2:	9409      	str	r4, [sp, #36]	; 0x24
    b2c4:	4644      	mov	r4, r8
    b2c6:	9604      	str	r6, [sp, #16]
    b2c8:	9705      	str	r7, [sp, #20]
    b2ca:	2c02      	cmp	r4, #2
    b2cc:	d00c      	beq.n	b2e8 <atan2+0xac>
    b2ce:	a802      	add	r0, sp, #8
    b2d0:	f001 fd7e 	bl	cdd0 <matherr>
    b2d4:	2800      	cmp	r0, #0
    b2d6:	d007      	beq.n	b2e8 <atan2+0xac>
    b2d8:	9b0a      	ldr	r3, [sp, #40]	; 0x28
    b2da:	2b00      	cmp	r3, #0
    b2dc:	d109      	bne.n	b2f2 <atan2+0xb6>
    b2de:	9b08      	ldr	r3, [sp, #32]
    b2e0:	9c09      	ldr	r4, [sp, #36]	; 0x24
    b2e2:	9300      	str	r3, [sp, #0]
    b2e4:	9401      	str	r4, [sp, #4]
    b2e6:	e7c1      	b.n	b26c <atan2+0x30>
    b2e8:	f002 fac4 	bl	d874 <__errno>
    b2ec:	2321      	movs	r3, #33	; 0x21
    b2ee:	6003      	str	r3, [r0, #0]
    b2f0:	e7f2      	b.n	b2d8 <atan2+0x9c>
    b2f2:	f002 fabf 	bl	d874 <__errno>
    b2f6:	9b0a      	ldr	r3, [sp, #40]	; 0x28
    b2f8:	6003      	str	r3, [r0, #0]
    b2fa:	e7f0      	b.n	b2de <atan2+0xa2>
    b2fc:	0000dbbc 	.word	0x0000dbbc
	...
    b308:	0000d994 	.word	0x0000d994

0000b30c <sqrt>:
    b30c:	b5f0      	push	{r4, r5, r6, r7, lr}
    b30e:	4657      	mov	r7, sl
    b310:	4646      	mov	r6, r8
    b312:	b4c0      	push	{r6, r7}
    b314:	b089      	sub	sp, #36	; 0x24
    b316:	1c04      	adds	r4, r0, #0
    b318:	1c0d      	adds	r5, r1, #0
    b31a:	f000 fb89 	bl	ba30 <__ieee754_sqrt>
    b31e:	4b28      	ldr	r3, [pc, #160]	; (b3c0 <sqrt+0xb4>)
    b320:	681b      	ldr	r3, [r3, #0]
    b322:	1c06      	adds	r6, r0, #0
    b324:	1c0f      	adds	r7, r1, #0
    b326:	4698      	mov	r8, r3
    b328:	3301      	adds	r3, #1
    b32a:	d00e      	beq.n	b34a <sqrt+0x3e>
    b32c:	1c20      	adds	r0, r4, #0
    b32e:	1c29      	adds	r1, r5, #0
    b330:	f001 fd40 	bl	cdb4 <isnan>
    b334:	4682      	mov	sl, r0
    b336:	2800      	cmp	r0, #0
    b338:	d107      	bne.n	b34a <sqrt+0x3e>
    b33a:	1c20      	adds	r0, r4, #0
    b33c:	1c29      	adds	r1, r5, #0
    b33e:	4a21      	ldr	r2, [pc, #132]	; (b3c4 <sqrt+0xb8>)
    b340:	4b21      	ldr	r3, [pc, #132]	; (b3c8 <sqrt+0xbc>)
    b342:	f002 facd 	bl	d8e0 <____ltdf2_from_thumb>
    b346:	2800      	cmp	r0, #0
    b348:	db08      	blt.n	b35c <sqrt+0x50>
    b34a:	1c30      	adds	r0, r6, #0
    b34c:	1c39      	adds	r1, r7, #0
    b34e:	b009      	add	sp, #36	; 0x24
    b350:	bc0c      	pop	{r2, r3}
    b352:	4690      	mov	r8, r2
    b354:	469a      	mov	sl, r3
    b356:	bcf0      	pop	{r4, r5, r6, r7}
    b358:	bc04      	pop	{r2}
    b35a:	4710      	bx	r2
    b35c:	2301      	movs	r3, #1
    b35e:	9300      	str	r3, [sp, #0]
    b360:	4b1a      	ldr	r3, [pc, #104]	; (b3cc <sqrt+0xc0>)
    b362:	9404      	str	r4, [sp, #16]
    b364:	9505      	str	r5, [sp, #20]
    b366:	9301      	str	r3, [sp, #4]
    b368:	9402      	str	r4, [sp, #8]
    b36a:	9503      	str	r5, [sp, #12]
    b36c:	4653      	mov	r3, sl
    b36e:	4644      	mov	r4, r8
    b370:	9308      	str	r3, [sp, #32]
    b372:	2c00      	cmp	r4, #0
    b374:	d10e      	bne.n	b394 <sqrt+0x88>
    b376:	4b13      	ldr	r3, [pc, #76]	; (b3c4 <sqrt+0xb8>)
    b378:	4c13      	ldr	r4, [pc, #76]	; (b3c8 <sqrt+0xbc>)
    b37a:	9306      	str	r3, [sp, #24]
    b37c:	9407      	str	r4, [sp, #28]
    b37e:	4668      	mov	r0, sp
    b380:	f001 fd26 	bl	cdd0 <matherr>
    b384:	2800      	cmp	r0, #0
    b386:	d010      	beq.n	b3aa <sqrt+0x9e>
    b388:	9b08      	ldr	r3, [sp, #32]
    b38a:	2b00      	cmp	r3, #0
    b38c:	d112      	bne.n	b3b4 <sqrt+0xa8>
    b38e:	9e06      	ldr	r6, [sp, #24]
    b390:	9f07      	ldr	r7, [sp, #28]
    b392:	e7da      	b.n	b34a <sqrt+0x3e>
    b394:	480b      	ldr	r0, [pc, #44]	; (b3c4 <sqrt+0xb8>)
    b396:	490c      	ldr	r1, [pc, #48]	; (b3c8 <sqrt+0xbc>)
    b398:	1c02      	adds	r2, r0, #0
    b39a:	1c0b      	adds	r3, r1, #0
    b39c:	f002 faa4 	bl	d8e8 <____divdf3_from_thumb>
    b3a0:	4644      	mov	r4, r8
    b3a2:	9006      	str	r0, [sp, #24]
    b3a4:	9107      	str	r1, [sp, #28]
    b3a6:	2c02      	cmp	r4, #2
    b3a8:	d1e9      	bne.n	b37e <sqrt+0x72>
    b3aa:	f002 fa63 	bl	d874 <__errno>
    b3ae:	2321      	movs	r3, #33	; 0x21
    b3b0:	6003      	str	r3, [r0, #0]
    b3b2:	e7e9      	b.n	b388 <sqrt+0x7c>
    b3b4:	f002 fa5e 	bl	d874 <__errno>
    b3b8:	9b08      	ldr	r3, [sp, #32]
    b3ba:	6003      	str	r3, [r0, #0]
    b3bc:	e7e7      	b.n	b38e <sqrt+0x82>
    b3be:	46c0      	nop			; (mov r8, r8)
    b3c0:	0000dbbc 	.word	0x0000dbbc
	...
    b3cc:	0000d99c 	.word	0x0000d99c

0000b3d0 <__ieee754_atan2>:
    b3d0:	b5f0      	push	{r4, r5, r6, r7, lr}
    b3d2:	4657      	mov	r7, sl
    b3d4:	464e      	mov	r6, r9
    b3d6:	4645      	mov	r5, r8
    b3d8:	b4e0      	push	{r5, r6, r7}
    b3da:	1c1c      	adds	r4, r3, #0
    b3dc:	1c0e      	adds	r6, r1, #0
    b3de:	496b      	ldr	r1, [pc, #428]	; (b58c <__ieee754_atan2+0x1bc>)
    b3e0:	b082      	sub	sp, #8
    b3e2:	1c05      	adds	r5, r0, #0
    b3e4:	1c20      	adds	r0, r4, #0
    b3e6:	9200      	str	r2, [sp, #0]
    b3e8:	9301      	str	r3, [sp, #4]
    b3ea:	4692      	mov	sl, r2
    b3ec:	4243      	negs	r3, r0
    b3ee:	400a      	ands	r2, r1
    b3f0:	4690      	mov	r8, r2
    b3f2:	4303      	orrs	r3, r0
    b3f4:	4647      	mov	r7, r8
    b3f6:	0fdb      	lsrs	r3, r3, #31
    b3f8:	433b      	orrs	r3, r7
    b3fa:	4f65      	ldr	r7, [pc, #404]	; (b590 <__ieee754_atan2+0x1c0>)
    b3fc:	468c      	mov	ip, r1
    b3fe:	42bb      	cmp	r3, r7
    b400:	d80a      	bhi.n	b418 <__ieee754_atan2+0x48>
    b402:	4273      	negs	r3, r6
    b404:	4662      	mov	r2, ip
    b406:	1c29      	adds	r1, r5, #0
    b408:	4333      	orrs	r3, r6
    b40a:	4011      	ands	r1, r2
    b40c:	0fdb      	lsrs	r3, r3, #31
    b40e:	430b      	orrs	r3, r1
    b410:	46a9      	mov	r9, r5
    b412:	468c      	mov	ip, r1
    b414:	42bb      	cmp	r3, r7
    b416:	d911      	bls.n	b43c <__ieee754_atan2+0x6c>
    b418:	1c28      	adds	r0, r5, #0
    b41a:	1c31      	adds	r1, r6, #0
    b41c:	9a00      	ldr	r2, [sp, #0]
    b41e:	9b01      	ldr	r3, [sp, #4]
    b420:	f002 fa72 	bl	d908 <____adddf3_from_thumb>
    b424:	1c05      	adds	r5, r0, #0
    b426:	1c0e      	adds	r6, r1, #0
    b428:	1c28      	adds	r0, r5, #0
    b42a:	1c31      	adds	r1, r6, #0
    b42c:	b002      	add	sp, #8
    b42e:	bc1c      	pop	{r2, r3, r4}
    b430:	4690      	mov	r8, r2
    b432:	4699      	mov	r9, r3
    b434:	46a2      	mov	sl, r4
    b436:	bcf0      	pop	{r4, r5, r6, r7}
    b438:	bc04      	pop	{r2}
    b43a:	4710      	bx	r2
    b43c:	4b55      	ldr	r3, [pc, #340]	; (b594 <__ieee754_atan2+0x1c4>)
    b43e:	4453      	add	r3, sl
    b440:	4303      	orrs	r3, r0
    b442:	d012      	beq.n	b46a <__ieee754_atan2+0x9a>
    b444:	4651      	mov	r1, sl
    b446:	178a      	asrs	r2, r1, #30
    b448:	0feb      	lsrs	r3, r5, #31
    b44a:	2102      	movs	r1, #2
    b44c:	400a      	ands	r2, r1
    b44e:	1c1f      	adds	r7, r3, #0
    b450:	4317      	orrs	r7, r2
    b452:	4662      	mov	r2, ip
    b454:	4332      	orrs	r2, r6
    b456:	d111      	bne.n	b47c <__ieee754_atan2+0xac>
    b458:	2f02      	cmp	r7, #2
    b45a:	d04a      	beq.n	b4f2 <__ieee754_atan2+0x122>
    b45c:	2f02      	cmp	r7, #2
    b45e:	dd0b      	ble.n	b478 <__ieee754_atan2+0xa8>
    b460:	2f03      	cmp	r7, #3
    b462:	d10b      	bne.n	b47c <__ieee754_atan2+0xac>
    b464:	4d4c      	ldr	r5, [pc, #304]	; (b598 <__ieee754_atan2+0x1c8>)
    b466:	4e4d      	ldr	r6, [pc, #308]	; (b59c <__ieee754_atan2+0x1cc>)
    b468:	e7de      	b.n	b428 <__ieee754_atan2+0x58>
    b46a:	1c28      	adds	r0, r5, #0
    b46c:	1c31      	adds	r1, r6, #0
    b46e:	f001 fa1f 	bl	c8b0 <atan>
    b472:	1c05      	adds	r5, r0, #0
    b474:	1c0e      	adds	r6, r1, #0
    b476:	e7d7      	b.n	b428 <__ieee754_atan2+0x58>
    b478:	2f00      	cmp	r7, #0
    b47a:	dad5      	bge.n	b428 <__ieee754_atan2+0x58>
    b47c:	4643      	mov	r3, r8
    b47e:	4303      	orrs	r3, r0
    b480:	d105      	bne.n	b48e <__ieee754_atan2+0xbe>
    b482:	464f      	mov	r7, r9
    b484:	2f00      	cmp	r7, #0
    b486:	db26      	blt.n	b4d6 <__ieee754_atan2+0x106>
    b488:	4d45      	ldr	r5, [pc, #276]	; (b5a0 <__ieee754_atan2+0x1d0>)
    b48a:	4e46      	ldr	r6, [pc, #280]	; (b5a4 <__ieee754_atan2+0x1d4>)
    b48c:	e7cc      	b.n	b428 <__ieee754_atan2+0x58>
    b48e:	4b40      	ldr	r3, [pc, #256]	; (b590 <__ieee754_atan2+0x1c0>)
    b490:	4598      	cmp	r8, r3
    b492:	d023      	beq.n	b4dc <__ieee754_atan2+0x10c>
    b494:	4b3e      	ldr	r3, [pc, #248]	; (b590 <__ieee754_atan2+0x1c0>)
    b496:	459c      	cmp	ip, r3
    b498:	d01a      	beq.n	b4d0 <__ieee754_atan2+0x100>
    b49a:	4661      	mov	r1, ip
    b49c:	4642      	mov	r2, r8
    b49e:	1a8b      	subs	r3, r1, r2
    b4a0:	151b      	asrs	r3, r3, #20
    b4a2:	2b3c      	cmp	r3, #60	; 0x3c
    b4a4:	dd2e      	ble.n	b504 <__ieee754_atan2+0x134>
    b4a6:	4b3e      	ldr	r3, [pc, #248]	; (b5a0 <__ieee754_atan2+0x1d0>)
    b4a8:	4c3e      	ldr	r4, [pc, #248]	; (b5a4 <__ieee754_atan2+0x1d4>)
    b4aa:	2f01      	cmp	r7, #1
    b4ac:	d024      	beq.n	b4f8 <__ieee754_atan2+0x128>
    b4ae:	2f02      	cmp	r7, #2
    b4b0:	d038      	beq.n	b524 <__ieee754_atan2+0x154>
    b4b2:	2f00      	cmp	r7, #0
    b4b4:	d023      	beq.n	b4fe <__ieee754_atan2+0x12e>
    b4b6:	1c18      	adds	r0, r3, #0
    b4b8:	1c21      	adds	r1, r4, #0
    b4ba:	4a3b      	ldr	r2, [pc, #236]	; (b5a8 <__ieee754_atan2+0x1d8>)
    b4bc:	4b3b      	ldr	r3, [pc, #236]	; (b5ac <__ieee754_atan2+0x1dc>)
    b4be:	f002 fa27 	bl	d910 <____subdf3_from_thumb>
    b4c2:	4a3b      	ldr	r2, [pc, #236]	; (b5b0 <__ieee754_atan2+0x1e0>)
    b4c4:	4b3b      	ldr	r3, [pc, #236]	; (b5b4 <__ieee754_atan2+0x1e4>)
    b4c6:	f002 fa23 	bl	d910 <____subdf3_from_thumb>
    b4ca:	1c05      	adds	r5, r0, #0
    b4cc:	1c0e      	adds	r6, r1, #0
    b4ce:	e7ab      	b.n	b428 <__ieee754_atan2+0x58>
    b4d0:	4648      	mov	r0, r9
    b4d2:	2800      	cmp	r0, #0
    b4d4:	dad8      	bge.n	b488 <__ieee754_atan2+0xb8>
    b4d6:	4d38      	ldr	r5, [pc, #224]	; (b5b8 <__ieee754_atan2+0x1e8>)
    b4d8:	4e38      	ldr	r6, [pc, #224]	; (b5bc <__ieee754_atan2+0x1ec>)
    b4da:	e7a5      	b.n	b428 <__ieee754_atan2+0x58>
    b4dc:	45c4      	cmp	ip, r8
    b4de:	d035      	beq.n	b54c <__ieee754_atan2+0x17c>
    b4e0:	2f01      	cmp	r7, #1
    b4e2:	d03e      	beq.n	b562 <__ieee754_atan2+0x192>
    b4e4:	2f01      	cmp	r7, #1
    b4e6:	dd3f      	ble.n	b568 <__ieee754_atan2+0x198>
    b4e8:	2f02      	cmp	r7, #2
    b4ea:	d002      	beq.n	b4f2 <__ieee754_atan2+0x122>
    b4ec:	2f03      	cmp	r7, #3
    b4ee:	d1d1      	bne.n	b494 <__ieee754_atan2+0xc4>
    b4f0:	e7b8      	b.n	b464 <__ieee754_atan2+0x94>
    b4f2:	4d2f      	ldr	r5, [pc, #188]	; (b5b0 <__ieee754_atan2+0x1e0>)
    b4f4:	4e2f      	ldr	r6, [pc, #188]	; (b5b4 <__ieee754_atan2+0x1e4>)
    b4f6:	e797      	b.n	b428 <__ieee754_atan2+0x58>
    b4f8:	2780      	movs	r7, #128	; 0x80
    b4fa:	063f      	lsls	r7, r7, #24
    b4fc:	19db      	adds	r3, r3, r7
    b4fe:	1c1d      	adds	r5, r3, #0
    b500:	1c26      	adds	r6, r4, #0
    b502:	e791      	b.n	b428 <__ieee754_atan2+0x58>
    b504:	4650      	mov	r0, sl
    b506:	2800      	cmp	r0, #0
    b508:	db1b      	blt.n	b542 <__ieee754_atan2+0x172>
    b50a:	9a00      	ldr	r2, [sp, #0]
    b50c:	9b01      	ldr	r3, [sp, #4]
    b50e:	1c28      	adds	r0, r5, #0
    b510:	1c31      	adds	r1, r6, #0
    b512:	f002 f9e9 	bl	d8e8 <____divdf3_from_thumb>
    b516:	f001 fb8b 	bl	cc30 <fabs>
    b51a:	f001 f9c9 	bl	c8b0 <atan>
    b51e:	1c03      	adds	r3, r0, #0
    b520:	1c0c      	adds	r4, r1, #0
    b522:	e7c2      	b.n	b4aa <__ieee754_atan2+0xda>
    b524:	1c18      	adds	r0, r3, #0
    b526:	1c21      	adds	r1, r4, #0
    b528:	4a1f      	ldr	r2, [pc, #124]	; (b5a8 <__ieee754_atan2+0x1d8>)
    b52a:	4b20      	ldr	r3, [pc, #128]	; (b5ac <__ieee754_atan2+0x1dc>)
    b52c:	f002 f9f0 	bl	d910 <____subdf3_from_thumb>
    b530:	1c02      	adds	r2, r0, #0
    b532:	1c0b      	adds	r3, r1, #0
    b534:	481e      	ldr	r0, [pc, #120]	; (b5b0 <__ieee754_atan2+0x1e0>)
    b536:	491f      	ldr	r1, [pc, #124]	; (b5b4 <__ieee754_atan2+0x1e4>)
    b538:	f002 f9ea 	bl	d910 <____subdf3_from_thumb>
    b53c:	1c05      	adds	r5, r0, #0
    b53e:	1c0e      	adds	r6, r1, #0
    b540:	e772      	b.n	b428 <__ieee754_atan2+0x58>
    b542:	333c      	adds	r3, #60	; 0x3c
    b544:	dae1      	bge.n	b50a <__ieee754_atan2+0x13a>
    b546:	4b1e      	ldr	r3, [pc, #120]	; (b5c0 <__ieee754_atan2+0x1f0>)
    b548:	4c1e      	ldr	r4, [pc, #120]	; (b5c4 <__ieee754_atan2+0x1f4>)
    b54a:	e7ae      	b.n	b4aa <__ieee754_atan2+0xda>
    b54c:	2f01      	cmp	r7, #1
    b54e:	d010      	beq.n	b572 <__ieee754_atan2+0x1a2>
    b550:	2f01      	cmp	r7, #1
    b552:	dd14      	ble.n	b57e <__ieee754_atan2+0x1ae>
    b554:	2f02      	cmp	r7, #2
    b556:	d00f      	beq.n	b578 <__ieee754_atan2+0x1a8>
    b558:	2f03      	cmp	r7, #3
    b55a:	d19b      	bne.n	b494 <__ieee754_atan2+0xc4>
    b55c:	4d1a      	ldr	r5, [pc, #104]	; (b5c8 <__ieee754_atan2+0x1f8>)
    b55e:	4e1b      	ldr	r6, [pc, #108]	; (b5cc <__ieee754_atan2+0x1fc>)
    b560:	e762      	b.n	b428 <__ieee754_atan2+0x58>
    b562:	4d1b      	ldr	r5, [pc, #108]	; (b5d0 <__ieee754_atan2+0x200>)
    b564:	4e1b      	ldr	r6, [pc, #108]	; (b5d4 <__ieee754_atan2+0x204>)
    b566:	e75f      	b.n	b428 <__ieee754_atan2+0x58>
    b568:	2f00      	cmp	r7, #0
    b56a:	d193      	bne.n	b494 <__ieee754_atan2+0xc4>
    b56c:	4d14      	ldr	r5, [pc, #80]	; (b5c0 <__ieee754_atan2+0x1f0>)
    b56e:	4e15      	ldr	r6, [pc, #84]	; (b5c4 <__ieee754_atan2+0x1f4>)
    b570:	e75a      	b.n	b428 <__ieee754_atan2+0x58>
    b572:	4d19      	ldr	r5, [pc, #100]	; (b5d8 <__ieee754_atan2+0x208>)
    b574:	4e19      	ldr	r6, [pc, #100]	; (b5dc <__ieee754_atan2+0x20c>)
    b576:	e757      	b.n	b428 <__ieee754_atan2+0x58>
    b578:	4d19      	ldr	r5, [pc, #100]	; (b5e0 <__ieee754_atan2+0x210>)
    b57a:	4e1a      	ldr	r6, [pc, #104]	; (b5e4 <__ieee754_atan2+0x214>)
    b57c:	e754      	b.n	b428 <__ieee754_atan2+0x58>
    b57e:	2f00      	cmp	r7, #0
    b580:	d000      	beq.n	b584 <__ieee754_atan2+0x1b4>
    b582:	e787      	b.n	b494 <__ieee754_atan2+0xc4>
    b584:	4d18      	ldr	r5, [pc, #96]	; (b5e8 <__ieee754_atan2+0x218>)
    b586:	4e19      	ldr	r6, [pc, #100]	; (b5ec <__ieee754_atan2+0x21c>)
    b588:	e74e      	b.n	b428 <__ieee754_atan2+0x58>
    b58a:	46c0      	nop			; (mov r8, r8)
    b58c:	7fffffff 	.word	0x7fffffff
    b590:	7ff00000 	.word	0x7ff00000
    b594:	c0100000 	.word	0xc0100000
    b598:	c00921fb 	.word	0xc00921fb
    b59c:	54442d18 	.word	0x54442d18
    b5a0:	3ff921fb 	.word	0x3ff921fb
    b5a4:	54442d18 	.word	0x54442d18
    b5a8:	3ca1a626 	.word	0x3ca1a626
    b5ac:	33145c07 	.word	0x33145c07
    b5b0:	400921fb 	.word	0x400921fb
    b5b4:	54442d18 	.word	0x54442d18
    b5b8:	bff921fb 	.word	0xbff921fb
    b5bc:	54442d18 	.word	0x54442d18
	...
    b5c8:	c002d97c 	.word	0xc002d97c
    b5cc:	7f3321d2 	.word	0x7f3321d2
    b5d0:	80000000 	.word	0x80000000
    b5d4:	00000000 	.word	0x00000000
    b5d8:	bfe921fb 	.word	0xbfe921fb
    b5dc:	54442d18 	.word	0x54442d18
    b5e0:	4002d97c 	.word	0x4002d97c
    b5e4:	7f3321d2 	.word	0x7f3321d2
    b5e8:	3fe921fb 	.word	0x3fe921fb
    b5ec:	54442d18 	.word	0x54442d18

0000b5f0 <__ieee754_rem_pio2>:
    b5f0:	b5f0      	push	{r4, r5, r6, r7, lr}
    b5f2:	465f      	mov	r7, fp
    b5f4:	4656      	mov	r6, sl
    b5f6:	464d      	mov	r5, r9
    b5f8:	4644      	mov	r4, r8
    b5fa:	b4f0      	push	{r4, r5, r6, r7}
    b5fc:	4bd2      	ldr	r3, [pc, #840]	; (b948 <__ieee754_rem_pio2+0x358>)
    b5fe:	1c07      	adds	r7, r0, #0
    b600:	401f      	ands	r7, r3
    b602:	4bd2      	ldr	r3, [pc, #840]	; (b94c <__ieee754_rem_pio2+0x35c>)
    b604:	b08e      	sub	sp, #56	; 0x38
    b606:	1c05      	adds	r5, r0, #0
    b608:	1c0e      	adds	r6, r1, #0
    b60a:	4690      	mov	r8, r2
    b60c:	4681      	mov	r9, r0
    b60e:	429f      	cmp	r7, r3
    b610:	dc10      	bgt.n	b634 <__ieee754_rem_pio2+0x44>
    b612:	4bcf      	ldr	r3, [pc, #828]	; (b950 <__ieee754_rem_pio2+0x360>)
    b614:	4ccf      	ldr	r4, [pc, #828]	; (b954 <__ieee754_rem_pio2+0x364>)
    b616:	6015      	str	r5, [r2, #0]
    b618:	6056      	str	r6, [r2, #4]
    b61a:	6093      	str	r3, [r2, #8]
    b61c:	60d4      	str	r4, [r2, #12]
    b61e:	469a      	mov	sl, r3
    b620:	4650      	mov	r0, sl
    b622:	b00e      	add	sp, #56	; 0x38
    b624:	bc3c      	pop	{r2, r3, r4, r5}
    b626:	4690      	mov	r8, r2
    b628:	4699      	mov	r9, r3
    b62a:	46a2      	mov	sl, r4
    b62c:	46ab      	mov	fp, r5
    b62e:	bcf0      	pop	{r4, r5, r6, r7}
    b630:	bc02      	pop	{r1}
    b632:	4708      	bx	r1
    b634:	4bc8      	ldr	r3, [pc, #800]	; (b958 <__ieee754_rem_pio2+0x368>)
    b636:	429f      	cmp	r7, r3
    b638:	dd13      	ble.n	b662 <__ieee754_rem_pio2+0x72>
    b63a:	4bc8      	ldr	r3, [pc, #800]	; (b95c <__ieee754_rem_pio2+0x36c>)
    b63c:	429f      	cmp	r7, r3
    b63e:	dd34      	ble.n	b6aa <__ieee754_rem_pio2+0xba>
    b640:	4bc7      	ldr	r3, [pc, #796]	; (b960 <__ieee754_rem_pio2+0x370>)
    b642:	429f      	cmp	r7, r3
    b644:	dc00      	bgt.n	b648 <__ieee754_rem_pio2+0x58>
    b646:	e0eb      	b.n	b820 <__ieee754_rem_pio2+0x230>
    b648:	1c2a      	adds	r2, r5, #0
    b64a:	1c33      	adds	r3, r6, #0
    b64c:	f002 f960 	bl	d910 <____subdf3_from_thumb>
    b650:	2400      	movs	r4, #0
    b652:	4642      	mov	r2, r8
    b654:	4643      	mov	r3, r8
    b656:	46a2      	mov	sl, r4
    b658:	6090      	str	r0, [r2, #8]
    b65a:	60d1      	str	r1, [r2, #12]
    b65c:	6018      	str	r0, [r3, #0]
    b65e:	6059      	str	r1, [r3, #4]
    b660:	e7de      	b.n	b620 <__ieee754_rem_pio2+0x30>
    b662:	2800      	cmp	r0, #0
    b664:	dc00      	bgt.n	b668 <__ieee754_rem_pio2+0x78>
    b666:	e0b9      	b.n	b7dc <__ieee754_rem_pio2+0x1ec>
    b668:	4abe      	ldr	r2, [pc, #760]	; (b964 <__ieee754_rem_pio2+0x374>)
    b66a:	4bbf      	ldr	r3, [pc, #764]	; (b968 <__ieee754_rem_pio2+0x378>)
    b66c:	f002 f950 	bl	d910 <____subdf3_from_thumb>
    b670:	4bbe      	ldr	r3, [pc, #760]	; (b96c <__ieee754_rem_pio2+0x37c>)
    b672:	1c04      	adds	r4, r0, #0
    b674:	1c0d      	adds	r5, r1, #0
    b676:	429f      	cmp	r7, r3
    b678:	d100      	bne.n	b67c <__ieee754_rem_pio2+0x8c>
    b67a:	e127      	b.n	b8cc <__ieee754_rem_pio2+0x2dc>
    b67c:	4abc      	ldr	r2, [pc, #752]	; (b970 <__ieee754_rem_pio2+0x380>)
    b67e:	4bbd      	ldr	r3, [pc, #756]	; (b974 <__ieee754_rem_pio2+0x384>)
    b680:	f002 f946 	bl	d910 <____subdf3_from_thumb>
    b684:	1c02      	adds	r2, r0, #0
    b686:	1c0b      	adds	r3, r1, #0
    b688:	4641      	mov	r1, r8
    b68a:	600a      	str	r2, [r1, #0]
    b68c:	604b      	str	r3, [r1, #4]
    b68e:	1c20      	adds	r0, r4, #0
    b690:	1c29      	adds	r1, r5, #0
    b692:	f002 f93d 	bl	d910 <____subdf3_from_thumb>
    b696:	4ab6      	ldr	r2, [pc, #728]	; (b970 <__ieee754_rem_pio2+0x380>)
    b698:	4bb6      	ldr	r3, [pc, #728]	; (b974 <__ieee754_rem_pio2+0x384>)
    b69a:	f002 f939 	bl	d910 <____subdf3_from_thumb>
    b69e:	2301      	movs	r3, #1
    b6a0:	4642      	mov	r2, r8
    b6a2:	469a      	mov	sl, r3
    b6a4:	6090      	str	r0, [r2, #8]
    b6a6:	60d1      	str	r1, [r2, #12]
    b6a8:	e7ba      	b.n	b620 <__ieee754_rem_pio2+0x30>
    b6aa:	f001 fac1 	bl	cc30 <fabs>
    b6ae:	4ab2      	ldr	r2, [pc, #712]	; (b978 <__ieee754_rem_pio2+0x388>)
    b6b0:	4bb2      	ldr	r3, [pc, #712]	; (b97c <__ieee754_rem_pio2+0x38c>)
    b6b2:	1c0d      	adds	r5, r1, #0
    b6b4:	1c04      	adds	r4, r0, #0
    b6b6:	f002 f923 	bl	d900 <____muldf3_from_thumb>
    b6ba:	4ab1      	ldr	r2, [pc, #708]	; (b980 <__ieee754_rem_pio2+0x390>)
    b6bc:	4bb1      	ldr	r3, [pc, #708]	; (b984 <__ieee754_rem_pio2+0x394>)
    b6be:	f002 f923 	bl	d908 <____adddf3_from_thumb>
    b6c2:	f002 f929 	bl	d918 <____fixdfsi_from_thumb>
    b6c6:	4682      	mov	sl, r0
    b6c8:	f002 f906 	bl	d8d8 <____floatsidf_from_thumb>
    b6cc:	4aae      	ldr	r2, [pc, #696]	; (b988 <__ieee754_rem_pio2+0x398>)
    b6ce:	4baf      	ldr	r3, [pc, #700]	; (b98c <__ieee754_rem_pio2+0x39c>)
    b6d0:	9004      	str	r0, [sp, #16]
    b6d2:	9105      	str	r1, [sp, #20]
    b6d4:	f002 f914 	bl	d900 <____muldf3_from_thumb>
    b6d8:	1c02      	adds	r2, r0, #0
    b6da:	1c0b      	adds	r3, r1, #0
    b6dc:	1c20      	adds	r0, r4, #0
    b6de:	1c29      	adds	r1, r5, #0
    b6e0:	f002 f912 	bl	d908 <____adddf3_from_thumb>
    b6e4:	4aa2      	ldr	r2, [pc, #648]	; (b970 <__ieee754_rem_pio2+0x380>)
    b6e6:	4ba3      	ldr	r3, [pc, #652]	; (b974 <__ieee754_rem_pio2+0x384>)
    b6e8:	9002      	str	r0, [sp, #8]
    b6ea:	9103      	str	r1, [sp, #12]
    b6ec:	9804      	ldr	r0, [sp, #16]
    b6ee:	9905      	ldr	r1, [sp, #20]
    b6f0:	f002 f906 	bl	d900 <____muldf3_from_thumb>
    b6f4:	1c0e      	adds	r6, r1, #0
    b6f6:	4651      	mov	r1, sl
    b6f8:	1c05      	adds	r5, r0, #0
    b6fa:	291f      	cmp	r1, #31
    b6fc:	dc00      	bgt.n	b700 <__ieee754_rem_pio2+0x110>
    b6fe:	e0fb      	b.n	b8f8 <__ieee754_rem_pio2+0x308>
    b700:	1c33      	adds	r3, r6, #0
    b702:	9802      	ldr	r0, [sp, #8]
    b704:	9903      	ldr	r1, [sp, #12]
    b706:	1c2a      	adds	r2, r5, #0
    b708:	f002 f902 	bl	d910 <____subdf3_from_thumb>
    b70c:	4ca0      	ldr	r4, [pc, #640]	; (b990 <__ieee754_rem_pio2+0x3a0>)
    b70e:	4643      	mov	r3, r8
    b710:	6018      	str	r0, [r3, #0]
    b712:	6059      	str	r1, [r3, #4]
    b714:	0d03      	lsrs	r3, r0, #20
    b716:	153f      	asrs	r7, r7, #20
    b718:	4023      	ands	r3, r4
    b71a:	1afb      	subs	r3, r7, r3
    b71c:	46bb      	mov	fp, r7
    b71e:	2b10      	cmp	r3, #16
    b720:	dd3e      	ble.n	b7a0 <__ieee754_rem_pio2+0x1b0>
    b722:	4a9c      	ldr	r2, [pc, #624]	; (b994 <__ieee754_rem_pio2+0x3a4>)
    b724:	4b9c      	ldr	r3, [pc, #624]	; (b998 <__ieee754_rem_pio2+0x3a8>)
    b726:	9804      	ldr	r0, [sp, #16]
    b728:	9905      	ldr	r1, [sp, #20]
    b72a:	f002 f8e9 	bl	d900 <____muldf3_from_thumb>
    b72e:	1c06      	adds	r6, r0, #0
    b730:	1c0f      	adds	r7, r1, #0
    b732:	1c32      	adds	r2, r6, #0
    b734:	1c3b      	adds	r3, r7, #0
    b736:	9802      	ldr	r0, [sp, #8]
    b738:	9903      	ldr	r1, [sp, #12]
    b73a:	f002 f8e9 	bl	d910 <____subdf3_from_thumb>
    b73e:	4a97      	ldr	r2, [pc, #604]	; (b99c <__ieee754_rem_pio2+0x3ac>)
    b740:	4b97      	ldr	r3, [pc, #604]	; (b9a0 <__ieee754_rem_pio2+0x3b0>)
    b742:	9006      	str	r0, [sp, #24]
    b744:	9107      	str	r1, [sp, #28]
    b746:	9804      	ldr	r0, [sp, #16]
    b748:	9905      	ldr	r1, [sp, #20]
    b74a:	f002 f8d9 	bl	d900 <____muldf3_from_thumb>
    b74e:	9a06      	ldr	r2, [sp, #24]
    b750:	9b07      	ldr	r3, [sp, #28]
    b752:	1c04      	adds	r4, r0, #0
    b754:	1c0d      	adds	r5, r1, #0
    b756:	9802      	ldr	r0, [sp, #8]
    b758:	9903      	ldr	r1, [sp, #12]
    b75a:	f002 f8d9 	bl	d910 <____subdf3_from_thumb>
    b75e:	1c32      	adds	r2, r6, #0
    b760:	1c3b      	adds	r3, r7, #0
    b762:	f002 f8d5 	bl	d910 <____subdf3_from_thumb>
    b766:	1c02      	adds	r2, r0, #0
    b768:	1c0b      	adds	r3, r1, #0
    b76a:	1c20      	adds	r0, r4, #0
    b76c:	1c29      	adds	r1, r5, #0
    b76e:	f002 f8cf 	bl	d910 <____subdf3_from_thumb>
    b772:	1c05      	adds	r5, r0, #0
    b774:	1c0e      	adds	r6, r1, #0
    b776:	1c2a      	adds	r2, r5, #0
    b778:	1c33      	adds	r3, r6, #0
    b77a:	9806      	ldr	r0, [sp, #24]
    b77c:	9907      	ldr	r1, [sp, #28]
    b77e:	f002 f8c7 	bl	d910 <____subdf3_from_thumb>
    b782:	4c83      	ldr	r4, [pc, #524]	; (b990 <__ieee754_rem_pio2+0x3a0>)
    b784:	4642      	mov	r2, r8
    b786:	0d03      	lsrs	r3, r0, #20
    b788:	6010      	str	r0, [r2, #0]
    b78a:	6051      	str	r1, [r2, #4]
    b78c:	4023      	ands	r3, r4
    b78e:	4659      	mov	r1, fp
    b790:	1acb      	subs	r3, r1, r3
    b792:	2b31      	cmp	r3, #49	; 0x31
    b794:	dd00      	ble.n	b798 <__ieee754_rem_pio2+0x1a8>
    b796:	e10f      	b.n	b9b8 <__ieee754_rem_pio2+0x3c8>
    b798:	9a06      	ldr	r2, [sp, #24]
    b79a:	9b07      	ldr	r3, [sp, #28]
    b79c:	9202      	str	r2, [sp, #8]
    b79e:	9303      	str	r3, [sp, #12]
    b7a0:	4644      	mov	r4, r8
    b7a2:	6822      	ldr	r2, [r4, #0]
    b7a4:	6863      	ldr	r3, [r4, #4]
    b7a6:	9802      	ldr	r0, [sp, #8]
    b7a8:	9903      	ldr	r1, [sp, #12]
    b7aa:	f002 f8b1 	bl	d910 <____subdf3_from_thumb>
    b7ae:	1c2a      	adds	r2, r5, #0
    b7b0:	1c33      	adds	r3, r6, #0
    b7b2:	f002 f8ad 	bl	d910 <____subdf3_from_thumb>
    b7b6:	4642      	mov	r2, r8
    b7b8:	464b      	mov	r3, r9
    b7ba:	6090      	str	r0, [r2, #8]
    b7bc:	60d1      	str	r1, [r2, #12]
    b7be:	2b00      	cmp	r3, #0
    b7c0:	db00      	blt.n	b7c4 <__ieee754_rem_pio2+0x1d4>
    b7c2:	e72d      	b.n	b620 <__ieee754_rem_pio2+0x30>
    b7c4:	6813      	ldr	r3, [r2, #0]
    b7c6:	2480      	movs	r4, #128	; 0x80
    b7c8:	0624      	lsls	r4, r4, #24
    b7ca:	191b      	adds	r3, r3, r4
    b7cc:	4651      	mov	r1, sl
    b7ce:	6013      	str	r3, [r2, #0]
    b7d0:	6893      	ldr	r3, [r2, #8]
    b7d2:	4249      	negs	r1, r1
    b7d4:	191b      	adds	r3, r3, r4
    b7d6:	468a      	mov	sl, r1
    b7d8:	6093      	str	r3, [r2, #8]
    b7da:	e721      	b.n	b620 <__ieee754_rem_pio2+0x30>
    b7dc:	4a61      	ldr	r2, [pc, #388]	; (b964 <__ieee754_rem_pio2+0x374>)
    b7de:	4b62      	ldr	r3, [pc, #392]	; (b968 <__ieee754_rem_pio2+0x378>)
    b7e0:	f002 f892 	bl	d908 <____adddf3_from_thumb>
    b7e4:	4b61      	ldr	r3, [pc, #388]	; (b96c <__ieee754_rem_pio2+0x37c>)
    b7e6:	1c04      	adds	r4, r0, #0
    b7e8:	1c0d      	adds	r5, r1, #0
    b7ea:	429f      	cmp	r7, r3
    b7ec:	d100      	bne.n	b7f0 <__ieee754_rem_pio2+0x200>
    b7ee:	e095      	b.n	b91c <__ieee754_rem_pio2+0x32c>
    b7f0:	4a5f      	ldr	r2, [pc, #380]	; (b970 <__ieee754_rem_pio2+0x380>)
    b7f2:	4b60      	ldr	r3, [pc, #384]	; (b974 <__ieee754_rem_pio2+0x384>)
    b7f4:	f002 f888 	bl	d908 <____adddf3_from_thumb>
    b7f8:	1c02      	adds	r2, r0, #0
    b7fa:	1c0b      	adds	r3, r1, #0
    b7fc:	4641      	mov	r1, r8
    b7fe:	600a      	str	r2, [r1, #0]
    b800:	604b      	str	r3, [r1, #4]
    b802:	1c20      	adds	r0, r4, #0
    b804:	1c29      	adds	r1, r5, #0
    b806:	f002 f883 	bl	d910 <____subdf3_from_thumb>
    b80a:	4a59      	ldr	r2, [pc, #356]	; (b970 <__ieee754_rem_pio2+0x380>)
    b80c:	4b59      	ldr	r3, [pc, #356]	; (b974 <__ieee754_rem_pio2+0x384>)
    b80e:	f002 f87b 	bl	d908 <____adddf3_from_thumb>
    b812:	2301      	movs	r3, #1
    b814:	425c      	negs	r4, r3
    b816:	4642      	mov	r2, r8
    b818:	46a2      	mov	sl, r4
    b81a:	6090      	str	r0, [r2, #8]
    b81c:	60d1      	str	r1, [r2, #12]
    b81e:	e6ff      	b.n	b620 <__ieee754_rem_pio2+0x30>
    b820:	4960      	ldr	r1, [pc, #384]	; (b9a4 <__ieee754_rem_pio2+0x3b4>)
    b822:	153a      	asrs	r2, r7, #20
    b824:	1889      	adds	r1, r1, r2
    b826:	050a      	lsls	r2, r1, #20
    b828:	1abb      	subs	r3, r7, r2
    b82a:	1c18      	adds	r0, r3, #0
    b82c:	468a      	mov	sl, r1
    b82e:	1c31      	adds	r1, r6, #0
    b830:	1c1c      	adds	r4, r3, #0
    b832:	f002 f871 	bl	d918 <____fixdfsi_from_thumb>
    b836:	f002 f84f 	bl	d8d8 <____floatsidf_from_thumb>
    b83a:	1c02      	adds	r2, r0, #0
    b83c:	1c0b      	adds	r3, r1, #0
    b83e:	1c20      	adds	r0, r4, #0
    b840:	1c31      	adds	r1, r6, #0
    b842:	9208      	str	r2, [sp, #32]
    b844:	9309      	str	r3, [sp, #36]	; 0x24
    b846:	f002 f863 	bl	d910 <____subdf3_from_thumb>
    b84a:	4a57      	ldr	r2, [pc, #348]	; (b9a8 <__ieee754_rem_pio2+0x3b8>)
    b84c:	4b57      	ldr	r3, [pc, #348]	; (b9ac <__ieee754_rem_pio2+0x3bc>)
    b84e:	f002 f857 	bl	d900 <____muldf3_from_thumb>
    b852:	1c0d      	adds	r5, r1, #0
    b854:	1c04      	adds	r4, r0, #0
    b856:	f002 f85f 	bl	d918 <____fixdfsi_from_thumb>
    b85a:	f002 f83d 	bl	d8d8 <____floatsidf_from_thumb>
    b85e:	1c02      	adds	r2, r0, #0
    b860:	1c0b      	adds	r3, r1, #0
    b862:	1c20      	adds	r0, r4, #0
    b864:	1c29      	adds	r1, r5, #0
    b866:	920a      	str	r2, [sp, #40]	; 0x28
    b868:	930b      	str	r3, [sp, #44]	; 0x2c
    b86a:	f002 f851 	bl	d910 <____subdf3_from_thumb>
    b86e:	4a4e      	ldr	r2, [pc, #312]	; (b9a8 <__ieee754_rem_pio2+0x3b8>)
    b870:	4b4e      	ldr	r3, [pc, #312]	; (b9ac <__ieee754_rem_pio2+0x3bc>)
    b872:	f002 f845 	bl	d900 <____muldf3_from_thumb>
    b876:	2603      	movs	r6, #3
    b878:	ad0c      	add	r5, sp, #48	; 0x30
    b87a:	900c      	str	r0, [sp, #48]	; 0x30
    b87c:	910d      	str	r1, [sp, #52]	; 0x34
    b87e:	e001      	b.n	b884 <__ieee754_rem_pio2+0x294>
    b880:	1c26      	adds	r6, r4, #0
    b882:	3d08      	subs	r5, #8
    b884:	6828      	ldr	r0, [r5, #0]
    b886:	6869      	ldr	r1, [r5, #4]
    b888:	4a31      	ldr	r2, [pc, #196]	; (b950 <__ieee754_rem_pio2+0x360>)
    b88a:	4b32      	ldr	r3, [pc, #200]	; (b954 <__ieee754_rem_pio2+0x364>)
    b88c:	1e74      	subs	r4, r6, #1
    b88e:	f002 f82f 	bl	d8f0 <____eqdf2_from_thumb>
    b892:	2800      	cmp	r0, #0
    b894:	d0f4      	beq.n	b880 <__ieee754_rem_pio2+0x290>
    b896:	2302      	movs	r3, #2
    b898:	9300      	str	r3, [sp, #0]
    b89a:	4b45      	ldr	r3, [pc, #276]	; (b9b0 <__ieee754_rem_pio2+0x3c0>)
    b89c:	4652      	mov	r2, sl
    b89e:	9301      	str	r3, [sp, #4]
    b8a0:	a808      	add	r0, sp, #32
    b8a2:	4641      	mov	r1, r8
    b8a4:	1c33      	adds	r3, r6, #0
    b8a6:	f000 faf5 	bl	be94 <__kernel_rem_pio2>
    b8aa:	464a      	mov	r2, r9
    b8ac:	4682      	mov	sl, r0
    b8ae:	2a00      	cmp	r2, #0
    b8b0:	db00      	blt.n	b8b4 <__ieee754_rem_pio2+0x2c4>
    b8b2:	e6b5      	b.n	b620 <__ieee754_rem_pio2+0x30>
    b8b4:	4644      	mov	r4, r8
    b8b6:	6823      	ldr	r3, [r4, #0]
    b8b8:	2180      	movs	r1, #128	; 0x80
    b8ba:	0609      	lsls	r1, r1, #24
    b8bc:	185b      	adds	r3, r3, r1
    b8be:	6023      	str	r3, [r4, #0]
    b8c0:	68a3      	ldr	r3, [r4, #8]
    b8c2:	4242      	negs	r2, r0
    b8c4:	185b      	adds	r3, r3, r1
    b8c6:	4692      	mov	sl, r2
    b8c8:	60a3      	str	r3, [r4, #8]
    b8ca:	e6a9      	b.n	b620 <__ieee754_rem_pio2+0x30>
    b8cc:	4a31      	ldr	r2, [pc, #196]	; (b994 <__ieee754_rem_pio2+0x3a4>)
    b8ce:	4b32      	ldr	r3, [pc, #200]	; (b998 <__ieee754_rem_pio2+0x3a8>)
    b8d0:	f002 f81e 	bl	d910 <____subdf3_from_thumb>
    b8d4:	4a31      	ldr	r2, [pc, #196]	; (b99c <__ieee754_rem_pio2+0x3ac>)
    b8d6:	4b32      	ldr	r3, [pc, #200]	; (b9a0 <__ieee754_rem_pio2+0x3b0>)
    b8d8:	1c04      	adds	r4, r0, #0
    b8da:	1c0d      	adds	r5, r1, #0
    b8dc:	f002 f818 	bl	d910 <____subdf3_from_thumb>
    b8e0:	1c02      	adds	r2, r0, #0
    b8e2:	1c0b      	adds	r3, r1, #0
    b8e4:	4641      	mov	r1, r8
    b8e6:	600a      	str	r2, [r1, #0]
    b8e8:	604b      	str	r3, [r1, #4]
    b8ea:	1c20      	adds	r0, r4, #0
    b8ec:	1c29      	adds	r1, r5, #0
    b8ee:	f002 f80f 	bl	d910 <____subdf3_from_thumb>
    b8f2:	4a2a      	ldr	r2, [pc, #168]	; (b99c <__ieee754_rem_pio2+0x3ac>)
    b8f4:	4b2a      	ldr	r3, [pc, #168]	; (b9a0 <__ieee754_rem_pio2+0x3b0>)
    b8f6:	e6d0      	b.n	b69a <__ieee754_rem_pio2+0xaa>
    b8f8:	4b2e      	ldr	r3, [pc, #184]	; (b9b4 <__ieee754_rem_pio2+0x3c4>)
    b8fa:	008a      	lsls	r2, r1, #2
    b8fc:	18d2      	adds	r2, r2, r3
    b8fe:	3a04      	subs	r2, #4
    b900:	6813      	ldr	r3, [r2, #0]
    b902:	429f      	cmp	r7, r3
    b904:	d100      	bne.n	b908 <__ieee754_rem_pio2+0x318>
    b906:	e6fb      	b.n	b700 <__ieee754_rem_pio2+0x110>
    b908:	1c2a      	adds	r2, r5, #0
    b90a:	9802      	ldr	r0, [sp, #8]
    b90c:	9903      	ldr	r1, [sp, #12]
    b90e:	1c33      	adds	r3, r6, #0
    b910:	f001 fffe 	bl	d910 <____subdf3_from_thumb>
    b914:	4642      	mov	r2, r8
    b916:	6010      	str	r0, [r2, #0]
    b918:	6051      	str	r1, [r2, #4]
    b91a:	e741      	b.n	b7a0 <__ieee754_rem_pio2+0x1b0>
    b91c:	4a1d      	ldr	r2, [pc, #116]	; (b994 <__ieee754_rem_pio2+0x3a4>)
    b91e:	4b1e      	ldr	r3, [pc, #120]	; (b998 <__ieee754_rem_pio2+0x3a8>)
    b920:	f001 fff2 	bl	d908 <____adddf3_from_thumb>
    b924:	4a1d      	ldr	r2, [pc, #116]	; (b99c <__ieee754_rem_pio2+0x3ac>)
    b926:	4b1e      	ldr	r3, [pc, #120]	; (b9a0 <__ieee754_rem_pio2+0x3b0>)
    b928:	1c04      	adds	r4, r0, #0
    b92a:	1c0d      	adds	r5, r1, #0
    b92c:	f001 ffec 	bl	d908 <____adddf3_from_thumb>
    b930:	1c02      	adds	r2, r0, #0
    b932:	1c0b      	adds	r3, r1, #0
    b934:	4641      	mov	r1, r8
    b936:	600a      	str	r2, [r1, #0]
    b938:	604b      	str	r3, [r1, #4]
    b93a:	1c20      	adds	r0, r4, #0
    b93c:	1c29      	adds	r1, r5, #0
    b93e:	f001 ffe7 	bl	d910 <____subdf3_from_thumb>
    b942:	4a16      	ldr	r2, [pc, #88]	; (b99c <__ieee754_rem_pio2+0x3ac>)
    b944:	4b16      	ldr	r3, [pc, #88]	; (b9a0 <__ieee754_rem_pio2+0x3b0>)
    b946:	e762      	b.n	b80e <__ieee754_rem_pio2+0x21e>
    b948:	7fffffff 	.word	0x7fffffff
    b94c:	3fe921fb 	.word	0x3fe921fb
	...
    b958:	4002d97b 	.word	0x4002d97b
    b95c:	413921fb 	.word	0x413921fb
    b960:	7fefffff 	.word	0x7fefffff
    b964:	3ff921fb 	.word	0x3ff921fb
    b968:	54400000 	.word	0x54400000
    b96c:	3ff921fb 	.word	0x3ff921fb
    b970:	3dd0b461 	.word	0x3dd0b461
    b974:	1a626331 	.word	0x1a626331
    b978:	3fe45f30 	.word	0x3fe45f30
    b97c:	6dc9c883 	.word	0x6dc9c883
    b980:	3fe00000 	.word	0x3fe00000
    b984:	00000000 	.word	0x00000000
    b988:	bff921fb 	.word	0xbff921fb
    b98c:	54400000 	.word	0x54400000
    b990:	000007ff 	.word	0x000007ff
    b994:	3dd0b461 	.word	0x3dd0b461
    b998:	1a600000 	.word	0x1a600000
    b99c:	3ba3198a 	.word	0x3ba3198a
    b9a0:	2e037073 	.word	0x2e037073
    b9a4:	fffffbea 	.word	0xfffffbea
    b9a8:	41700000 	.word	0x41700000
    b9ac:	00000000 	.word	0x00000000
    b9b0:	0000da24 	.word	0x0000da24
    b9b4:	0000d9a4 	.word	0x0000d9a4
    b9b8:	4b1a      	ldr	r3, [pc, #104]	; (ba24 <__ieee754_rem_pio2+0x434>)
    b9ba:	4a19      	ldr	r2, [pc, #100]	; (ba20 <__ieee754_rem_pio2+0x430>)
    b9bc:	9804      	ldr	r0, [sp, #16]
    b9be:	9905      	ldr	r1, [sp, #20]
    b9c0:	f001 ff9e 	bl	d900 <____muldf3_from_thumb>
    b9c4:	1c06      	adds	r6, r0, #0
    b9c6:	1c0f      	adds	r7, r1, #0
    b9c8:	1c32      	adds	r2, r6, #0
    b9ca:	1c3b      	adds	r3, r7, #0
    b9cc:	9806      	ldr	r0, [sp, #24]
    b9ce:	9907      	ldr	r1, [sp, #28]
    b9d0:	f001 ff9e 	bl	d910 <____subdf3_from_thumb>
    b9d4:	4a14      	ldr	r2, [pc, #80]	; (ba28 <__ieee754_rem_pio2+0x438>)
    b9d6:	4b15      	ldr	r3, [pc, #84]	; (ba2c <__ieee754_rem_pio2+0x43c>)
    b9d8:	9002      	str	r0, [sp, #8]
    b9da:	9103      	str	r1, [sp, #12]
    b9dc:	9804      	ldr	r0, [sp, #16]
    b9de:	9905      	ldr	r1, [sp, #20]
    b9e0:	f001 ff8e 	bl	d900 <____muldf3_from_thumb>
    b9e4:	9a02      	ldr	r2, [sp, #8]
    b9e6:	9b03      	ldr	r3, [sp, #12]
    b9e8:	1c0d      	adds	r5, r1, #0
    b9ea:	1c04      	adds	r4, r0, #0
    b9ec:	9806      	ldr	r0, [sp, #24]
    b9ee:	9907      	ldr	r1, [sp, #28]
    b9f0:	f001 ff8e 	bl	d910 <____subdf3_from_thumb>
    b9f4:	1c32      	adds	r2, r6, #0
    b9f6:	1c3b      	adds	r3, r7, #0
    b9f8:	f001 ff8a 	bl	d910 <____subdf3_from_thumb>
    b9fc:	1c02      	adds	r2, r0, #0
    b9fe:	1c0b      	adds	r3, r1, #0
    ba00:	1c20      	adds	r0, r4, #0
    ba02:	1c29      	adds	r1, r5, #0
    ba04:	f001 ff84 	bl	d910 <____subdf3_from_thumb>
    ba08:	1c05      	adds	r5, r0, #0
    ba0a:	1c0e      	adds	r6, r1, #0
    ba0c:	1c33      	adds	r3, r6, #0
    ba0e:	9802      	ldr	r0, [sp, #8]
    ba10:	9903      	ldr	r1, [sp, #12]
    ba12:	1c2a      	adds	r2, r5, #0
    ba14:	f001 ff7c 	bl	d910 <____subdf3_from_thumb>
    ba18:	4643      	mov	r3, r8
    ba1a:	6018      	str	r0, [r3, #0]
    ba1c:	6059      	str	r1, [r3, #4]
    ba1e:	e6bf      	b.n	b7a0 <__ieee754_rem_pio2+0x1b0>
    ba20:	3ba3198a 	.word	0x3ba3198a
    ba24:	2e000000 	.word	0x2e000000
    ba28:	397b839a 	.word	0x397b839a
    ba2c:	252049c1 	.word	0x252049c1

0000ba30 <__ieee754_sqrt>:
    ba30:	b5f0      	push	{r4, r5, r6, r7, lr}
    ba32:	4657      	mov	r7, sl
    ba34:	464e      	mov	r6, r9
    ba36:	4645      	mov	r5, r8
    ba38:	b4e0      	push	{r5, r6, r7}
    ba3a:	2200      	movs	r2, #0
    ba3c:	2300      	movs	r3, #0
    ba3e:	b082      	sub	sp, #8
    ba40:	9200      	str	r2, [sp, #0]
    ba42:	9301      	str	r3, [sp, #4]
    ba44:	1c05      	adds	r5, r0, #0
    ba46:	4a6b      	ldr	r2, [pc, #428]	; (bbf4 <__ieee754_sqrt+0x1c4>)
    ba48:	1c2b      	adds	r3, r5, #0
    ba4a:	1c0e      	adds	r6, r1, #0
    ba4c:	4013      	ands	r3, r2
    ba4e:	1c07      	adds	r7, r0, #0
    ba50:	1c01      	adds	r1, r0, #0
    ba52:	1c30      	adds	r0, r6, #0
    ba54:	4293      	cmp	r3, r2
    ba56:	d100      	bne.n	ba5a <__ieee754_sqrt+0x2a>
    ba58:	e0a1      	b.n	bb9e <__ieee754_sqrt+0x16e>
    ba5a:	2d00      	cmp	r5, #0
    ba5c:	dc00      	bgt.n	ba60 <__ieee754_sqrt+0x30>
    ba5e:	e0ad      	b.n	bbbc <__ieee754_sqrt+0x18c>
    ba60:	150a      	asrs	r2, r1, #20
    ba62:	2a00      	cmp	r2, #0
    ba64:	d118      	bne.n	ba98 <__ieee754_sqrt+0x68>
    ba66:	2f00      	cmp	r7, #0
    ba68:	d104      	bne.n	ba74 <__ieee754_sqrt+0x44>
    ba6a:	0ac1      	lsrs	r1, r0, #11
    ba6c:	3a15      	subs	r2, #21
    ba6e:	0540      	lsls	r0, r0, #21
    ba70:	2900      	cmp	r1, #0
    ba72:	d0fa      	beq.n	ba6a <__ieee754_sqrt+0x3a>
    ba74:	2380      	movs	r3, #128	; 0x80
    ba76:	035b      	lsls	r3, r3, #13
    ba78:	4219      	tst	r1, r3
    ba7a:	d000      	beq.n	ba7e <__ieee754_sqrt+0x4e>
    ba7c:	e0b6      	b.n	bbec <__ieee754_sqrt+0x1bc>
    ba7e:	2400      	movs	r4, #0
    ba80:	0049      	lsls	r1, r1, #1
    ba82:	3401      	adds	r4, #1
    ba84:	4219      	tst	r1, r3
    ba86:	d0fb      	beq.n	ba80 <__ieee754_sqrt+0x50>
    ba88:	2320      	movs	r3, #32
    ba8a:	1b1d      	subs	r5, r3, r4
    ba8c:	1b13      	subs	r3, r2, r4
    ba8e:	1c5a      	adds	r2, r3, #1
    ba90:	1c03      	adds	r3, r0, #0
    ba92:	40eb      	lsrs	r3, r5
    ba94:	4319      	orrs	r1, r3
    ba96:	40a0      	lsls	r0, r4
    ba98:	4b57      	ldr	r3, [pc, #348]	; (bbf8 <__ieee754_sqrt+0x1c8>)
    ba9a:	189b      	adds	r3, r3, r2
    ba9c:	4699      	mov	r9, r3
    ba9e:	4b57      	ldr	r3, [pc, #348]	; (bbfc <__ieee754_sqrt+0x1cc>)
    baa0:	1c0a      	adds	r2, r1, #0
    baa2:	401a      	ands	r2, r3
    baa4:	2380      	movs	r3, #128	; 0x80
    baa6:	035b      	lsls	r3, r3, #13
    baa8:	464c      	mov	r4, r9
    baaa:	431a      	orrs	r2, r3
    baac:	07e4      	lsls	r4, r4, #31
    baae:	d468      	bmi.n	bb82 <__ieee754_sqrt+0x152>
    bab0:	0fc3      	lsrs	r3, r0, #31
    bab2:	189b      	adds	r3, r3, r2
    bab4:	2180      	movs	r1, #128	; 0x80
    bab6:	2500      	movs	r5, #0
    bab8:	18d2      	adds	r2, r2, r3
    baba:	0040      	lsls	r0, r0, #1
    babc:	0389      	lsls	r1, r1, #14
    babe:	46aa      	mov	sl, r5
    bac0:	2600      	movs	r6, #0
    bac2:	194b      	adds	r3, r1, r5
    bac4:	4293      	cmp	r3, r2
    bac6:	dc02      	bgt.n	bace <__ieee754_sqrt+0x9e>
    bac8:	18cd      	adds	r5, r1, r3
    baca:	1ad2      	subs	r2, r2, r3
    bacc:	448a      	add	sl, r1
    bace:	0fc3      	lsrs	r3, r0, #31
    bad0:	2480      	movs	r4, #128	; 0x80
    bad2:	189b      	adds	r3, r3, r2
    bad4:	3601      	adds	r6, #1
    bad6:	0624      	lsls	r4, r4, #24
    bad8:	18d2      	adds	r2, r2, r3
    bada:	0040      	lsls	r0, r0, #1
    badc:	0849      	lsrs	r1, r1, #1
    bade:	2e16      	cmp	r6, #22
    bae0:	d1ef      	bne.n	bac2 <__ieee754_sqrt+0x92>
    bae2:	2700      	movs	r7, #0
    bae4:	46b8      	mov	r8, r7
    bae6:	2600      	movs	r6, #0
    bae8:	46a4      	mov	ip, r4
    baea:	e009      	b.n	bb00 <__ieee754_sqrt+0xd0>
    baec:	42aa      	cmp	r2, r5
    baee:	d044      	beq.n	bb7a <__ieee754_sqrt+0x14a>
    baf0:	0fc3      	lsrs	r3, r0, #31
    baf2:	189b      	adds	r3, r3, r2
    baf4:	3601      	adds	r6, #1
    baf6:	18d2      	adds	r2, r2, r3
    baf8:	0040      	lsls	r0, r0, #1
    bafa:	0864      	lsrs	r4, r4, #1
    bafc:	2e20      	cmp	r6, #32
    bafe:	d017      	beq.n	bb30 <__ieee754_sqrt+0x100>
    bb00:	19e1      	adds	r1, r4, r7
    bb02:	42aa      	cmp	r2, r5
    bb04:	ddf2      	ble.n	baec <__ieee754_sqrt+0xbc>
    bb06:	4663      	mov	r3, ip
    bb08:	400b      	ands	r3, r1
    bb0a:	190f      	adds	r7, r1, r4
    bb0c:	4563      	cmp	r3, ip
    bb0e:	d02f      	beq.n	bb70 <__ieee754_sqrt+0x140>
    bb10:	1c2b      	adds	r3, r5, #0
    bb12:	1b52      	subs	r2, r2, r5
    bb14:	4281      	cmp	r1, r0
    bb16:	d900      	bls.n	bb1a <__ieee754_sqrt+0xea>
    bb18:	3a01      	subs	r2, #1
    bb1a:	1a40      	subs	r0, r0, r1
    bb1c:	1c1d      	adds	r5, r3, #0
    bb1e:	0fc3      	lsrs	r3, r0, #31
    bb20:	189b      	adds	r3, r3, r2
    bb22:	3601      	adds	r6, #1
    bb24:	44a0      	add	r8, r4
    bb26:	18d2      	adds	r2, r2, r3
    bb28:	0040      	lsls	r0, r0, #1
    bb2a:	0864      	lsrs	r4, r4, #1
    bb2c:	2e20      	cmp	r6, #32
    bb2e:	d1e7      	bne.n	bb00 <__ieee754_sqrt+0xd0>
    bb30:	4302      	orrs	r2, r0
    bb32:	d12b      	bne.n	bb8c <__ieee754_sqrt+0x15c>
    bb34:	4644      	mov	r4, r8
    bb36:	0861      	lsrs	r1, r4, #1
    bb38:	4650      	mov	r0, sl
    bb3a:	07c0      	lsls	r0, r0, #31
    bb3c:	d502      	bpl.n	bb44 <__ieee754_sqrt+0x114>
    bb3e:	2380      	movs	r3, #128	; 0x80
    bb40:	061b      	lsls	r3, r3, #24
    bb42:	4319      	orrs	r1, r3
    bb44:	4653      	mov	r3, sl
    bb46:	4c2e      	ldr	r4, [pc, #184]	; (bc00 <__ieee754_sqrt+0x1d0>)
    bb48:	4648      	mov	r0, r9
    bb4a:	105a      	asrs	r2, r3, #1
    bb4c:	1043      	asrs	r3, r0, #1
    bb4e:	1912      	adds	r2, r2, r4
    bb50:	051b      	lsls	r3, r3, #20
    bb52:	18d3      	adds	r3, r2, r3
    bb54:	9300      	str	r3, [sp, #0]
    bb56:	9101      	str	r1, [sp, #4]
    bb58:	9d00      	ldr	r5, [sp, #0]
    bb5a:	9e01      	ldr	r6, [sp, #4]
    bb5c:	1c28      	adds	r0, r5, #0
    bb5e:	1c31      	adds	r1, r6, #0
    bb60:	b002      	add	sp, #8
    bb62:	bc1c      	pop	{r2, r3, r4}
    bb64:	4690      	mov	r8, r2
    bb66:	4699      	mov	r9, r3
    bb68:	46a2      	mov	sl, r4
    bb6a:	bcf0      	pop	{r4, r5, r6, r7}
    bb6c:	bc04      	pop	{r2}
    bb6e:	4710      	bx	r2
    bb70:	4663      	mov	r3, ip
    bb72:	421f      	tst	r7, r3
    bb74:	d1cc      	bne.n	bb10 <__ieee754_sqrt+0xe0>
    bb76:	1c6b      	adds	r3, r5, #1
    bb78:	e7cb      	b.n	bb12 <__ieee754_sqrt+0xe2>
    bb7a:	4281      	cmp	r1, r0
    bb7c:	d9c3      	bls.n	bb06 <__ieee754_sqrt+0xd6>
    bb7e:	1c15      	adds	r5, r2, #0
    bb80:	e7b6      	b.n	baf0 <__ieee754_sqrt+0xc0>
    bb82:	0fc3      	lsrs	r3, r0, #31
    bb84:	189b      	adds	r3, r3, r2
    bb86:	18d2      	adds	r2, r2, r3
    bb88:	0040      	lsls	r0, r0, #1
    bb8a:	e791      	b.n	bab0 <__ieee754_sqrt+0x80>
    bb8c:	4640      	mov	r0, r8
    bb8e:	3001      	adds	r0, #1
    bb90:	d028      	beq.n	bbe4 <__ieee754_sqrt+0x1b4>
    bb92:	2301      	movs	r3, #1
    bb94:	4644      	mov	r4, r8
    bb96:	4023      	ands	r3, r4
    bb98:	4443      	add	r3, r8
    bb9a:	0859      	lsrs	r1, r3, #1
    bb9c:	e7cc      	b.n	bb38 <__ieee754_sqrt+0x108>
    bb9e:	1c2a      	adds	r2, r5, #0
    bba0:	1c33      	adds	r3, r6, #0
    bba2:	1c28      	adds	r0, r5, #0
    bba4:	1c31      	adds	r1, r6, #0
    bba6:	f001 feab 	bl	d900 <____muldf3_from_thumb>
    bbaa:	1c02      	adds	r2, r0, #0
    bbac:	1c0b      	adds	r3, r1, #0
    bbae:	1c28      	adds	r0, r5, #0
    bbb0:	1c31      	adds	r1, r6, #0
    bbb2:	f001 fea9 	bl	d908 <____adddf3_from_thumb>
    bbb6:	1c05      	adds	r5, r0, #0
    bbb8:	1c0e      	adds	r6, r1, #0
    bbba:	e7cf      	b.n	bb5c <__ieee754_sqrt+0x12c>
    bbbc:	4b11      	ldr	r3, [pc, #68]	; (bc04 <__ieee754_sqrt+0x1d4>)
    bbbe:	402b      	ands	r3, r5
    bbc0:	4333      	orrs	r3, r6
    bbc2:	d0cb      	beq.n	bb5c <__ieee754_sqrt+0x12c>
    bbc4:	2d00      	cmp	r5, #0
    bbc6:	d100      	bne.n	bbca <__ieee754_sqrt+0x19a>
    bbc8:	e74a      	b.n	ba60 <__ieee754_sqrt+0x30>
    bbca:	1c2a      	adds	r2, r5, #0
    bbcc:	1c33      	adds	r3, r6, #0
    bbce:	1c28      	adds	r0, r5, #0
    bbd0:	1c31      	adds	r1, r6, #0
    bbd2:	f001 fe9d 	bl	d910 <____subdf3_from_thumb>
    bbd6:	1c02      	adds	r2, r0, #0
    bbd8:	1c0b      	adds	r3, r1, #0
    bbda:	f001 fe85 	bl	d8e8 <____divdf3_from_thumb>
    bbde:	1c05      	adds	r5, r0, #0
    bbe0:	1c0e      	adds	r6, r1, #0
    bbe2:	e7bb      	b.n	bb5c <__ieee754_sqrt+0x12c>
    bbe4:	2201      	movs	r2, #1
    bbe6:	4492      	add	sl, r2
    bbe8:	2100      	movs	r1, #0
    bbea:	e7a5      	b.n	bb38 <__ieee754_sqrt+0x108>
    bbec:	2400      	movs	r4, #0
    bbee:	2520      	movs	r5, #32
    bbf0:	e74c      	b.n	ba8c <__ieee754_sqrt+0x5c>
    bbf2:	46c0      	nop			; (mov r8, r8)
    bbf4:	7ff00000 	.word	0x7ff00000
    bbf8:	fffffc01 	.word	0xfffffc01
    bbfc:	000fffff 	.word	0x000fffff
    bc00:	3fe00000 	.word	0x3fe00000
    bc04:	7fffffff 	.word	0x7fffffff

0000bc08 <__kernel_cos>:
    bc08:	b5f0      	push	{r4, r5, r6, r7, lr}
    bc0a:	4647      	mov	r7, r8
    bc0c:	b480      	push	{r7}
    bc0e:	b08e      	sub	sp, #56	; 0x38
    bc10:	9204      	str	r2, [sp, #16]
    bc12:	9305      	str	r3, [sp, #20]
    bc14:	4a86      	ldr	r2, [pc, #536]	; (be30 <__kernel_cos+0x228>)
    bc16:	4b87      	ldr	r3, [pc, #540]	; (be34 <__kernel_cos+0x22c>)
    bc18:	4002      	ands	r2, r0
    bc1a:	2400      	movs	r4, #0
    bc1c:	2500      	movs	r5, #0
    bc1e:	4690      	mov	r8, r2
    bc20:	9406      	str	r4, [sp, #24]
    bc22:	9507      	str	r5, [sp, #28]
    bc24:	1c06      	adds	r6, r0, #0
    bc26:	1c0f      	adds	r7, r1, #0
    bc28:	4598      	cmp	r8, r3
    bc2a:	dd00      	ble.n	bc2e <__kernel_cos+0x26>
    bc2c:	e072      	b.n	bd14 <__kernel_cos+0x10c>
    bc2e:	f001 fe73 	bl	d918 <____fixdfsi_from_thumb>
    bc32:	2800      	cmp	r0, #0
    bc34:	d100      	bne.n	bc38 <__kernel_cos+0x30>
    bc36:	e0e7      	b.n	be08 <__kernel_cos+0x200>
    bc38:	1c32      	adds	r2, r6, #0
    bc3a:	1c3b      	adds	r3, r7, #0
    bc3c:	1c30      	adds	r0, r6, #0
    bc3e:	1c39      	adds	r1, r7, #0
    bc40:	f001 fe5e 	bl	d900 <____muldf3_from_thumb>
    bc44:	4a7c      	ldr	r2, [pc, #496]	; (be38 <__kernel_cos+0x230>)
    bc46:	4b7d      	ldr	r3, [pc, #500]	; (be3c <__kernel_cos+0x234>)
    bc48:	1c04      	adds	r4, r0, #0
    bc4a:	1c0d      	adds	r5, r1, #0
    bc4c:	f001 fe58 	bl	d900 <____muldf3_from_thumb>
    bc50:	4a7b      	ldr	r2, [pc, #492]	; (be40 <__kernel_cos+0x238>)
    bc52:	4b7c      	ldr	r3, [pc, #496]	; (be44 <__kernel_cos+0x23c>)
    bc54:	f001 fe58 	bl	d908 <____adddf3_from_thumb>
    bc58:	1c02      	adds	r2, r0, #0
    bc5a:	1c0b      	adds	r3, r1, #0
    bc5c:	1c20      	adds	r0, r4, #0
    bc5e:	1c29      	adds	r1, r5, #0
    bc60:	f001 fe4e 	bl	d900 <____muldf3_from_thumb>
    bc64:	4a78      	ldr	r2, [pc, #480]	; (be48 <__kernel_cos+0x240>)
    bc66:	4b79      	ldr	r3, [pc, #484]	; (be4c <__kernel_cos+0x244>)
    bc68:	f001 fe52 	bl	d910 <____subdf3_from_thumb>
    bc6c:	1c02      	adds	r2, r0, #0
    bc6e:	1c0b      	adds	r3, r1, #0
    bc70:	1c20      	adds	r0, r4, #0
    bc72:	1c29      	adds	r1, r5, #0
    bc74:	f001 fe44 	bl	d900 <____muldf3_from_thumb>
    bc78:	4a75      	ldr	r2, [pc, #468]	; (be50 <__kernel_cos+0x248>)
    bc7a:	4b76      	ldr	r3, [pc, #472]	; (be54 <__kernel_cos+0x24c>)
    bc7c:	f001 fe44 	bl	d908 <____adddf3_from_thumb>
    bc80:	1c02      	adds	r2, r0, #0
    bc82:	1c0b      	adds	r3, r1, #0
    bc84:	1c20      	adds	r0, r4, #0
    bc86:	1c29      	adds	r1, r5, #0
    bc88:	f001 fe3a 	bl	d900 <____muldf3_from_thumb>
    bc8c:	4a72      	ldr	r2, [pc, #456]	; (be58 <__kernel_cos+0x250>)
    bc8e:	4b73      	ldr	r3, [pc, #460]	; (be5c <__kernel_cos+0x254>)
    bc90:	f001 fe3e 	bl	d910 <____subdf3_from_thumb>
    bc94:	1c02      	adds	r2, r0, #0
    bc96:	1c0b      	adds	r3, r1, #0
    bc98:	1c20      	adds	r0, r4, #0
    bc9a:	1c29      	adds	r1, r5, #0
    bc9c:	f001 fe30 	bl	d900 <____muldf3_from_thumb>
    bca0:	4a6f      	ldr	r2, [pc, #444]	; (be60 <__kernel_cos+0x258>)
    bca2:	4b70      	ldr	r3, [pc, #448]	; (be64 <__kernel_cos+0x25c>)
    bca4:	f001 fe30 	bl	d908 <____adddf3_from_thumb>
    bca8:	1c02      	adds	r2, r0, #0
    bcaa:	1c0b      	adds	r3, r1, #0
    bcac:	1c20      	adds	r0, r4, #0
    bcae:	1c29      	adds	r1, r5, #0
    bcb0:	f001 fe26 	bl	d900 <____muldf3_from_thumb>
    bcb4:	9008      	str	r0, [sp, #32]
    bcb6:	9109      	str	r1, [sp, #36]	; 0x24
    bcb8:	1c20      	adds	r0, r4, #0
    bcba:	1c29      	adds	r1, r5, #0
    bcbc:	4a6a      	ldr	r2, [pc, #424]	; (be68 <__kernel_cos+0x260>)
    bcbe:	4b6b      	ldr	r3, [pc, #428]	; (be6c <__kernel_cos+0x264>)
    bcc0:	f001 fe1e 	bl	d900 <____muldf3_from_thumb>
    bcc4:	9a08      	ldr	r2, [sp, #32]
    bcc6:	9b09      	ldr	r3, [sp, #36]	; 0x24
    bcc8:	9002      	str	r0, [sp, #8]
    bcca:	9103      	str	r1, [sp, #12]
    bccc:	1c20      	adds	r0, r4, #0
    bcce:	1c29      	adds	r1, r5, #0
    bcd0:	f001 fe16 	bl	d900 <____muldf3_from_thumb>
    bcd4:	9a04      	ldr	r2, [sp, #16]
    bcd6:	9b05      	ldr	r3, [sp, #20]
    bcd8:	1c04      	adds	r4, r0, #0
    bcda:	1c0d      	adds	r5, r1, #0
    bcdc:	1c30      	adds	r0, r6, #0
    bcde:	1c39      	adds	r1, r7, #0
    bce0:	f001 fe0e 	bl	d900 <____muldf3_from_thumb>
    bce4:	1c02      	adds	r2, r0, #0
    bce6:	1c0b      	adds	r3, r1, #0
    bce8:	1c20      	adds	r0, r4, #0
    bcea:	1c29      	adds	r1, r5, #0
    bcec:	f001 fe10 	bl	d910 <____subdf3_from_thumb>
    bcf0:	1c02      	adds	r2, r0, #0
    bcf2:	1c0b      	adds	r3, r1, #0
    bcf4:	9802      	ldr	r0, [sp, #8]
    bcf6:	9903      	ldr	r1, [sp, #12]
    bcf8:	f001 fe0a 	bl	d910 <____subdf3_from_thumb>
    bcfc:	1c02      	adds	r2, r0, #0
    bcfe:	1c0b      	adds	r3, r1, #0
    bd00:	485b      	ldr	r0, [pc, #364]	; (be70 <__kernel_cos+0x268>)
    bd02:	495c      	ldr	r1, [pc, #368]	; (be74 <__kernel_cos+0x26c>)
    bd04:	f001 fe04 	bl	d910 <____subdf3_from_thumb>
    bd08:	b00e      	add	sp, #56	; 0x38
    bd0a:	bc04      	pop	{r2}
    bd0c:	4690      	mov	r8, r2
    bd0e:	bcf0      	pop	{r4, r5, r6, r7}
    bd10:	bc04      	pop	{r2}
    bd12:	4710      	bx	r2
    bd14:	1c32      	adds	r2, r6, #0
    bd16:	1c3b      	adds	r3, r7, #0
    bd18:	f001 fdf2 	bl	d900 <____muldf3_from_thumb>
    bd1c:	4a46      	ldr	r2, [pc, #280]	; (be38 <__kernel_cos+0x230>)
    bd1e:	4b47      	ldr	r3, [pc, #284]	; (be3c <__kernel_cos+0x234>)
    bd20:	1c04      	adds	r4, r0, #0
    bd22:	1c0d      	adds	r5, r1, #0
    bd24:	f001 fdec 	bl	d900 <____muldf3_from_thumb>
    bd28:	4a45      	ldr	r2, [pc, #276]	; (be40 <__kernel_cos+0x238>)
    bd2a:	4b46      	ldr	r3, [pc, #280]	; (be44 <__kernel_cos+0x23c>)
    bd2c:	f001 fdec 	bl	d908 <____adddf3_from_thumb>
    bd30:	1c02      	adds	r2, r0, #0
    bd32:	1c0b      	adds	r3, r1, #0
    bd34:	1c20      	adds	r0, r4, #0
    bd36:	1c29      	adds	r1, r5, #0
    bd38:	f001 fde2 	bl	d900 <____muldf3_from_thumb>
    bd3c:	4a42      	ldr	r2, [pc, #264]	; (be48 <__kernel_cos+0x240>)
    bd3e:	4b43      	ldr	r3, [pc, #268]	; (be4c <__kernel_cos+0x244>)
    bd40:	f001 fde6 	bl	d910 <____subdf3_from_thumb>
    bd44:	1c02      	adds	r2, r0, #0
    bd46:	1c0b      	adds	r3, r1, #0
    bd48:	1c20      	adds	r0, r4, #0
    bd4a:	1c29      	adds	r1, r5, #0
    bd4c:	f001 fdd8 	bl	d900 <____muldf3_from_thumb>
    bd50:	4a3f      	ldr	r2, [pc, #252]	; (be50 <__kernel_cos+0x248>)
    bd52:	4b40      	ldr	r3, [pc, #256]	; (be54 <__kernel_cos+0x24c>)
    bd54:	f001 fdd8 	bl	d908 <____adddf3_from_thumb>
    bd58:	1c02      	adds	r2, r0, #0
    bd5a:	1c0b      	adds	r3, r1, #0
    bd5c:	1c20      	adds	r0, r4, #0
    bd5e:	1c29      	adds	r1, r5, #0
    bd60:	f001 fdce 	bl	d900 <____muldf3_from_thumb>
    bd64:	4a3c      	ldr	r2, [pc, #240]	; (be58 <__kernel_cos+0x250>)
    bd66:	4b3d      	ldr	r3, [pc, #244]	; (be5c <__kernel_cos+0x254>)
    bd68:	f001 fdd2 	bl	d910 <____subdf3_from_thumb>
    bd6c:	1c02      	adds	r2, r0, #0
    bd6e:	1c0b      	adds	r3, r1, #0
    bd70:	1c20      	adds	r0, r4, #0
    bd72:	1c29      	adds	r1, r5, #0
    bd74:	f001 fdc4 	bl	d900 <____muldf3_from_thumb>
    bd78:	4a39      	ldr	r2, [pc, #228]	; (be60 <__kernel_cos+0x258>)
    bd7a:	4b3a      	ldr	r3, [pc, #232]	; (be64 <__kernel_cos+0x25c>)
    bd7c:	f001 fdc4 	bl	d908 <____adddf3_from_thumb>
    bd80:	1c0b      	adds	r3, r1, #0
    bd82:	1c02      	adds	r2, r0, #0
    bd84:	1c29      	adds	r1, r5, #0
    bd86:	1c20      	adds	r0, r4, #0
    bd88:	f001 fdba 	bl	d900 <____muldf3_from_thumb>
    bd8c:	4b3a      	ldr	r3, [pc, #232]	; (be78 <__kernel_cos+0x270>)
    bd8e:	9008      	str	r0, [sp, #32]
    bd90:	9109      	str	r1, [sp, #36]	; 0x24
    bd92:	4598      	cmp	r8, r3
    bd94:	dc00      	bgt.n	bd98 <__kernel_cos+0x190>
    bd96:	e78f      	b.n	bcb8 <__kernel_cos+0xb0>
    bd98:	4b38      	ldr	r3, [pc, #224]	; (be7c <__kernel_cos+0x274>)
    bd9a:	4598      	cmp	r8, r3
    bd9c:	dd37      	ble.n	be0e <__kernel_cos+0x206>
    bd9e:	4a38      	ldr	r2, [pc, #224]	; (be80 <__kernel_cos+0x278>)
    bda0:	4b38      	ldr	r3, [pc, #224]	; (be84 <__kernel_cos+0x27c>)
    bda2:	920a      	str	r2, [sp, #40]	; 0x28
    bda4:	930b      	str	r3, [sp, #44]	; 0x2c
    bda6:	4a38      	ldr	r2, [pc, #224]	; (be88 <__kernel_cos+0x280>)
    bda8:	4b38      	ldr	r3, [pc, #224]	; (be8c <__kernel_cos+0x284>)
    bdaa:	920c      	str	r2, [sp, #48]	; 0x30
    bdac:	930d      	str	r3, [sp, #52]	; 0x34
    bdae:	1c20      	adds	r0, r4, #0
    bdb0:	1c29      	adds	r1, r5, #0
    bdb2:	4a2d      	ldr	r2, [pc, #180]	; (be68 <__kernel_cos+0x260>)
    bdb4:	4b2d      	ldr	r3, [pc, #180]	; (be6c <__kernel_cos+0x264>)
    bdb6:	f001 fda3 	bl	d900 <____muldf3_from_thumb>
    bdba:	9a0a      	ldr	r2, [sp, #40]	; 0x28
    bdbc:	9b0b      	ldr	r3, [sp, #44]	; 0x2c
    bdbe:	f001 fda7 	bl	d910 <____subdf3_from_thumb>
    bdc2:	9a08      	ldr	r2, [sp, #32]
    bdc4:	9b09      	ldr	r3, [sp, #36]	; 0x24
    bdc6:	9000      	str	r0, [sp, #0]
    bdc8:	9101      	str	r1, [sp, #4]
    bdca:	1c20      	adds	r0, r4, #0
    bdcc:	1c29      	adds	r1, r5, #0
    bdce:	f001 fd97 	bl	d900 <____muldf3_from_thumb>
    bdd2:	9a04      	ldr	r2, [sp, #16]
    bdd4:	9b05      	ldr	r3, [sp, #20]
    bdd6:	1c04      	adds	r4, r0, #0
    bdd8:	1c0d      	adds	r5, r1, #0
    bdda:	1c30      	adds	r0, r6, #0
    bddc:	1c39      	adds	r1, r7, #0
    bdde:	f001 fd8f 	bl	d900 <____muldf3_from_thumb>
    bde2:	1c02      	adds	r2, r0, #0
    bde4:	1c0b      	adds	r3, r1, #0
    bde6:	1c20      	adds	r0, r4, #0
    bde8:	1c29      	adds	r1, r5, #0
    bdea:	f001 fd91 	bl	d910 <____subdf3_from_thumb>
    bdee:	1c02      	adds	r2, r0, #0
    bdf0:	1c0b      	adds	r3, r1, #0
    bdf2:	9800      	ldr	r0, [sp, #0]
    bdf4:	9901      	ldr	r1, [sp, #4]
    bdf6:	f001 fd8b 	bl	d910 <____subdf3_from_thumb>
    bdfa:	1c02      	adds	r2, r0, #0
    bdfc:	1c0b      	adds	r3, r1, #0
    bdfe:	980c      	ldr	r0, [sp, #48]	; 0x30
    be00:	990d      	ldr	r1, [sp, #52]	; 0x34
    be02:	f001 fd85 	bl	d910 <____subdf3_from_thumb>
    be06:	e77f      	b.n	bd08 <__kernel_cos+0x100>
    be08:	4819      	ldr	r0, [pc, #100]	; (be70 <__kernel_cos+0x268>)
    be0a:	491a      	ldr	r1, [pc, #104]	; (be74 <__kernel_cos+0x26c>)
    be0c:	e77c      	b.n	bd08 <__kernel_cos+0x100>
    be0e:	4b20      	ldr	r3, [pc, #128]	; (be90 <__kernel_cos+0x288>)
    be10:	2200      	movs	r2, #0
    be12:	4443      	add	r3, r8
    be14:	9306      	str	r3, [sp, #24]
    be16:	9207      	str	r2, [sp, #28]
    be18:	9a06      	ldr	r2, [sp, #24]
    be1a:	9b07      	ldr	r3, [sp, #28]
    be1c:	4814      	ldr	r0, [pc, #80]	; (be70 <__kernel_cos+0x268>)
    be1e:	4915      	ldr	r1, [pc, #84]	; (be74 <__kernel_cos+0x26c>)
    be20:	920a      	str	r2, [sp, #40]	; 0x28
    be22:	930b      	str	r3, [sp, #44]	; 0x2c
    be24:	f001 fd74 	bl	d910 <____subdf3_from_thumb>
    be28:	900c      	str	r0, [sp, #48]	; 0x30
    be2a:	910d      	str	r1, [sp, #52]	; 0x34
    be2c:	e7bf      	b.n	bdae <__kernel_cos+0x1a6>
    be2e:	46c0      	nop			; (mov r8, r8)
    be30:	7fffffff 	.word	0x7fffffff
    be34:	3e3fffff 	.word	0x3e3fffff
    be38:	bda8fae9 	.word	0xbda8fae9
    be3c:	be8838d4 	.word	0xbe8838d4
    be40:	3e21ee9e 	.word	0x3e21ee9e
    be44:	bdb4b1c4 	.word	0xbdb4b1c4
    be48:	3e927e4f 	.word	0x3e927e4f
    be4c:	809c52ad 	.word	0x809c52ad
    be50:	3efa01a0 	.word	0x3efa01a0
    be54:	19cb1590 	.word	0x19cb1590
    be58:	3f56c16c 	.word	0x3f56c16c
    be5c:	16c15177 	.word	0x16c15177
    be60:	3fa55555 	.word	0x3fa55555
    be64:	5555554c 	.word	0x5555554c
    be68:	3fe00000 	.word	0x3fe00000
    be6c:	00000000 	.word	0x00000000
    be70:	3ff00000 	.word	0x3ff00000
    be74:	00000000 	.word	0x00000000
    be78:	3fd33332 	.word	0x3fd33332
    be7c:	3fe90000 	.word	0x3fe90000
    be80:	3fd20000 	.word	0x3fd20000
    be84:	00000000 	.word	0x00000000
    be88:	3fe70000 	.word	0x3fe70000
    be8c:	00000000 	.word	0x00000000
    be90:	ffe00000 	.word	0xffe00000

0000be94 <__kernel_rem_pio2>:
    be94:	b5f0      	push	{r4, r5, r6, r7, lr}
    be96:	465f      	mov	r7, fp
    be98:	4656      	mov	r6, sl
    be9a:	464d      	mov	r5, r9
    be9c:	4644      	mov	r4, r8
    be9e:	b4f0      	push	{r4, r5, r6, r7}
    bea0:	4cd7      	ldr	r4, [pc, #860]	; (c200 <__kernel_rem_pio2+0x36c>)
    bea2:	44a5      	add	sp, r4
    bea4:	9303      	str	r3, [sp, #12]
    bea6:	9005      	str	r0, [sp, #20]
    bea8:	98a6      	ldr	r0, [sp, #664]	; 0x298
    beaa:	9104      	str	r1, [sp, #16]
    beac:	4bd5      	ldr	r3, [pc, #852]	; (c204 <__kernel_rem_pio2+0x370>)
    beae:	9903      	ldr	r1, [sp, #12]
    beb0:	1c14      	adds	r4, r2, #0
    beb2:	0082      	lsls	r2, r0, #2
    beb4:	58d2      	ldr	r2, [r2, r3]
    beb6:	3901      	subs	r1, #1
    beb8:	9106      	str	r1, [sp, #24]
    beba:	1ee0      	subs	r0, r4, #3
    bebc:	2118      	movs	r1, #24
    bebe:	9207      	str	r2, [sp, #28]
    bec0:	f7fb fb20 	bl	7504 <__aeabi_idiv>
    bec4:	9010      	str	r0, [sp, #64]	; 0x40
    bec6:	2800      	cmp	r0, #0
    bec8:	da00      	bge.n	becc <__kernel_rem_pio2+0x38>
    beca:	e392      	b.n	c5f2 <__kernel_rem_pio2+0x75e>
    becc:	9d10      	ldr	r5, [sp, #64]	; 0x40
    bece:	06eb      	lsls	r3, r5, #27
    bed0:	1b5b      	subs	r3, r3, r5
    bed2:	009b      	lsls	r3, r3, #2
    bed4:	195b      	adds	r3, r3, r5
    bed6:	00db      	lsls	r3, r3, #3
    bed8:	18e3      	adds	r3, r4, r3
    beda:	9e07      	ldr	r6, [sp, #28]
    bedc:	9806      	ldr	r0, [sp, #24]
    bede:	3b18      	subs	r3, #24
    bee0:	9309      	str	r3, [sp, #36]	; 0x24
    bee2:	1836      	adds	r6, r6, r0
    bee4:	46b0      	mov	r8, r6
    bee6:	d41a      	bmi.n	bf1e <__kernel_rem_pio2+0x8a>
    bee8:	1a2d      	subs	r5, r5, r0
    beea:	99a7      	ldr	r1, [sp, #668]	; 0x29c
    beec:	00ab      	lsls	r3, r5, #2
    beee:	18cc      	adds	r4, r1, r3
    bef0:	2700      	movs	r7, #0
    bef2:	ae61      	add	r6, sp, #388	; 0x184
    bef4:	e00a      	b.n	bf0c <__kernel_rem_pio2+0x78>
    bef6:	6820      	ldr	r0, [r4, #0]
    bef8:	f001 fcee 	bl	d8d8 <____floatsidf_from_thumb>
    befc:	3404      	adds	r4, #4
    befe:	6030      	str	r0, [r6, #0]
    bf00:	6071      	str	r1, [r6, #4]
    bf02:	4547      	cmp	r7, r8
    bf04:	d00b      	beq.n	bf1e <__kernel_rem_pio2+0x8a>
    bf06:	3501      	adds	r5, #1
    bf08:	3701      	adds	r7, #1
    bf0a:	3608      	adds	r6, #8
    bf0c:	2d00      	cmp	r5, #0
    bf0e:	daf2      	bge.n	bef6 <__kernel_rem_pio2+0x62>
    bf10:	48bd      	ldr	r0, [pc, #756]	; (c208 <__kernel_rem_pio2+0x374>)
    bf12:	49be      	ldr	r1, [pc, #760]	; (c20c <__kernel_rem_pio2+0x378>)
    bf14:	3404      	adds	r4, #4
    bf16:	6030      	str	r0, [r6, #0]
    bf18:	6071      	str	r1, [r6, #4]
    bf1a:	4547      	cmp	r7, r8
    bf1c:	d1f3      	bne.n	bf06 <__kernel_rem_pio2+0x72>
    bf1e:	9a07      	ldr	r2, [sp, #28]
    bf20:	2a00      	cmp	r2, #0
    bf22:	db32      	blt.n	bf8a <__kernel_rem_pio2+0xf6>
    bf24:	9d03      	ldr	r5, [sp, #12]
    bf26:	9b06      	ldr	r3, [sp, #24]
    bf28:	ac11      	add	r4, sp, #68	; 0x44
    bf2a:	1952      	adds	r2, r2, r5
    bf2c:	469a      	mov	sl, r3
    bf2e:	46a3      	mov	fp, r4
    bf30:	4691      	mov	r9, r2
    bf32:	9906      	ldr	r1, [sp, #24]
    bf34:	2900      	cmp	r1, #0
    bf36:	da00      	bge.n	bf3a <__kernel_rem_pio2+0xa6>
    bf38:	e1d4      	b.n	c2e4 <__kernel_rem_pio2+0x450>
    bf3a:	9a05      	ldr	r2, [sp, #20]
    bf3c:	4653      	mov	r3, sl
    bf3e:	4690      	mov	r8, r2
    bf40:	4cb1      	ldr	r4, [pc, #708]	; (c208 <__kernel_rem_pio2+0x374>)
    bf42:	4db2      	ldr	r5, [pc, #712]	; (c20c <__kernel_rem_pio2+0x378>)
    bf44:	00da      	lsls	r2, r3, #3
    bf46:	ab61      	add	r3, sp, #388	; 0x184
    bf48:	189f      	adds	r7, r3, r2
    bf4a:	2600      	movs	r6, #0
    bf4c:	4642      	mov	r2, r8
    bf4e:	3208      	adds	r2, #8
    bf50:	4690      	mov	r8, r2
    bf52:	3a08      	subs	r2, #8
    bf54:	ca03      	ldmia	r2!, {r0, r1}
    bf56:	683a      	ldr	r2, [r7, #0]
    bf58:	687b      	ldr	r3, [r7, #4]
    bf5a:	f001 fcd1 	bl	d900 <____muldf3_from_thumb>
    bf5e:	1c0b      	adds	r3, r1, #0
    bf60:	1c02      	adds	r2, r0, #0
    bf62:	1c29      	adds	r1, r5, #0
    bf64:	1c20      	adds	r0, r4, #0
    bf66:	f001 fccf 	bl	d908 <____adddf3_from_thumb>
    bf6a:	9b03      	ldr	r3, [sp, #12]
    bf6c:	3601      	adds	r6, #1
    bf6e:	1c04      	adds	r4, r0, #0
    bf70:	1c0d      	adds	r5, r1, #0
    bf72:	3f08      	subs	r7, #8
    bf74:	42b3      	cmp	r3, r6
    bf76:	d1e9      	bne.n	bf4c <__kernel_rem_pio2+0xb8>
    bf78:	465e      	mov	r6, fp
    bf7a:	3608      	adds	r6, #8
    bf7c:	2001      	movs	r0, #1
    bf7e:	46b3      	mov	fp, r6
    bf80:	4482      	add	sl, r0
    bf82:	3e08      	subs	r6, #8
    bf84:	c630      	stmia	r6!, {r4, r5}
    bf86:	45ca      	cmp	sl, r9
    bf88:	d1d3      	bne.n	bf32 <__kernel_rem_pio2+0x9e>
    bf8a:	9c07      	ldr	r4, [sp, #28]
    bf8c:	00a5      	lsls	r5, r4, #2
    bf8e:	9502      	str	r5, [sp, #8]
    bf90:	46a3      	mov	fp, r4
    bf92:	465e      	mov	r6, fp
    bf94:	00f2      	lsls	r2, r6, #3
    bf96:	a811      	add	r0, sp, #68	; 0x44
    bf98:	1813      	adds	r3, r2, r0
    bf9a:	4659      	mov	r1, fp
    bf9c:	681e      	ldr	r6, [r3, #0]
    bf9e:	685f      	ldr	r7, [r3, #4]
    bfa0:	2900      	cmp	r1, #0
    bfa2:	dd34      	ble.n	c00e <__kernel_rem_pio2+0x17a>
    bfa4:	1c13      	adds	r3, r2, #0
    bfa6:	2489      	movs	r4, #137	; 0x89
    bfa8:	3b08      	subs	r3, #8
    bfaa:	00a4      	lsls	r4, r4, #2
    bfac:	18c2      	adds	r2, r0, r3
    bfae:	446c      	add	r4, sp
    bfb0:	2300      	movs	r3, #0
    bfb2:	4690      	mov	r8, r2
    bfb4:	469a      	mov	sl, r3
    bfb6:	46a1      	mov	r9, r4
    bfb8:	4a95      	ldr	r2, [pc, #596]	; (c210 <__kernel_rem_pio2+0x37c>)
    bfba:	4b96      	ldr	r3, [pc, #600]	; (c214 <__kernel_rem_pio2+0x380>)
    bfbc:	1c30      	adds	r0, r6, #0
    bfbe:	1c39      	adds	r1, r7, #0
    bfc0:	f001 fc9e 	bl	d900 <____muldf3_from_thumb>
    bfc4:	f001 fca8 	bl	d918 <____fixdfsi_from_thumb>
    bfc8:	f001 fc86 	bl	d8d8 <____floatsidf_from_thumb>
    bfcc:	4a92      	ldr	r2, [pc, #584]	; (c218 <__kernel_rem_pio2+0x384>)
    bfce:	4b93      	ldr	r3, [pc, #588]	; (c21c <__kernel_rem_pio2+0x388>)
    bfd0:	1c04      	adds	r4, r0, #0
    bfd2:	1c0d      	adds	r5, r1, #0
    bfd4:	f001 fc94 	bl	d900 <____muldf3_from_thumb>
    bfd8:	1c32      	adds	r2, r6, #0
    bfda:	1c3b      	adds	r3, r7, #0
    bfdc:	f001 fc94 	bl	d908 <____adddf3_from_thumb>
    bfe0:	f001 fc9a 	bl	d918 <____fixdfsi_from_thumb>
    bfe4:	464e      	mov	r6, r9
    bfe6:	3604      	adds	r6, #4
    bfe8:	46b1      	mov	r9, r6
    bfea:	3e04      	subs	r6, #4
    bfec:	c601      	stmia	r6!, {r0}
    bfee:	1c20      	adds	r0, r4, #0
    bff0:	4644      	mov	r4, r8
    bff2:	1c29      	adds	r1, r5, #0
    bff4:	6822      	ldr	r2, [r4, #0]
    bff6:	6863      	ldr	r3, [r4, #4]
    bff8:	f001 fc86 	bl	d908 <____adddf3_from_thumb>
    bffc:	2501      	movs	r5, #1
    bffe:	1c06      	adds	r6, r0, #0
    c000:	2008      	movs	r0, #8
    c002:	4240      	negs	r0, r0
    c004:	44aa      	add	sl, r5
    c006:	1c0f      	adds	r7, r1, #0
    c008:	4480      	add	r8, r0
    c00a:	45d3      	cmp	fp, sl
    c00c:	d1d4      	bne.n	bfb8 <__kernel_rem_pio2+0x124>
    c00e:	9a09      	ldr	r2, [sp, #36]	; 0x24
    c010:	1c30      	adds	r0, r6, #0
    c012:	1c39      	adds	r1, r7, #0
    c014:	f000 fede 	bl	cdd4 <scalbn>
    c018:	4a81      	ldr	r2, [pc, #516]	; (c220 <__kernel_rem_pio2+0x38c>)
    c01a:	4b82      	ldr	r3, [pc, #520]	; (c224 <__kernel_rem_pio2+0x390>)
    c01c:	1c04      	adds	r4, r0, #0
    c01e:	1c0d      	adds	r5, r1, #0
    c020:	f001 fc6e 	bl	d900 <____muldf3_from_thumb>
    c024:	f000 fe10 	bl	cc48 <floor>
    c028:	4a7f      	ldr	r2, [pc, #508]	; (c228 <__kernel_rem_pio2+0x394>)
    c02a:	4b80      	ldr	r3, [pc, #512]	; (c22c <__kernel_rem_pio2+0x398>)
    c02c:	f001 fc68 	bl	d900 <____muldf3_from_thumb>
    c030:	1c02      	adds	r2, r0, #0
    c032:	1c0b      	adds	r3, r1, #0
    c034:	1c20      	adds	r0, r4, #0
    c036:	1c29      	adds	r1, r5, #0
    c038:	f001 fc66 	bl	d908 <____adddf3_from_thumb>
    c03c:	1c0d      	adds	r5, r1, #0
    c03e:	1c04      	adds	r4, r0, #0
    c040:	f001 fc6a 	bl	d918 <____fixdfsi_from_thumb>
    c044:	9008      	str	r0, [sp, #32]
    c046:	f001 fc47 	bl	d8d8 <____floatsidf_from_thumb>
    c04a:	1c02      	adds	r2, r0, #0
    c04c:	1c0b      	adds	r3, r1, #0
    c04e:	1c20      	adds	r0, r4, #0
    c050:	1c29      	adds	r1, r5, #0
    c052:	f001 fc5d 	bl	d910 <____subdf3_from_thumb>
    c056:	1c0d      	adds	r5, r1, #0
    c058:	9909      	ldr	r1, [sp, #36]	; 0x24
    c05a:	1c04      	adds	r4, r0, #0
    c05c:	2900      	cmp	r1, #0
    c05e:	dc00      	bgt.n	c062 <__kernel_rem_pio2+0x1ce>
    c060:	e106      	b.n	c270 <__kernel_rem_pio2+0x3dc>
    c062:	4658      	mov	r0, fp
    c064:	3801      	subs	r0, #1
    c066:	2389      	movs	r3, #137	; 0x89
    c068:	0080      	lsls	r0, r0, #2
    c06a:	009b      	lsls	r3, r3, #2
    c06c:	181b      	adds	r3, r3, r0
    c06e:	466a      	mov	r2, sp
    c070:	5899      	ldr	r1, [r3, r2]
    c072:	9e09      	ldr	r6, [sp, #36]	; 0x24
    c074:	2218      	movs	r2, #24
    c076:	1b92      	subs	r2, r2, r6
    c078:	1c0b      	adds	r3, r1, #0
    c07a:	9e08      	ldr	r6, [sp, #32]
    c07c:	4113      	asrs	r3, r2
    c07e:	18f6      	adds	r6, r6, r3
    c080:	4093      	lsls	r3, r2
    c082:	1ac9      	subs	r1, r1, r3
    c084:	2389      	movs	r3, #137	; 0x89
    c086:	009b      	lsls	r3, r3, #2
    c088:	181b      	adds	r3, r3, r0
    c08a:	9608      	str	r6, [sp, #32]
    c08c:	466a      	mov	r2, sp
    c08e:	9e09      	ldr	r6, [sp, #36]	; 0x24
    c090:	5099      	str	r1, [r3, r2]
    c092:	2317      	movs	r3, #23
    c094:	1b9b      	subs	r3, r3, r6
    c096:	4119      	asrs	r1, r3
    c098:	910a      	str	r1, [sp, #40]	; 0x28
    c09a:	980a      	ldr	r0, [sp, #40]	; 0x28
    c09c:	2800      	cmp	r0, #0
    c09e:	dd2c      	ble.n	c0fa <__kernel_rem_pio2+0x266>
    c0a0:	9908      	ldr	r1, [sp, #32]
    c0a2:	465a      	mov	r2, fp
    c0a4:	3101      	adds	r1, #1
    c0a6:	9108      	str	r1, [sp, #32]
    c0a8:	2a00      	cmp	r2, #0
    c0aa:	dc00      	bgt.n	c0ae <__kernel_rem_pio2+0x21a>
    c0ac:	e1f8      	b.n	c4a0 <__kernel_rem_pio2+0x60c>
    c0ae:	2080      	movs	r0, #128	; 0x80
    c0b0:	4e5f      	ldr	r6, [pc, #380]	; (c230 <__kernel_rem_pio2+0x39c>)
    c0b2:	2700      	movs	r7, #0
    c0b4:	2100      	movs	r1, #0
    c0b6:	aa89      	add	r2, sp, #548	; 0x224
    c0b8:	0440      	lsls	r0, r0, #17
    c0ba:	e008      	b.n	c0ce <__kernel_rem_pio2+0x23a>
    c0bc:	2b00      	cmp	r3, #0
    c0be:	d002      	beq.n	c0c6 <__kernel_rem_pio2+0x232>
    c0c0:	1ac3      	subs	r3, r0, r3
    c0c2:	6013      	str	r3, [r2, #0]
    c0c4:	2701      	movs	r7, #1
    c0c6:	3101      	adds	r1, #1
    c0c8:	3204      	adds	r2, #4
    c0ca:	458b      	cmp	fp, r1
    c0cc:	d008      	beq.n	c0e0 <__kernel_rem_pio2+0x24c>
    c0ce:	6813      	ldr	r3, [r2, #0]
    c0d0:	2f00      	cmp	r7, #0
    c0d2:	d0f3      	beq.n	c0bc <__kernel_rem_pio2+0x228>
    c0d4:	1af3      	subs	r3, r6, r3
    c0d6:	3101      	adds	r1, #1
    c0d8:	6013      	str	r3, [r2, #0]
    c0da:	3204      	adds	r2, #4
    c0dc:	458b      	cmp	fp, r1
    c0de:	d1f6      	bne.n	c0ce <__kernel_rem_pio2+0x23a>
    c0e0:	9b09      	ldr	r3, [sp, #36]	; 0x24
    c0e2:	2b00      	cmp	r3, #0
    c0e4:	dd05      	ble.n	c0f2 <__kernel_rem_pio2+0x25e>
    c0e6:	2b01      	cmp	r3, #1
    c0e8:	d100      	bne.n	c0ec <__kernel_rem_pio2+0x258>
    c0ea:	e0cd      	b.n	c288 <__kernel_rem_pio2+0x3f4>
    c0ec:	2b02      	cmp	r3, #2
    c0ee:	d100      	bne.n	c0f2 <__kernel_rem_pio2+0x25e>
    c0f0:	e0d6      	b.n	c2a0 <__kernel_rem_pio2+0x40c>
    c0f2:	9a0a      	ldr	r2, [sp, #40]	; 0x28
    c0f4:	2a02      	cmp	r2, #2
    c0f6:	d100      	bne.n	c0fa <__kernel_rem_pio2+0x266>
    c0f8:	e0a1      	b.n	c23e <__kernel_rem_pio2+0x3aa>
    c0fa:	1c20      	adds	r0, r4, #0
    c0fc:	1c29      	adds	r1, r5, #0
    c0fe:	4a42      	ldr	r2, [pc, #264]	; (c208 <__kernel_rem_pio2+0x374>)
    c100:	4b42      	ldr	r3, [pc, #264]	; (c20c <__kernel_rem_pio2+0x378>)
    c102:	f001 fbf5 	bl	d8f0 <____eqdf2_from_thumb>
    c106:	2800      	cmp	r0, #0
    c108:	d000      	beq.n	c10c <__kernel_rem_pio2+0x278>
    c10a:	e0ee      	b.n	c2ea <__kernel_rem_pio2+0x456>
    c10c:	465c      	mov	r4, fp
    c10e:	9b07      	ldr	r3, [sp, #28]
    c110:	3c01      	subs	r4, #1
    c112:	42a3      	cmp	r3, r4
    c114:	dc0d      	bgt.n	c132 <__kernel_rem_pio2+0x29e>
    c116:	00a5      	lsls	r5, r4, #2
    c118:	ae89      	add	r6, sp, #548	; 0x224
    c11a:	1971      	adds	r1, r6, r5
    c11c:	1c22      	adds	r2, r4, #0
    c11e:	680b      	ldr	r3, [r1, #0]
    c120:	4318      	orrs	r0, r3
    c122:	9b07      	ldr	r3, [sp, #28]
    c124:	3a01      	subs	r2, #1
    c126:	3904      	subs	r1, #4
    c128:	4293      	cmp	r3, r2
    c12a:	ddf8      	ble.n	c11e <__kernel_rem_pio2+0x28a>
    c12c:	2800      	cmp	r0, #0
    c12e:	d000      	beq.n	c132 <__kernel_rem_pio2+0x29e>
    c130:	e0e7      	b.n	c302 <__kernel_rem_pio2+0x46e>
    c132:	9c02      	ldr	r4, [sp, #8]
    c134:	ad89      	add	r5, sp, #548	; 0x224
    c136:	1963      	adds	r3, r4, r5
    c138:	3b04      	subs	r3, #4
    c13a:	681b      	ldr	r3, [r3, #0]
    c13c:	2b00      	cmp	r3, #0
    c13e:	d000      	beq.n	c142 <__kernel_rem_pio2+0x2ae>
    c140:	e0c6      	b.n	c2d0 <__kernel_rem_pio2+0x43c>
    c142:	9b02      	ldr	r3, [sp, #8]
    c144:	ae89      	add	r6, sp, #548	; 0x224
    c146:	3b08      	subs	r3, #8
    c148:	18f2      	adds	r2, r6, r3
    c14a:	2101      	movs	r1, #1
    c14c:	6813      	ldr	r3, [r2, #0]
    c14e:	3101      	adds	r1, #1
    c150:	3a04      	subs	r2, #4
    c152:	2b00      	cmp	r3, #0
    c154:	d0fa      	beq.n	c14c <__kernel_rem_pio2+0x2b8>
    c156:	2001      	movs	r0, #1
    c158:	4458      	add	r0, fp
    c15a:	465a      	mov	r2, fp
    c15c:	4680      	mov	r8, r0
    c15e:	1857      	adds	r7, r2, r1
    c160:	45b8      	cmp	r8, r7
    c162:	dd01      	ble.n	c168 <__kernel_rem_pio2+0x2d4>
    c164:	46bb      	mov	fp, r7
    c166:	e714      	b.n	bf92 <__kernel_rem_pio2+0xfe>
    c168:	9b10      	ldr	r3, [sp, #64]	; 0x40
    c16a:	9ca7      	ldr	r4, [sp, #668]	; 0x29c
    c16c:	445b      	add	r3, fp
    c16e:	009b      	lsls	r3, r3, #2
    c170:	9a03      	ldr	r2, [sp, #12]
    c172:	18e3      	adds	r3, r4, r3
    c174:	445a      	add	r2, fp
    c176:	3304      	adds	r3, #4
    c178:	930b      	str	r3, [sp, #44]	; 0x2c
    c17a:	ad61      	add	r5, sp, #388	; 0x184
    c17c:	00d3      	lsls	r3, r2, #3
    c17e:	18ed      	adds	r5, r5, r3
    c180:	ae11      	add	r6, sp, #68	; 0x44
    c182:	00c3      	lsls	r3, r0, #3
    c184:	18f6      	adds	r6, r6, r3
    c186:	46a9      	mov	r9, r5
    c188:	46b3      	mov	fp, r6
    c18a:	4692      	mov	sl, r2
    c18c:	990b      	ldr	r1, [sp, #44]	; 0x2c
    c18e:	6808      	ldr	r0, [r1, #0]
    c190:	f001 fba2 	bl	d8d8 <____floatsidf_from_thumb>
    c194:	9b06      	ldr	r3, [sp, #24]
    c196:	464a      	mov	r2, r9
    c198:	6010      	str	r0, [r2, #0]
    c19a:	6051      	str	r1, [r2, #4]
    c19c:	2b00      	cmp	r3, #0
    c19e:	db49      	blt.n	c234 <__kernel_rem_pio2+0x3a0>
    c1a0:	4819      	ldr	r0, [pc, #100]	; (c208 <__kernel_rem_pio2+0x374>)
    c1a2:	491a      	ldr	r1, [pc, #104]	; (c20c <__kernel_rem_pio2+0x378>)
    c1a4:	4655      	mov	r5, sl
    c1a6:	900c      	str	r0, [sp, #48]	; 0x30
    c1a8:	910d      	str	r1, [sp, #52]	; 0x34
    c1aa:	ae61      	add	r6, sp, #388	; 0x184
    c1ac:	00eb      	lsls	r3, r5, #3
    c1ae:	9c05      	ldr	r4, [sp, #20]
    c1b0:	18f5      	adds	r5, r6, r3
    c1b2:	2600      	movs	r6, #0
    c1b4:	682a      	ldr	r2, [r5, #0]
    c1b6:	686b      	ldr	r3, [r5, #4]
    c1b8:	cc03      	ldmia	r4!, {r0, r1}
    c1ba:	f001 fba1 	bl	d900 <____muldf3_from_thumb>
    c1be:	1c02      	adds	r2, r0, #0
    c1c0:	1c0b      	adds	r3, r1, #0
    c1c2:	980c      	ldr	r0, [sp, #48]	; 0x30
    c1c4:	990d      	ldr	r1, [sp, #52]	; 0x34
    c1c6:	f001 fb9f 	bl	d908 <____adddf3_from_thumb>
    c1ca:	900c      	str	r0, [sp, #48]	; 0x30
    c1cc:	910d      	str	r1, [sp, #52]	; 0x34
    c1ce:	9903      	ldr	r1, [sp, #12]
    c1d0:	3601      	adds	r6, #1
    c1d2:	3d08      	subs	r5, #8
    c1d4:	42b1      	cmp	r1, r6
    c1d6:	d1ed      	bne.n	c1b4 <__kernel_rem_pio2+0x320>
    c1d8:	465c      	mov	r4, fp
    c1da:	9e0b      	ldr	r6, [sp, #44]	; 0x2c
    c1dc:	3408      	adds	r4, #8
    c1de:	2501      	movs	r5, #1
    c1e0:	9a0c      	ldr	r2, [sp, #48]	; 0x30
    c1e2:	9b0d      	ldr	r3, [sp, #52]	; 0x34
    c1e4:	46a3      	mov	fp, r4
    c1e6:	3604      	adds	r6, #4
    c1e8:	3c08      	subs	r4, #8
    c1ea:	2008      	movs	r0, #8
    c1ec:	44a8      	add	r8, r5
    c1ee:	c40c      	stmia	r4!, {r2, r3}
    c1f0:	960b      	str	r6, [sp, #44]	; 0x2c
    c1f2:	4481      	add	r9, r0
    c1f4:	44aa      	add	sl, r5
    c1f6:	45b8      	cmp	r8, r7
    c1f8:	ddc8      	ble.n	c18c <__kernel_rem_pio2+0x2f8>
    c1fa:	46bb      	mov	fp, r7
    c1fc:	e6c9      	b.n	bf92 <__kernel_rem_pio2+0xfe>
    c1fe:	46c0      	nop			; (mov r8, r8)
    c200:	fffffd8c 	.word	0xfffffd8c
    c204:	0000db2c 	.word	0x0000db2c
	...
    c210:	3e700000 	.word	0x3e700000
    c214:	00000000 	.word	0x00000000
    c218:	c1700000 	.word	0xc1700000
    c21c:	00000000 	.word	0x00000000
    c220:	3fc00000 	.word	0x3fc00000
    c224:	00000000 	.word	0x00000000
    c228:	c0200000 	.word	0xc0200000
    c22c:	00000000 	.word	0x00000000
    c230:	00ffffff 	.word	0x00ffffff
    c234:	4d9e      	ldr	r5, [pc, #632]	; (c4b0 <__kernel_rem_pio2+0x61c>)
    c236:	4c9d      	ldr	r4, [pc, #628]	; (c4ac <__kernel_rem_pio2+0x618>)
    c238:	940c      	str	r4, [sp, #48]	; 0x30
    c23a:	950d      	str	r5, [sp, #52]	; 0x34
    c23c:	e7cc      	b.n	c1d8 <__kernel_rem_pio2+0x344>
    c23e:	1c22      	adds	r2, r4, #0
    c240:	1c2b      	adds	r3, r5, #0
    c242:	489c      	ldr	r0, [pc, #624]	; (c4b4 <__kernel_rem_pio2+0x620>)
    c244:	499c      	ldr	r1, [pc, #624]	; (c4b8 <__kernel_rem_pio2+0x624>)
    c246:	f001 fb63 	bl	d910 <____subdf3_from_thumb>
    c24a:	1c04      	adds	r4, r0, #0
    c24c:	1c0d      	adds	r5, r1, #0
    c24e:	2f00      	cmp	r7, #0
    c250:	d100      	bne.n	c254 <__kernel_rem_pio2+0x3c0>
    c252:	e752      	b.n	c0fa <__kernel_rem_pio2+0x266>
    c254:	9a09      	ldr	r2, [sp, #36]	; 0x24
    c256:	4897      	ldr	r0, [pc, #604]	; (c4b4 <__kernel_rem_pio2+0x620>)
    c258:	4997      	ldr	r1, [pc, #604]	; (c4b8 <__kernel_rem_pio2+0x624>)
    c25a:	f000 fdbb 	bl	cdd4 <scalbn>
    c25e:	1c02      	adds	r2, r0, #0
    c260:	1c0b      	adds	r3, r1, #0
    c262:	1c20      	adds	r0, r4, #0
    c264:	1c29      	adds	r1, r5, #0
    c266:	f001 fb53 	bl	d910 <____subdf3_from_thumb>
    c26a:	1c04      	adds	r4, r0, #0
    c26c:	1c0d      	adds	r5, r1, #0
    c26e:	e744      	b.n	c0fa <__kernel_rem_pio2+0x266>
    c270:	9809      	ldr	r0, [sp, #36]	; 0x24
    c272:	2800      	cmp	r0, #0
    c274:	d120      	bne.n	c2b8 <__kernel_rem_pio2+0x424>
    c276:	4659      	mov	r1, fp
    c278:	008b      	lsls	r3, r1, #2
    c27a:	aa89      	add	r2, sp, #548	; 0x224
    c27c:	189b      	adds	r3, r3, r2
    c27e:	3b04      	subs	r3, #4
    c280:	681b      	ldr	r3, [r3, #0]
    c282:	15db      	asrs	r3, r3, #23
    c284:	930a      	str	r3, [sp, #40]	; 0x28
    c286:	e708      	b.n	c09a <__kernel_rem_pio2+0x206>
    c288:	465b      	mov	r3, fp
    c28a:	3b01      	subs	r3, #1
    c28c:	2089      	movs	r0, #137	; 0x89
    c28e:	009b      	lsls	r3, r3, #2
    c290:	0080      	lsls	r0, r0, #2
    c292:	18c0      	adds	r0, r0, r3
    c294:	466e      	mov	r6, sp
    c296:	5982      	ldr	r2, [r0, r6]
    c298:	4988      	ldr	r1, [pc, #544]	; (c4bc <__kernel_rem_pio2+0x628>)
    c29a:	400a      	ands	r2, r1
    c29c:	5182      	str	r2, [r0, r6]
    c29e:	e728      	b.n	c0f2 <__kernel_rem_pio2+0x25e>
    c2a0:	465b      	mov	r3, fp
    c2a2:	3b01      	subs	r3, #1
    c2a4:	2089      	movs	r0, #137	; 0x89
    c2a6:	009b      	lsls	r3, r3, #2
    c2a8:	0080      	lsls	r0, r0, #2
    c2aa:	18c0      	adds	r0, r0, r3
    c2ac:	466e      	mov	r6, sp
    c2ae:	5982      	ldr	r2, [r0, r6]
    c2b0:	4983      	ldr	r1, [pc, #524]	; (c4c0 <__kernel_rem_pio2+0x62c>)
    c2b2:	400a      	ands	r2, r1
    c2b4:	5182      	str	r2, [r0, r6]
    c2b6:	e71c      	b.n	c0f2 <__kernel_rem_pio2+0x25e>
    c2b8:	1c20      	adds	r0, r4, #0
    c2ba:	1c29      	adds	r1, r5, #0
    c2bc:	4a81      	ldr	r2, [pc, #516]	; (c4c4 <__kernel_rem_pio2+0x630>)
    c2be:	4b82      	ldr	r3, [pc, #520]	; (c4c8 <__kernel_rem_pio2+0x634>)
    c2c0:	f001 fb1a 	bl	d8f8 <____gedf2_from_thumb>
    c2c4:	2800      	cmp	r0, #0
    c2c6:	db00      	blt.n	c2ca <__kernel_rem_pio2+0x436>
    c2c8:	e0ec      	b.n	c4a4 <__kernel_rem_pio2+0x610>
    c2ca:	2300      	movs	r3, #0
    c2cc:	930a      	str	r3, [sp, #40]	; 0x28
    c2ce:	e714      	b.n	c0fa <__kernel_rem_pio2+0x266>
    c2d0:	2001      	movs	r0, #1
    c2d2:	2101      	movs	r1, #1
    c2d4:	4458      	add	r0, fp
    c2d6:	465a      	mov	r2, fp
    c2d8:	4680      	mov	r8, r0
    c2da:	1857      	adds	r7, r2, r1
    c2dc:	45b8      	cmp	r8, r7
    c2de:	dd00      	ble.n	c2e2 <__kernel_rem_pio2+0x44e>
    c2e0:	e740      	b.n	c164 <__kernel_rem_pio2+0x2d0>
    c2e2:	e741      	b.n	c168 <__kernel_rem_pio2+0x2d4>
    c2e4:	4d72      	ldr	r5, [pc, #456]	; (c4b0 <__kernel_rem_pio2+0x61c>)
    c2e6:	4c71      	ldr	r4, [pc, #452]	; (c4ac <__kernel_rem_pio2+0x618>)
    c2e8:	e646      	b.n	bf78 <__kernel_rem_pio2+0xe4>
    c2ea:	1c20      	adds	r0, r4, #0
    c2ec:	1c29      	adds	r1, r5, #0
    c2ee:	4b70      	ldr	r3, [pc, #448]	; (c4b0 <__kernel_rem_pio2+0x61c>)
    c2f0:	4a6e      	ldr	r2, [pc, #440]	; (c4ac <__kernel_rem_pio2+0x618>)
    c2f2:	f001 fafd 	bl	d8f0 <____eqdf2_from_thumb>
    c2f6:	2800      	cmp	r0, #0
    c2f8:	d000      	beq.n	c2fc <__kernel_rem_pio2+0x468>
    c2fa:	e182      	b.n	c602 <__kernel_rem_pio2+0x76e>
    c2fc:	465c      	mov	r4, fp
    c2fe:	3c01      	subs	r4, #1
    c300:	00a5      	lsls	r5, r4, #2
    c302:	2689      	movs	r6, #137	; 0x89
    c304:	00b6      	lsls	r6, r6, #2
    c306:	9909      	ldr	r1, [sp, #36]	; 0x24
    c308:	1976      	adds	r6, r6, r5
    c30a:	466a      	mov	r2, sp
    c30c:	58b3      	ldr	r3, [r6, r2]
    c30e:	3918      	subs	r1, #24
    c310:	9109      	str	r1, [sp, #36]	; 0x24
    c312:	2b00      	cmp	r3, #0
    c314:	d000      	beq.n	c318 <__kernel_rem_pio2+0x484>
    c316:	e1ce      	b.n	c6b6 <__kernel_rem_pio2+0x822>
    c318:	1f2b      	subs	r3, r5, #4
    c31a:	a889      	add	r0, sp, #548	; 0x224
    c31c:	18c2      	adds	r2, r0, r3
    c31e:	46a3      	mov	fp, r4
    c320:	9b09      	ldr	r3, [sp, #36]	; 0x24
    c322:	3b18      	subs	r3, #24
    c324:	2101      	movs	r1, #1
    c326:	9309      	str	r3, [sp, #36]	; 0x24
    c328:	6813      	ldr	r3, [r2, #0]
    c32a:	4249      	negs	r1, r1
    c32c:	448b      	add	fp, r1
    c32e:	3a04      	subs	r2, #4
    c330:	2b00      	cmp	r3, #0
    c332:	d0f5      	beq.n	c320 <__kernel_rem_pio2+0x48c>
    c334:	485f      	ldr	r0, [pc, #380]	; (c4b4 <__kernel_rem_pio2+0x620>)
    c336:	4960      	ldr	r1, [pc, #384]	; (c4b8 <__kernel_rem_pio2+0x624>)
    c338:	9a09      	ldr	r2, [sp, #36]	; 0x24
    c33a:	f000 fd4b 	bl	cdd4 <scalbn>
    c33e:	1c04      	adds	r4, r0, #0
    c340:	4658      	mov	r0, fp
    c342:	1c0d      	adds	r5, r1, #0
    c344:	2800      	cmp	r0, #0
    c346:	db5c      	blt.n	c402 <__kernel_rem_pio2+0x56e>
    c348:	0083      	lsls	r3, r0, #2
    c34a:	a989      	add	r1, sp, #548	; 0x224
    c34c:	18c9      	adds	r1, r1, r3
    c34e:	aa11      	add	r2, sp, #68	; 0x44
    c350:	00c3      	lsls	r3, r0, #3
    c352:	4688      	mov	r8, r1
    c354:	18d7      	adds	r7, r2, r3
    c356:	465e      	mov	r6, fp
    c358:	4643      	mov	r3, r8
    c35a:	6818      	ldr	r0, [r3, #0]
    c35c:	f001 fabc 	bl	d8d8 <____floatsidf_from_thumb>
    c360:	1c22      	adds	r2, r4, #0
    c362:	1c2b      	adds	r3, r5, #0
    c364:	f001 facc 	bl	d900 <____muldf3_from_thumb>
    c368:	4a58      	ldr	r2, [pc, #352]	; (c4cc <__kernel_rem_pio2+0x638>)
    c36a:	4b59      	ldr	r3, [pc, #356]	; (c4d0 <__kernel_rem_pio2+0x63c>)
    c36c:	6038      	str	r0, [r7, #0]
    c36e:	6079      	str	r1, [r7, #4]
    c370:	1c20      	adds	r0, r4, #0
    c372:	1c29      	adds	r1, r5, #0
    c374:	f001 fac4 	bl	d900 <____muldf3_from_thumb>
    c378:	1c04      	adds	r4, r0, #0
    c37a:	2004      	movs	r0, #4
    c37c:	4240      	negs	r0, r0
    c37e:	1c0d      	adds	r5, r1, #0
    c380:	4480      	add	r8, r0
    c382:	3f08      	subs	r7, #8
    c384:	3e01      	subs	r6, #1
    c386:	d2e7      	bcs.n	c358 <__kernel_rem_pio2+0x4c4>
    c388:	2100      	movs	r1, #0
    c38a:	46d9      	mov	r9, fp
    c38c:	468a      	mov	sl, r1
    c38e:	9807      	ldr	r0, [sp, #28]
    c390:	2800      	cmp	r0, #0
    c392:	da00      	bge.n	c396 <__kernel_rem_pio2+0x502>
    c394:	e123      	b.n	c5de <__kernel_rem_pio2+0x74a>
    c396:	4652      	mov	r2, sl
    c398:	2a00      	cmp	r2, #0
    c39a:	da00      	bge.n	c39e <__kernel_rem_pio2+0x50a>
    c39c:	e124      	b.n	c5e8 <__kernel_rem_pio2+0x754>
    c39e:	464c      	mov	r4, r9
    c3a0:	00e3      	lsls	r3, r4, #3
    c3a2:	ad11      	add	r5, sp, #68	; 0x44
    c3a4:	18ed      	adds	r5, r5, r3
    c3a6:	4942      	ldr	r1, [pc, #264]	; (c4b0 <__kernel_rem_pio2+0x61c>)
    c3a8:	4840      	ldr	r0, [pc, #256]	; (c4ac <__kernel_rem_pio2+0x618>)
    c3aa:	4f4a      	ldr	r7, [pc, #296]	; (c4d4 <__kernel_rem_pio2+0x640>)
    c3ac:	46a8      	mov	r8, r5
    c3ae:	2400      	movs	r4, #0
    c3b0:	9000      	str	r0, [sp, #0]
    c3b2:	9101      	str	r1, [sp, #4]
    c3b4:	e004      	b.n	c3c0 <__kernel_rem_pio2+0x52c>
    c3b6:	2008      	movs	r0, #8
    c3b8:	3708      	adds	r7, #8
    c3ba:	4480      	add	r8, r0
    c3bc:	4554      	cmp	r4, sl
    c3be:	dc12      	bgt.n	c3e6 <__kernel_rem_pio2+0x552>
    c3c0:	4645      	mov	r5, r8
    c3c2:	682a      	ldr	r2, [r5, #0]
    c3c4:	686b      	ldr	r3, [r5, #4]
    c3c6:	6838      	ldr	r0, [r7, #0]
    c3c8:	6879      	ldr	r1, [r7, #4]
    c3ca:	f001 fa99 	bl	d900 <____muldf3_from_thumb>
    c3ce:	1c02      	adds	r2, r0, #0
    c3d0:	1c0b      	adds	r3, r1, #0
    c3d2:	9800      	ldr	r0, [sp, #0]
    c3d4:	9901      	ldr	r1, [sp, #4]
    c3d6:	f001 fa97 	bl	d908 <____adddf3_from_thumb>
    c3da:	9e07      	ldr	r6, [sp, #28]
    c3dc:	3401      	adds	r4, #1
    c3de:	9000      	str	r0, [sp, #0]
    c3e0:	9101      	str	r1, [sp, #4]
    c3e2:	42a6      	cmp	r6, r4
    c3e4:	dae7      	bge.n	c3b6 <__kernel_rem_pio2+0x522>
    c3e6:	4651      	mov	r1, sl
    c3e8:	9c00      	ldr	r4, [sp, #0]
    c3ea:	9d01      	ldr	r5, [sp, #4]
    c3ec:	00cb      	lsls	r3, r1, #3
    c3ee:	aa39      	add	r2, sp, #228	; 0xe4
    c3f0:	189b      	adds	r3, r3, r2
    c3f2:	601c      	str	r4, [r3, #0]
    c3f4:	605d      	str	r5, [r3, #4]
    c3f6:	464e      	mov	r6, r9
    c3f8:	2501      	movs	r5, #1
    c3fa:	44aa      	add	sl, r5
    c3fc:	3e01      	subs	r6, #1
    c3fe:	46b1      	mov	r9, r6
    c400:	d2c5      	bcs.n	c38e <__kernel_rem_pio2+0x4fa>
    c402:	99a6      	ldr	r1, [sp, #664]	; 0x298
    c404:	2902      	cmp	r1, #2
    c406:	dc67      	bgt.n	c4d8 <__kernel_rem_pio2+0x644>
    c408:	2901      	cmp	r1, #1
    c40a:	da00      	bge.n	c40e <__kernel_rem_pio2+0x57a>
    c40c:	e138      	b.n	c680 <__kernel_rem_pio2+0x7ec>
    c40e:	465c      	mov	r4, fp
    c410:	2c00      	cmp	r4, #0
    c412:	da00      	bge.n	c416 <__kernel_rem_pio2+0x582>
    c414:	e173      	b.n	c6fe <__kernel_rem_pio2+0x86a>
    c416:	4658      	mov	r0, fp
    c418:	00c3      	lsls	r3, r0, #3
    c41a:	a939      	add	r1, sp, #228	; 0xe4
    c41c:	18cd      	adds	r5, r1, r3
    c41e:	4b24      	ldr	r3, [pc, #144]	; (c4b0 <__kernel_rem_pio2+0x61c>)
    c420:	4a22      	ldr	r2, [pc, #136]	; (c4ac <__kernel_rem_pio2+0x618>)
    c422:	465c      	mov	r4, fp
    c424:	1c10      	adds	r0, r2, #0
    c426:	1c19      	adds	r1, r3, #0
    c428:	682a      	ldr	r2, [r5, #0]
    c42a:	686b      	ldr	r3, [r5, #4]
    c42c:	f001 fa6c 	bl	d908 <____adddf3_from_thumb>
    c430:	3d08      	subs	r5, #8
    c432:	1c02      	adds	r2, r0, #0
    c434:	1c0b      	adds	r3, r1, #0
    c436:	3c01      	subs	r4, #1
    c438:	d2f4      	bcs.n	c424 <__kernel_rem_pio2+0x590>
    c43a:	9c0a      	ldr	r4, [sp, #40]	; 0x28
    c43c:	2c00      	cmp	r4, #0
    c43e:	d000      	beq.n	c442 <__kernel_rem_pio2+0x5ae>
    c440:	e0da      	b.n	c5f8 <__kernel_rem_pio2+0x764>
    c442:	1c10      	adds	r0, r2, #0
    c444:	1c19      	adds	r1, r3, #0
    c446:	9e04      	ldr	r6, [sp, #16]
    c448:	6030      	str	r0, [r6, #0]
    c44a:	6071      	str	r1, [r6, #4]
    c44c:	9839      	ldr	r0, [sp, #228]	; 0xe4
    c44e:	993a      	ldr	r1, [sp, #232]	; 0xe8
    c450:	f001 fa5e 	bl	d910 <____subdf3_from_thumb>
    c454:	465a      	mov	r2, fp
    c456:	2a00      	cmp	r2, #0
    c458:	dd0a      	ble.n	c470 <__kernel_rem_pio2+0x5dc>
    c45a:	465e      	mov	r6, fp
    c45c:	ac39      	add	r4, sp, #228	; 0xe4
    c45e:	2501      	movs	r5, #1
    c460:	3601      	adds	r6, #1
    c462:	3408      	adds	r4, #8
    c464:	cc0c      	ldmia	r4!, {r2, r3}
    c466:	3501      	adds	r5, #1
    c468:	f001 fa4e 	bl	d908 <____adddf3_from_thumb>
    c46c:	42ae      	cmp	r6, r5
    c46e:	d1f9      	bne.n	c464 <__kernel_rem_pio2+0x5d0>
    c470:	9b0a      	ldr	r3, [sp, #40]	; 0x28
    c472:	2b00      	cmp	r3, #0
    c474:	d003      	beq.n	c47e <__kernel_rem_pio2+0x5ea>
    c476:	2580      	movs	r5, #128	; 0x80
    c478:	062d      	lsls	r5, r5, #24
    c47a:	1943      	adds	r3, r0, r5
    c47c:	1c18      	adds	r0, r3, #0
    c47e:	9e04      	ldr	r6, [sp, #16]
    c480:	60b0      	str	r0, [r6, #8]
    c482:	60f1      	str	r1, [r6, #12]
    c484:	9808      	ldr	r0, [sp, #32]
    c486:	2307      	movs	r3, #7
    c488:	4018      	ands	r0, r3
    c48a:	239d      	movs	r3, #157	; 0x9d
    c48c:	009b      	lsls	r3, r3, #2
    c48e:	449d      	add	sp, r3
    c490:	bc3c      	pop	{r2, r3, r4, r5}
    c492:	4690      	mov	r8, r2
    c494:	4699      	mov	r9, r3
    c496:	46a2      	mov	sl, r4
    c498:	46ab      	mov	fp, r5
    c49a:	bcf0      	pop	{r4, r5, r6, r7}
    c49c:	bc02      	pop	{r1}
    c49e:	4708      	bx	r1
    c4a0:	2700      	movs	r7, #0
    c4a2:	e61d      	b.n	c0e0 <__kernel_rem_pio2+0x24c>
    c4a4:	2602      	movs	r6, #2
    c4a6:	960a      	str	r6, [sp, #40]	; 0x28
    c4a8:	e5fa      	b.n	c0a0 <__kernel_rem_pio2+0x20c>
    c4aa:	46c0      	nop			; (mov r8, r8)
	...
    c4b4:	3ff00000 	.word	0x3ff00000
    c4b8:	00000000 	.word	0x00000000
    c4bc:	007fffff 	.word	0x007fffff
    c4c0:	003fffff 	.word	0x003fffff
    c4c4:	3fe00000 	.word	0x3fe00000
    c4c8:	00000000 	.word	0x00000000
    c4cc:	3e700000 	.word	0x3e700000
    c4d0:	00000000 	.word	0x00000000
    c4d4:	0000db3c 	.word	0x0000db3c
    c4d8:	9aa6      	ldr	r2, [sp, #664]	; 0x298
    c4da:	2a03      	cmp	r2, #3
    c4dc:	d1d2      	bne.n	c484 <__kernel_rem_pio2+0x5f0>
    c4de:	465d      	mov	r5, fp
    c4e0:	2d00      	cmp	r5, #0
    c4e2:	dd2c      	ble.n	c53e <__kernel_rem_pio2+0x6aa>
    c4e4:	4658      	mov	r0, fp
    c4e6:	00c3      	lsls	r3, r0, #3
    c4e8:	3b08      	subs	r3, #8
    c4ea:	a939      	add	r1, sp, #228	; 0xe4
    c4ec:	18c9      	adds	r1, r1, r3
    c4ee:	4688      	mov	r8, r1
    c4f0:	46da      	mov	sl, fp
    c4f2:	4643      	mov	r3, r8
    c4f4:	681c      	ldr	r4, [r3, #0]
    c4f6:	685d      	ldr	r5, [r3, #4]
    c4f8:	689e      	ldr	r6, [r3, #8]
    c4fa:	68df      	ldr	r7, [r3, #12]
    c4fc:	2201      	movs	r2, #1
    c4fe:	4252      	negs	r2, r2
    c500:	4492      	add	sl, r2
    c502:	1c20      	adds	r0, r4, #0
    c504:	1c29      	adds	r1, r5, #0
    c506:	1c32      	adds	r2, r6, #0
    c508:	1c3b      	adds	r3, r7, #0
    c50a:	f001 f9fd 	bl	d908 <____adddf3_from_thumb>
    c50e:	4642      	mov	r2, r8
    c510:	6010      	str	r0, [r2, #0]
    c512:	6051      	str	r1, [r2, #4]
    c514:	1c20      	adds	r0, r4, #0
    c516:	6853      	ldr	r3, [r2, #4]
    c518:	6812      	ldr	r2, [r2, #0]
    c51a:	1c29      	adds	r1, r5, #0
    c51c:	f001 f9f8 	bl	d910 <____subdf3_from_thumb>
    c520:	1c0b      	adds	r3, r1, #0
    c522:	1c02      	adds	r2, r0, #0
    c524:	1c39      	adds	r1, r7, #0
    c526:	1c30      	adds	r0, r6, #0
    c528:	f001 f9ee 	bl	d908 <____adddf3_from_thumb>
    c52c:	2408      	movs	r4, #8
    c52e:	4643      	mov	r3, r8
    c530:	4264      	negs	r4, r4
    c532:	4655      	mov	r5, sl
    c534:	6098      	str	r0, [r3, #8]
    c536:	60d9      	str	r1, [r3, #12]
    c538:	44a0      	add	r8, r4
    c53a:	2d00      	cmp	r5, #0
    c53c:	d1d9      	bne.n	c4f2 <__kernel_rem_pio2+0x65e>
    c53e:	465e      	mov	r6, fp
    c540:	2e01      	cmp	r6, #1
    c542:	dc00      	bgt.n	c546 <__kernel_rem_pio2+0x6b2>
    c544:	e0de      	b.n	c704 <__kernel_rem_pio2+0x870>
    c546:	4658      	mov	r0, fp
    c548:	00c0      	lsls	r0, r0, #3
    c54a:	1c03      	adds	r3, r0, #0
    c54c:	3b08      	subs	r3, #8
    c54e:	a939      	add	r1, sp, #228	; 0xe4
    c550:	18c9      	adds	r1, r1, r3
    c552:	4681      	mov	r9, r0
    c554:	4688      	mov	r8, r1
    c556:	46da      	mov	sl, fp
    c558:	4643      	mov	r3, r8
    c55a:	681c      	ldr	r4, [r3, #0]
    c55c:	685d      	ldr	r5, [r3, #4]
    c55e:	689e      	ldr	r6, [r3, #8]
    c560:	68df      	ldr	r7, [r3, #12]
    c562:	2201      	movs	r2, #1
    c564:	4252      	negs	r2, r2
    c566:	4492      	add	sl, r2
    c568:	1c20      	adds	r0, r4, #0
    c56a:	1c29      	adds	r1, r5, #0
    c56c:	1c32      	adds	r2, r6, #0
    c56e:	1c3b      	adds	r3, r7, #0
    c570:	f001 f9ca 	bl	d908 <____adddf3_from_thumb>
    c574:	4642      	mov	r2, r8
    c576:	6010      	str	r0, [r2, #0]
    c578:	6051      	str	r1, [r2, #4]
    c57a:	1c20      	adds	r0, r4, #0
    c57c:	6853      	ldr	r3, [r2, #4]
    c57e:	6812      	ldr	r2, [r2, #0]
    c580:	1c29      	adds	r1, r5, #0
    c582:	f001 f9c5 	bl	d910 <____subdf3_from_thumb>
    c586:	1c0b      	adds	r3, r1, #0
    c588:	1c02      	adds	r2, r0, #0
    c58a:	1c39      	adds	r1, r7, #0
    c58c:	1c30      	adds	r0, r6, #0
    c58e:	f001 f9bb 	bl	d908 <____adddf3_from_thumb>
    c592:	2408      	movs	r4, #8
    c594:	4643      	mov	r3, r8
    c596:	4264      	negs	r4, r4
    c598:	4655      	mov	r5, sl
    c59a:	6098      	str	r0, [r3, #8]
    c59c:	60d9      	str	r1, [r3, #12]
    c59e:	44a0      	add	r8, r4
    c5a0:	2d01      	cmp	r5, #1
    c5a2:	d1d9      	bne.n	c558 <__kernel_rem_pio2+0x6c4>
    c5a4:	ad39      	add	r5, sp, #228	; 0xe4
    c5a6:	495b      	ldr	r1, [pc, #364]	; (c714 <__kernel_rem_pio2+0x880>)
    c5a8:	4859      	ldr	r0, [pc, #356]	; (c710 <__kernel_rem_pio2+0x87c>)
    c5aa:	444d      	add	r5, r9
    c5ac:	465c      	mov	r4, fp
    c5ae:	682a      	ldr	r2, [r5, #0]
    c5b0:	686b      	ldr	r3, [r5, #4]
    c5b2:	3c01      	subs	r4, #1
    c5b4:	f001 f9a8 	bl	d908 <____adddf3_from_thumb>
    c5b8:	3d08      	subs	r5, #8
    c5ba:	2c01      	cmp	r4, #1
    c5bc:	d1f7      	bne.n	c5ae <__kernel_rem_pio2+0x71a>
    c5be:	9e0a      	ldr	r6, [sp, #40]	; 0x28
    c5c0:	2e00      	cmp	r6, #0
    c5c2:	d000      	beq.n	c5c6 <__kernel_rem_pio2+0x732>
    c5c4:	e085      	b.n	c6d2 <__kernel_rem_pio2+0x83e>
    c5c6:	9b39      	ldr	r3, [sp, #228]	; 0xe4
    c5c8:	9c3a      	ldr	r4, [sp, #232]	; 0xe8
    c5ca:	9a04      	ldr	r2, [sp, #16]
    c5cc:	6013      	str	r3, [r2, #0]
    c5ce:	6054      	str	r4, [r2, #4]
    c5d0:	9b3b      	ldr	r3, [sp, #236]	; 0xec
    c5d2:	9c3c      	ldr	r4, [sp, #240]	; 0xf0
    c5d4:	6110      	str	r0, [r2, #16]
    c5d6:	6151      	str	r1, [r2, #20]
    c5d8:	6093      	str	r3, [r2, #8]
    c5da:	60d4      	str	r4, [r2, #12]
    c5dc:	e752      	b.n	c484 <__kernel_rem_pio2+0x5f0>
    c5de:	4a4d      	ldr	r2, [pc, #308]	; (c714 <__kernel_rem_pio2+0x880>)
    c5e0:	494b      	ldr	r1, [pc, #300]	; (c710 <__kernel_rem_pio2+0x87c>)
    c5e2:	9100      	str	r1, [sp, #0]
    c5e4:	9201      	str	r2, [sp, #4]
    c5e6:	e6fe      	b.n	c3e6 <__kernel_rem_pio2+0x552>
    c5e8:	4c4a      	ldr	r4, [pc, #296]	; (c714 <__kernel_rem_pio2+0x880>)
    c5ea:	4b49      	ldr	r3, [pc, #292]	; (c710 <__kernel_rem_pio2+0x87c>)
    c5ec:	9300      	str	r3, [sp, #0]
    c5ee:	9401      	str	r4, [sp, #4]
    c5f0:	e6f9      	b.n	c3e6 <__kernel_rem_pio2+0x552>
    c5f2:	2200      	movs	r2, #0
    c5f4:	9210      	str	r2, [sp, #64]	; 0x40
    c5f6:	e469      	b.n	becc <__kernel_rem_pio2+0x38>
    c5f8:	2580      	movs	r5, #128	; 0x80
    c5fa:	062d      	lsls	r5, r5, #24
    c5fc:	1950      	adds	r0, r2, r5
    c5fe:	1c19      	adds	r1, r3, #0
    c600:	e721      	b.n	c446 <__kernel_rem_pio2+0x5b2>
    c602:	9e09      	ldr	r6, [sp, #36]	; 0x24
    c604:	1c20      	adds	r0, r4, #0
    c606:	4272      	negs	r2, r6
    c608:	1c29      	adds	r1, r5, #0
    c60a:	f000 fbe3 	bl	cdd4 <scalbn>
    c60e:	4a42      	ldr	r2, [pc, #264]	; (c718 <__kernel_rem_pio2+0x884>)
    c610:	4b42      	ldr	r3, [pc, #264]	; (c71c <__kernel_rem_pio2+0x888>)
    c612:	900e      	str	r0, [sp, #56]	; 0x38
    c614:	910f      	str	r1, [sp, #60]	; 0x3c
    c616:	f001 f96f 	bl	d8f8 <____gedf2_from_thumb>
    c61a:	2800      	cmp	r0, #0
    c61c:	db4d      	blt.n	c6ba <__kernel_rem_pio2+0x826>
    c61e:	4a40      	ldr	r2, [pc, #256]	; (c720 <__kernel_rem_pio2+0x88c>)
    c620:	4b40      	ldr	r3, [pc, #256]	; (c724 <__kernel_rem_pio2+0x890>)
    c622:	980e      	ldr	r0, [sp, #56]	; 0x38
    c624:	990f      	ldr	r1, [sp, #60]	; 0x3c
    c626:	f001 f96b 	bl	d900 <____muldf3_from_thumb>
    c62a:	f001 f975 	bl	d918 <____fixdfsi_from_thumb>
    c62e:	f001 f953 	bl	d8d8 <____floatsidf_from_thumb>
    c632:	1c05      	adds	r5, r0, #0
    c634:	4658      	mov	r0, fp
    c636:	0084      	lsls	r4, r0, #2
    c638:	4a3b      	ldr	r2, [pc, #236]	; (c728 <__kernel_rem_pio2+0x894>)
    c63a:	4b3c      	ldr	r3, [pc, #240]	; (c72c <__kernel_rem_pio2+0x898>)
    c63c:	1c28      	adds	r0, r5, #0
    c63e:	1c0e      	adds	r6, r1, #0
    c640:	f001 f95e 	bl	d900 <____muldf3_from_thumb>
    c644:	1c02      	adds	r2, r0, #0
    c646:	1c0b      	adds	r3, r1, #0
    c648:	980e      	ldr	r0, [sp, #56]	; 0x38
    c64a:	990f      	ldr	r1, [sp, #60]	; 0x3c
    c64c:	f001 f95c 	bl	d908 <____adddf3_from_thumb>
    c650:	f001 f962 	bl	d918 <____fixdfsi_from_thumb>
    c654:	2289      	movs	r2, #137	; 0x89
    c656:	0092      	lsls	r2, r2, #2
    c658:	1912      	adds	r2, r2, r4
    c65a:	2301      	movs	r3, #1
    c65c:	9c09      	ldr	r4, [sp, #36]	; 0x24
    c65e:	4669      	mov	r1, sp
    c660:	449b      	add	fp, r3
    c662:	5050      	str	r0, [r2, r1]
    c664:	3418      	adds	r4, #24
    c666:	4658      	mov	r0, fp
    c668:	9409      	str	r4, [sp, #36]	; 0x24
    c66a:	1c31      	adds	r1, r6, #0
    c66c:	0084      	lsls	r4, r0, #2
    c66e:	1c28      	adds	r0, r5, #0
    c670:	f001 f952 	bl	d918 <____fixdfsi_from_thumb>
    c674:	2289      	movs	r2, #137	; 0x89
    c676:	0092      	lsls	r2, r2, #2
    c678:	1912      	adds	r2, r2, r4
    c67a:	4669      	mov	r1, sp
    c67c:	5050      	str	r0, [r2, r1]
    c67e:	e659      	b.n	c334 <__kernel_rem_pio2+0x4a0>
    c680:	2900      	cmp	r1, #0
    c682:	d000      	beq.n	c686 <__kernel_rem_pio2+0x7f2>
    c684:	e6fe      	b.n	c484 <__kernel_rem_pio2+0x5f0>
    c686:	465b      	mov	r3, fp
    c688:	2b00      	cmp	r3, #0
    c68a:	db3e      	blt.n	c70a <__kernel_rem_pio2+0x876>
    c68c:	465e      	mov	r6, fp
    c68e:	00f2      	lsls	r2, r6, #3
    c690:	ab39      	add	r3, sp, #228	; 0xe4
    c692:	4920      	ldr	r1, [pc, #128]	; (c714 <__kernel_rem_pio2+0x880>)
    c694:	481e      	ldr	r0, [pc, #120]	; (c710 <__kernel_rem_pio2+0x87c>)
    c696:	189d      	adds	r5, r3, r2
    c698:	465c      	mov	r4, fp
    c69a:	682a      	ldr	r2, [r5, #0]
    c69c:	686b      	ldr	r3, [r5, #4]
    c69e:	f001 f933 	bl	d908 <____adddf3_from_thumb>
    c6a2:	3d08      	subs	r5, #8
    c6a4:	3c01      	subs	r4, #1
    c6a6:	d2f8      	bcs.n	c69a <__kernel_rem_pio2+0x806>
    c6a8:	9a0a      	ldr	r2, [sp, #40]	; 0x28
    c6aa:	2a00      	cmp	r2, #0
    c6ac:	d122      	bne.n	c6f4 <__kernel_rem_pio2+0x860>
    c6ae:	9e04      	ldr	r6, [sp, #16]
    c6b0:	6030      	str	r0, [r6, #0]
    c6b2:	6071      	str	r1, [r6, #4]
    c6b4:	e6e6      	b.n	c484 <__kernel_rem_pio2+0x5f0>
    c6b6:	46a3      	mov	fp, r4
    c6b8:	e63c      	b.n	c334 <__kernel_rem_pio2+0x4a0>
    c6ba:	465b      	mov	r3, fp
    c6bc:	980e      	ldr	r0, [sp, #56]	; 0x38
    c6be:	990f      	ldr	r1, [sp, #60]	; 0x3c
    c6c0:	009c      	lsls	r4, r3, #2
    c6c2:	f001 f929 	bl	d918 <____fixdfsi_from_thumb>
    c6c6:	2689      	movs	r6, #137	; 0x89
    c6c8:	00b6      	lsls	r6, r6, #2
    c6ca:	1936      	adds	r6, r6, r4
    c6cc:	466d      	mov	r5, sp
    c6ce:	5170      	str	r0, [r6, r5]
    c6d0:	e630      	b.n	c334 <__kernel_rem_pio2+0x4a0>
    c6d2:	9b39      	ldr	r3, [sp, #228]	; 0xe4
    c6d4:	2280      	movs	r2, #128	; 0x80
    c6d6:	9c04      	ldr	r4, [sp, #16]
    c6d8:	0612      	lsls	r2, r2, #24
    c6da:	189b      	adds	r3, r3, r2
    c6dc:	6023      	str	r3, [r4, #0]
    c6de:	9b3a      	ldr	r3, [sp, #232]	; 0xe8
    c6e0:	6063      	str	r3, [r4, #4]
    c6e2:	9b3b      	ldr	r3, [sp, #236]	; 0xec
    c6e4:	189b      	adds	r3, r3, r2
    c6e6:	60a3      	str	r3, [r4, #8]
    c6e8:	9b3c      	ldr	r3, [sp, #240]	; 0xf0
    c6ea:	60e3      	str	r3, [r4, #12]
    c6ec:	1883      	adds	r3, r0, r2
    c6ee:	6123      	str	r3, [r4, #16]
    c6f0:	6161      	str	r1, [r4, #20]
    c6f2:	e6c7      	b.n	c484 <__kernel_rem_pio2+0x5f0>
    c6f4:	2580      	movs	r5, #128	; 0x80
    c6f6:	062d      	lsls	r5, r5, #24
    c6f8:	1943      	adds	r3, r0, r5
    c6fa:	1c18      	adds	r0, r3, #0
    c6fc:	e7d7      	b.n	c6ae <__kernel_rem_pio2+0x81a>
    c6fe:	4b05      	ldr	r3, [pc, #20]	; (c714 <__kernel_rem_pio2+0x880>)
    c700:	4a03      	ldr	r2, [pc, #12]	; (c710 <__kernel_rem_pio2+0x87c>)
    c702:	e69a      	b.n	c43a <__kernel_rem_pio2+0x5a6>
    c704:	4903      	ldr	r1, [pc, #12]	; (c714 <__kernel_rem_pio2+0x880>)
    c706:	4802      	ldr	r0, [pc, #8]	; (c710 <__kernel_rem_pio2+0x87c>)
    c708:	e759      	b.n	c5be <__kernel_rem_pio2+0x72a>
    c70a:	4902      	ldr	r1, [pc, #8]	; (c714 <__kernel_rem_pio2+0x880>)
    c70c:	4800      	ldr	r0, [pc, #0]	; (c710 <__kernel_rem_pio2+0x87c>)
    c70e:	e7cb      	b.n	c6a8 <__kernel_rem_pio2+0x814>
	...
    c718:	41700000 	.word	0x41700000
    c71c:	00000000 	.word	0x00000000
    c720:	3e700000 	.word	0x3e700000
    c724:	00000000 	.word	0x00000000
    c728:	c1700000 	.word	0xc1700000
    c72c:	00000000 	.word	0x00000000

0000c730 <__kernel_sin>:
    c730:	b5f0      	push	{r4, r5, r6, r7, lr}
    c732:	b088      	sub	sp, #32
    c734:	9200      	str	r2, [sp, #0]
    c736:	9301      	str	r3, [sp, #4]
    c738:	4a4d      	ldr	r2, [pc, #308]	; (c870 <__kernel_sin+0x140>)
    c73a:	4b4e      	ldr	r3, [pc, #312]	; (c874 <__kernel_sin+0x144>)
    c73c:	4002      	ands	r2, r0
    c73e:	9002      	str	r0, [sp, #8]
    c740:	9103      	str	r1, [sp, #12]
    c742:	429a      	cmp	r2, r3
    c744:	dc03      	bgt.n	c74e <__kernel_sin+0x1e>
    c746:	f001 f8e7 	bl	d918 <____fixdfsi_from_thumb>
    c74a:	2800      	cmp	r0, #0
    c74c:	d070      	beq.n	c830 <__kernel_sin+0x100>
    c74e:	9802      	ldr	r0, [sp, #8]
    c750:	9903      	ldr	r1, [sp, #12]
    c752:	1c02      	adds	r2, r0, #0
    c754:	1c0b      	adds	r3, r1, #0
    c756:	f001 f8d3 	bl	d900 <____muldf3_from_thumb>
    c75a:	1c06      	adds	r6, r0, #0
    c75c:	1c0f      	adds	r7, r1, #0
    c75e:	1c32      	adds	r2, r6, #0
    c760:	1c3b      	adds	r3, r7, #0
    c762:	9802      	ldr	r0, [sp, #8]
    c764:	9903      	ldr	r1, [sp, #12]
    c766:	f001 f8cb 	bl	d900 <____muldf3_from_thumb>
    c76a:	4a43      	ldr	r2, [pc, #268]	; (c878 <__kernel_sin+0x148>)
    c76c:	4b43      	ldr	r3, [pc, #268]	; (c87c <__kernel_sin+0x14c>)
    c76e:	9006      	str	r0, [sp, #24]
    c770:	9107      	str	r1, [sp, #28]
    c772:	1c30      	adds	r0, r6, #0
    c774:	1c39      	adds	r1, r7, #0
    c776:	f001 f8c3 	bl	d900 <____muldf3_from_thumb>
    c77a:	4a41      	ldr	r2, [pc, #260]	; (c880 <__kernel_sin+0x150>)
    c77c:	4b41      	ldr	r3, [pc, #260]	; (c884 <__kernel_sin+0x154>)
    c77e:	f001 f8c7 	bl	d910 <____subdf3_from_thumb>
    c782:	1c02      	adds	r2, r0, #0
    c784:	1c0b      	adds	r3, r1, #0
    c786:	1c30      	adds	r0, r6, #0
    c788:	1c39      	adds	r1, r7, #0
    c78a:	f001 f8b9 	bl	d900 <____muldf3_from_thumb>
    c78e:	4a3e      	ldr	r2, [pc, #248]	; (c888 <__kernel_sin+0x158>)
    c790:	4b3e      	ldr	r3, [pc, #248]	; (c88c <__kernel_sin+0x15c>)
    c792:	f001 f8b9 	bl	d908 <____adddf3_from_thumb>
    c796:	1c02      	adds	r2, r0, #0
    c798:	1c0b      	adds	r3, r1, #0
    c79a:	1c30      	adds	r0, r6, #0
    c79c:	1c39      	adds	r1, r7, #0
    c79e:	f001 f8af 	bl	d900 <____muldf3_from_thumb>
    c7a2:	4a3b      	ldr	r2, [pc, #236]	; (c890 <__kernel_sin+0x160>)
    c7a4:	4b3b      	ldr	r3, [pc, #236]	; (c894 <__kernel_sin+0x164>)
    c7a6:	f001 f8b3 	bl	d910 <____subdf3_from_thumb>
    c7aa:	1c02      	adds	r2, r0, #0
    c7ac:	1c0b      	adds	r3, r1, #0
    c7ae:	1c30      	adds	r0, r6, #0
    c7b0:	1c39      	adds	r1, r7, #0
    c7b2:	f001 f8a5 	bl	d900 <____muldf3_from_thumb>
    c7b6:	4a38      	ldr	r2, [pc, #224]	; (c898 <__kernel_sin+0x168>)
    c7b8:	4b38      	ldr	r3, [pc, #224]	; (c89c <__kernel_sin+0x16c>)
    c7ba:	f001 f8a5 	bl	d908 <____adddf3_from_thumb>
    c7be:	9b0d      	ldr	r3, [sp, #52]	; 0x34
    c7c0:	9004      	str	r0, [sp, #16]
    c7c2:	9105      	str	r1, [sp, #20]
    c7c4:	2b00      	cmp	r3, #0
    c7c6:	d039      	beq.n	c83c <__kernel_sin+0x10c>
    c7c8:	4a35      	ldr	r2, [pc, #212]	; (c8a0 <__kernel_sin+0x170>)
    c7ca:	4b36      	ldr	r3, [pc, #216]	; (c8a4 <__kernel_sin+0x174>)
    c7cc:	9800      	ldr	r0, [sp, #0]
    c7ce:	9901      	ldr	r1, [sp, #4]
    c7d0:	f001 f896 	bl	d900 <____muldf3_from_thumb>
    c7d4:	9a04      	ldr	r2, [sp, #16]
    c7d6:	9b05      	ldr	r3, [sp, #20]
    c7d8:	1c04      	adds	r4, r0, #0
    c7da:	1c0d      	adds	r5, r1, #0
    c7dc:	9806      	ldr	r0, [sp, #24]
    c7de:	9907      	ldr	r1, [sp, #28]
    c7e0:	f001 f88e 	bl	d900 <____muldf3_from_thumb>
    c7e4:	1c02      	adds	r2, r0, #0
    c7e6:	1c0b      	adds	r3, r1, #0
    c7e8:	1c20      	adds	r0, r4, #0
    c7ea:	1c29      	adds	r1, r5, #0
    c7ec:	f001 f890 	bl	d910 <____subdf3_from_thumb>
    c7f0:	1c02      	adds	r2, r0, #0
    c7f2:	1c0b      	adds	r3, r1, #0
    c7f4:	1c30      	adds	r0, r6, #0
    c7f6:	1c39      	adds	r1, r7, #0
    c7f8:	f001 f882 	bl	d900 <____muldf3_from_thumb>
    c7fc:	9a00      	ldr	r2, [sp, #0]
    c7fe:	9b01      	ldr	r3, [sp, #4]
    c800:	f001 f886 	bl	d910 <____subdf3_from_thumb>
    c804:	4a28      	ldr	r2, [pc, #160]	; (c8a8 <__kernel_sin+0x178>)
    c806:	4b29      	ldr	r3, [pc, #164]	; (c8ac <__kernel_sin+0x17c>)
    c808:	1c04      	adds	r4, r0, #0
    c80a:	1c0d      	adds	r5, r1, #0
    c80c:	9806      	ldr	r0, [sp, #24]
    c80e:	9907      	ldr	r1, [sp, #28]
    c810:	f001 f876 	bl	d900 <____muldf3_from_thumb>
    c814:	1c02      	adds	r2, r0, #0
    c816:	1c0b      	adds	r3, r1, #0
    c818:	1c20      	adds	r0, r4, #0
    c81a:	1c29      	adds	r1, r5, #0
    c81c:	f001 f874 	bl	d908 <____adddf3_from_thumb>
    c820:	1c02      	adds	r2, r0, #0
    c822:	1c0b      	adds	r3, r1, #0
    c824:	9802      	ldr	r0, [sp, #8]
    c826:	9903      	ldr	r1, [sp, #12]
    c828:	f001 f872 	bl	d910 <____subdf3_from_thumb>
    c82c:	9002      	str	r0, [sp, #8]
    c82e:	9103      	str	r1, [sp, #12]
    c830:	9802      	ldr	r0, [sp, #8]
    c832:	9903      	ldr	r1, [sp, #12]
    c834:	b008      	add	sp, #32
    c836:	bcf0      	pop	{r4, r5, r6, r7}
    c838:	bc04      	pop	{r2}
    c83a:	4710      	bx	r2
    c83c:	9a04      	ldr	r2, [sp, #16]
    c83e:	9b05      	ldr	r3, [sp, #20]
    c840:	1c30      	adds	r0, r6, #0
    c842:	1c39      	adds	r1, r7, #0
    c844:	f001 f85c 	bl	d900 <____muldf3_from_thumb>
    c848:	4a17      	ldr	r2, [pc, #92]	; (c8a8 <__kernel_sin+0x178>)
    c84a:	4b18      	ldr	r3, [pc, #96]	; (c8ac <__kernel_sin+0x17c>)
    c84c:	f001 f860 	bl	d910 <____subdf3_from_thumb>
    c850:	1c02      	adds	r2, r0, #0
    c852:	1c0b      	adds	r3, r1, #0
    c854:	9806      	ldr	r0, [sp, #24]
    c856:	9907      	ldr	r1, [sp, #28]
    c858:	f001 f852 	bl	d900 <____muldf3_from_thumb>
    c85c:	1c02      	adds	r2, r0, #0
    c85e:	1c0b      	adds	r3, r1, #0
    c860:	9802      	ldr	r0, [sp, #8]
    c862:	9903      	ldr	r1, [sp, #12]
    c864:	f001 f850 	bl	d908 <____adddf3_from_thumb>
    c868:	9002      	str	r0, [sp, #8]
    c86a:	9103      	str	r1, [sp, #12]
    c86c:	e7e0      	b.n	c830 <__kernel_sin+0x100>
    c86e:	46c0      	nop			; (mov r8, r8)
    c870:	7fffffff 	.word	0x7fffffff
    c874:	3e3fffff 	.word	0x3e3fffff
    c878:	3de5d93a 	.word	0x3de5d93a
    c87c:	5acfd57c 	.word	0x5acfd57c
    c880:	3e5ae5e6 	.word	0x3e5ae5e6
    c884:	8a2b9ceb 	.word	0x8a2b9ceb
    c888:	3ec71de3 	.word	0x3ec71de3
    c88c:	57b1fe7d 	.word	0x57b1fe7d
    c890:	3f2a01a0 	.word	0x3f2a01a0
    c894:	19c161d5 	.word	0x19c161d5
    c898:	3f811111 	.word	0x3f811111
    c89c:	1110f8a6 	.word	0x1110f8a6
    c8a0:	3fe00000 	.word	0x3fe00000
    c8a4:	00000000 	.word	0x00000000
    c8a8:	3fc55555 	.word	0x3fc55555
    c8ac:	55555549 	.word	0x55555549

0000c8b0 <atan>:
    c8b0:	b5f0      	push	{r4, r5, r6, r7, lr}
    c8b2:	4657      	mov	r7, sl
    c8b4:	4646      	mov	r6, r8
    c8b6:	b4c0      	push	{r6, r7}
    c8b8:	4baf      	ldr	r3, [pc, #700]	; (cb78 <atan+0x2c8>)
    c8ba:	1c05      	adds	r5, r0, #0
    c8bc:	401d      	ands	r5, r3
    c8be:	4baf      	ldr	r3, [pc, #700]	; (cb7c <atan+0x2cc>)
    c8c0:	b084      	sub	sp, #16
    c8c2:	1c06      	adds	r6, r0, #0
    c8c4:	1c0f      	adds	r7, r1, #0
    c8c6:	4680      	mov	r8, r0
    c8c8:	429d      	cmp	r5, r3
    c8ca:	dd14      	ble.n	c8f6 <atan+0x46>
    c8cc:	4aac      	ldr	r2, [pc, #688]	; (cb80 <atan+0x2d0>)
    c8ce:	4295      	cmp	r5, r2
    c8d0:	dc00      	bgt.n	c8d4 <atan+0x24>
    c8d2:	e0b8      	b.n	ca46 <atan+0x196>
    c8d4:	1c30      	adds	r0, r6, #0
    c8d6:	1c39      	adds	r1, r7, #0
    c8d8:	1c32      	adds	r2, r6, #0
    c8da:	1c3b      	adds	r3, r7, #0
    c8dc:	f001 f814 	bl	d908 <____adddf3_from_thumb>
    c8e0:	1c06      	adds	r6, r0, #0
    c8e2:	1c0f      	adds	r7, r1, #0
    c8e4:	1c30      	adds	r0, r6, #0
    c8e6:	1c39      	adds	r1, r7, #0
    c8e8:	b004      	add	sp, #16
    c8ea:	bc0c      	pop	{r2, r3}
    c8ec:	4690      	mov	r8, r2
    c8ee:	469a      	mov	sl, r3
    c8f0:	bcf0      	pop	{r4, r5, r6, r7}
    c8f2:	bc04      	pop	{r2}
    c8f4:	4710      	bx	r2
    c8f6:	4ba3      	ldr	r3, [pc, #652]	; (cb84 <atan+0x2d4>)
    c8f8:	429d      	cmp	r5, r3
    c8fa:	dd00      	ble.n	c8fe <atan+0x4e>
    c8fc:	e0b7      	b.n	ca6e <atan+0x1be>
    c8fe:	4ba2      	ldr	r3, [pc, #648]	; (cb88 <atan+0x2d8>)
    c900:	429d      	cmp	r5, r3
    c902:	dc00      	bgt.n	c906 <atan+0x56>
    c904:	e0a7      	b.n	ca56 <atan+0x1a6>
    c906:	2301      	movs	r3, #1
    c908:	4259      	negs	r1, r3
    c90a:	468a      	mov	sl, r1
    c90c:	1c32      	adds	r2, r6, #0
    c90e:	1c3b      	adds	r3, r7, #0
    c910:	1c30      	adds	r0, r6, #0
    c912:	1c39      	adds	r1, r7, #0
    c914:	f000 fff4 	bl	d900 <____muldf3_from_thumb>
    c918:	1c02      	adds	r2, r0, #0
    c91a:	1c0b      	adds	r3, r1, #0
    c91c:	9000      	str	r0, [sp, #0]
    c91e:	9101      	str	r1, [sp, #4]
    c920:	f000 ffee 	bl	d900 <____muldf3_from_thumb>
    c924:	4a99      	ldr	r2, [pc, #612]	; (cb8c <atan+0x2dc>)
    c926:	4b9a      	ldr	r3, [pc, #616]	; (cb90 <atan+0x2e0>)
    c928:	1c04      	adds	r4, r0, #0
    c92a:	1c0d      	adds	r5, r1, #0
    c92c:	f000 ffe8 	bl	d900 <____muldf3_from_thumb>
    c930:	4a98      	ldr	r2, [pc, #608]	; (cb94 <atan+0x2e4>)
    c932:	4b99      	ldr	r3, [pc, #612]	; (cb98 <atan+0x2e8>)
    c934:	f000 ffe8 	bl	d908 <____adddf3_from_thumb>
    c938:	1c02      	adds	r2, r0, #0
    c93a:	1c0b      	adds	r3, r1, #0
    c93c:	1c20      	adds	r0, r4, #0
    c93e:	1c29      	adds	r1, r5, #0
    c940:	f000 ffde 	bl	d900 <____muldf3_from_thumb>
    c944:	4a95      	ldr	r2, [pc, #596]	; (cb9c <atan+0x2ec>)
    c946:	4b96      	ldr	r3, [pc, #600]	; (cba0 <atan+0x2f0>)
    c948:	f000 ffde 	bl	d908 <____adddf3_from_thumb>
    c94c:	1c02      	adds	r2, r0, #0
    c94e:	1c0b      	adds	r3, r1, #0
    c950:	1c20      	adds	r0, r4, #0
    c952:	1c29      	adds	r1, r5, #0
    c954:	f000 ffd4 	bl	d900 <____muldf3_from_thumb>
    c958:	4a92      	ldr	r2, [pc, #584]	; (cba4 <atan+0x2f4>)
    c95a:	4b93      	ldr	r3, [pc, #588]	; (cba8 <atan+0x2f8>)
    c95c:	f000 ffd4 	bl	d908 <____adddf3_from_thumb>
    c960:	1c02      	adds	r2, r0, #0
    c962:	1c0b      	adds	r3, r1, #0
    c964:	1c20      	adds	r0, r4, #0
    c966:	1c29      	adds	r1, r5, #0
    c968:	f000 ffca 	bl	d900 <____muldf3_from_thumb>
    c96c:	4a8f      	ldr	r2, [pc, #572]	; (cbac <atan+0x2fc>)
    c96e:	4b90      	ldr	r3, [pc, #576]	; (cbb0 <atan+0x300>)
    c970:	f000 ffca 	bl	d908 <____adddf3_from_thumb>
    c974:	1c02      	adds	r2, r0, #0
    c976:	1c0b      	adds	r3, r1, #0
    c978:	1c20      	adds	r0, r4, #0
    c97a:	1c29      	adds	r1, r5, #0
    c97c:	f000 ffc0 	bl	d900 <____muldf3_from_thumb>
    c980:	4a8c      	ldr	r2, [pc, #560]	; (cbb4 <atan+0x304>)
    c982:	4b8d      	ldr	r3, [pc, #564]	; (cbb8 <atan+0x308>)
    c984:	f000 ffc0 	bl	d908 <____adddf3_from_thumb>
    c988:	1c02      	adds	r2, r0, #0
    c98a:	1c0b      	adds	r3, r1, #0
    c98c:	9800      	ldr	r0, [sp, #0]
    c98e:	9901      	ldr	r1, [sp, #4]
    c990:	f000 ffb6 	bl	d900 <____muldf3_from_thumb>
    c994:	4a89      	ldr	r2, [pc, #548]	; (cbbc <atan+0x30c>)
    c996:	4b8a      	ldr	r3, [pc, #552]	; (cbc0 <atan+0x310>)
    c998:	9002      	str	r0, [sp, #8]
    c99a:	9103      	str	r1, [sp, #12]
    c99c:	1c20      	adds	r0, r4, #0
    c99e:	1c29      	adds	r1, r5, #0
    c9a0:	f000 ffae 	bl	d900 <____muldf3_from_thumb>
    c9a4:	4a87      	ldr	r2, [pc, #540]	; (cbc4 <atan+0x314>)
    c9a6:	4b88      	ldr	r3, [pc, #544]	; (cbc8 <atan+0x318>)
    c9a8:	f000 ffb2 	bl	d910 <____subdf3_from_thumb>
    c9ac:	1c02      	adds	r2, r0, #0
    c9ae:	1c0b      	adds	r3, r1, #0
    c9b0:	1c20      	adds	r0, r4, #0
    c9b2:	1c29      	adds	r1, r5, #0
    c9b4:	f000 ffa4 	bl	d900 <____muldf3_from_thumb>
    c9b8:	4a84      	ldr	r2, [pc, #528]	; (cbcc <atan+0x31c>)
    c9ba:	4b85      	ldr	r3, [pc, #532]	; (cbd0 <atan+0x320>)
    c9bc:	f000 ffa8 	bl	d910 <____subdf3_from_thumb>
    c9c0:	1c02      	adds	r2, r0, #0
    c9c2:	1c0b      	adds	r3, r1, #0
    c9c4:	1c20      	adds	r0, r4, #0
    c9c6:	1c29      	adds	r1, r5, #0
    c9c8:	f000 ff9a 	bl	d900 <____muldf3_from_thumb>
    c9cc:	4a81      	ldr	r2, [pc, #516]	; (cbd4 <atan+0x324>)
    c9ce:	4b82      	ldr	r3, [pc, #520]	; (cbd8 <atan+0x328>)
    c9d0:	f000 ff9e 	bl	d910 <____subdf3_from_thumb>
    c9d4:	1c02      	adds	r2, r0, #0
    c9d6:	1c0b      	adds	r3, r1, #0
    c9d8:	1c20      	adds	r0, r4, #0
    c9da:	1c29      	adds	r1, r5, #0
    c9dc:	f000 ff90 	bl	d900 <____muldf3_from_thumb>
    c9e0:	4a7e      	ldr	r2, [pc, #504]	; (cbdc <atan+0x32c>)
    c9e2:	4b7f      	ldr	r3, [pc, #508]	; (cbe0 <atan+0x330>)
    c9e4:	f000 ff94 	bl	d910 <____subdf3_from_thumb>
    c9e8:	1c02      	adds	r2, r0, #0
    c9ea:	1c0b      	adds	r3, r1, #0
    c9ec:	1c20      	adds	r0, r4, #0
    c9ee:	1c29      	adds	r1, r5, #0
    c9f0:	f000 ff86 	bl	d900 <____muldf3_from_thumb>
    c9f4:	1c0b      	adds	r3, r1, #0
    c9f6:	4651      	mov	r1, sl
    c9f8:	1c02      	adds	r2, r0, #0
    c9fa:	2900      	cmp	r1, #0
    c9fc:	db61      	blt.n	cac2 <atan+0x212>
    c9fe:	4651      	mov	r1, sl
    ca00:	00cc      	lsls	r4, r1, #3
    ca02:	9802      	ldr	r0, [sp, #8]
    ca04:	9903      	ldr	r1, [sp, #12]
    ca06:	f000 ff7f 	bl	d908 <____adddf3_from_thumb>
    ca0a:	1c02      	adds	r2, r0, #0
    ca0c:	1c0b      	adds	r3, r1, #0
    ca0e:	1c30      	adds	r0, r6, #0
    ca10:	1c39      	adds	r1, r7, #0
    ca12:	f000 ff75 	bl	d900 <____muldf3_from_thumb>
    ca16:	4d73      	ldr	r5, [pc, #460]	; (cbe4 <atan+0x334>)
    ca18:	4b73      	ldr	r3, [pc, #460]	; (cbe8 <atan+0x338>)
    ca1a:	1965      	adds	r5, r4, r5
    ca1c:	18e4      	adds	r4, r4, r3
    ca1e:	6822      	ldr	r2, [r4, #0]
    ca20:	6863      	ldr	r3, [r4, #4]
    ca22:	f000 ff75 	bl	d910 <____subdf3_from_thumb>
    ca26:	1c32      	adds	r2, r6, #0
    ca28:	1c3b      	adds	r3, r7, #0
    ca2a:	f000 ff71 	bl	d910 <____subdf3_from_thumb>
    ca2e:	1c02      	adds	r2, r0, #0
    ca30:	1c0b      	adds	r3, r1, #0
    ca32:	6828      	ldr	r0, [r5, #0]
    ca34:	6869      	ldr	r1, [r5, #4]
    ca36:	f000 ff6b 	bl	d910 <____subdf3_from_thumb>
    ca3a:	4642      	mov	r2, r8
    ca3c:	2a00      	cmp	r2, #0
    ca3e:	db37      	blt.n	cab0 <atan+0x200>
    ca40:	1c06      	adds	r6, r0, #0
    ca42:	1c0f      	adds	r7, r1, #0
    ca44:	e74e      	b.n	c8e4 <atan+0x34>
    ca46:	4295      	cmp	r5, r2
    ca48:	d038      	beq.n	cabc <atan+0x20c>
    ca4a:	4641      	mov	r1, r8
    ca4c:	2900      	cmp	r1, #0
    ca4e:	dd59      	ble.n	cb04 <atan+0x254>
    ca50:	4e66      	ldr	r6, [pc, #408]	; (cbec <atan+0x33c>)
    ca52:	4f67      	ldr	r7, [pc, #412]	; (cbf0 <atan+0x340>)
    ca54:	e746      	b.n	c8e4 <atan+0x34>
    ca56:	4a67      	ldr	r2, [pc, #412]	; (cbf4 <atan+0x344>)
    ca58:	4b67      	ldr	r3, [pc, #412]	; (cbf8 <atan+0x348>)
    ca5a:	f000 ff55 	bl	d908 <____adddf3_from_thumb>
    ca5e:	4a67      	ldr	r2, [pc, #412]	; (cbfc <atan+0x34c>)
    ca60:	4b67      	ldr	r3, [pc, #412]	; (cc00 <atan+0x350>)
    ca62:	f000 ff5d 	bl	d920 <____gtdf2_from_thumb>
    ca66:	2800      	cmp	r0, #0
    ca68:	dd00      	ble.n	ca6c <atan+0x1bc>
    ca6a:	e73b      	b.n	c8e4 <atan+0x34>
    ca6c:	e74b      	b.n	c906 <atan+0x56>
    ca6e:	f000 f8df 	bl	cc30 <fabs>
    ca72:	4b64      	ldr	r3, [pc, #400]	; (cc04 <atan+0x354>)
    ca74:	1c06      	adds	r6, r0, #0
    ca76:	1c0f      	adds	r7, r1, #0
    ca78:	429d      	cmp	r5, r3
    ca7a:	dc35      	bgt.n	cae8 <atan+0x238>
    ca7c:	4b62      	ldr	r3, [pc, #392]	; (cc08 <atan+0x358>)
    ca7e:	429d      	cmp	r5, r3
    ca80:	dd43      	ble.n	cb0a <atan+0x25a>
    ca82:	4a5e      	ldr	r2, [pc, #376]	; (cbfc <atan+0x34c>)
    ca84:	4b5e      	ldr	r3, [pc, #376]	; (cc00 <atan+0x350>)
    ca86:	f000 ff43 	bl	d910 <____subdf3_from_thumb>
    ca8a:	4a5c      	ldr	r2, [pc, #368]	; (cbfc <atan+0x34c>)
    ca8c:	4b5c      	ldr	r3, [pc, #368]	; (cc00 <atan+0x350>)
    ca8e:	1c04      	adds	r4, r0, #0
    ca90:	1c0d      	adds	r5, r1, #0
    ca92:	1c30      	adds	r0, r6, #0
    ca94:	1c39      	adds	r1, r7, #0
    ca96:	f000 ff37 	bl	d908 <____adddf3_from_thumb>
    ca9a:	1c0b      	adds	r3, r1, #0
    ca9c:	1c02      	adds	r2, r0, #0
    ca9e:	1c29      	adds	r1, r5, #0
    caa0:	1c20      	adds	r0, r4, #0
    caa2:	f000 ff21 	bl	d8e8 <____divdf3_from_thumb>
    caa6:	2301      	movs	r3, #1
    caa8:	1c06      	adds	r6, r0, #0
    caaa:	1c0f      	adds	r7, r1, #0
    caac:	469a      	mov	sl, r3
    caae:	e72d      	b.n	c90c <atan+0x5c>
    cab0:	2280      	movs	r2, #128	; 0x80
    cab2:	0612      	lsls	r2, r2, #24
    cab4:	1883      	adds	r3, r0, r2
    cab6:	1c1e      	adds	r6, r3, #0
    cab8:	1c0f      	adds	r7, r1, #0
    caba:	e713      	b.n	c8e4 <atan+0x34>
    cabc:	2900      	cmp	r1, #0
    cabe:	d0c4      	beq.n	ca4a <atan+0x19a>
    cac0:	e708      	b.n	c8d4 <atan+0x24>
    cac2:	9802      	ldr	r0, [sp, #8]
    cac4:	9903      	ldr	r1, [sp, #12]
    cac6:	f000 ff1f 	bl	d908 <____adddf3_from_thumb>
    caca:	1c02      	adds	r2, r0, #0
    cacc:	1c0b      	adds	r3, r1, #0
    cace:	1c30      	adds	r0, r6, #0
    cad0:	1c39      	adds	r1, r7, #0
    cad2:	f000 ff15 	bl	d900 <____muldf3_from_thumb>
    cad6:	1c02      	adds	r2, r0, #0
    cad8:	1c0b      	adds	r3, r1, #0
    cada:	1c30      	adds	r0, r6, #0
    cadc:	1c39      	adds	r1, r7, #0
    cade:	f000 ff17 	bl	d910 <____subdf3_from_thumb>
    cae2:	1c06      	adds	r6, r0, #0
    cae4:	1c0f      	adds	r7, r1, #0
    cae6:	e6fd      	b.n	c8e4 <atan+0x34>
    cae8:	4b48      	ldr	r3, [pc, #288]	; (cc0c <atan+0x35c>)
    caea:	429d      	cmp	r5, r3
    caec:	dd28      	ble.n	cb40 <atan+0x290>
    caee:	1c32      	adds	r2, r6, #0
    caf0:	1c3b      	adds	r3, r7, #0
    caf2:	4847      	ldr	r0, [pc, #284]	; (cc10 <atan+0x360>)
    caf4:	4947      	ldr	r1, [pc, #284]	; (cc14 <atan+0x364>)
    caf6:	f000 fef7 	bl	d8e8 <____divdf3_from_thumb>
    cafa:	2203      	movs	r2, #3
    cafc:	1c06      	adds	r6, r0, #0
    cafe:	1c0f      	adds	r7, r1, #0
    cb00:	4692      	mov	sl, r2
    cb02:	e703      	b.n	c90c <atan+0x5c>
    cb04:	4e44      	ldr	r6, [pc, #272]	; (cc18 <atan+0x368>)
    cb06:	4f45      	ldr	r7, [pc, #276]	; (cc1c <atan+0x36c>)
    cb08:	e6ec      	b.n	c8e4 <atan+0x34>
    cb0a:	1c32      	adds	r2, r6, #0
    cb0c:	1c3b      	adds	r3, r7, #0
    cb0e:	f000 fefb 	bl	d908 <____adddf3_from_thumb>
    cb12:	4a3a      	ldr	r2, [pc, #232]	; (cbfc <atan+0x34c>)
    cb14:	4b3a      	ldr	r3, [pc, #232]	; (cc00 <atan+0x350>)
    cb16:	f000 fefb 	bl	d910 <____subdf3_from_thumb>
    cb1a:	4a41      	ldr	r2, [pc, #260]	; (cc20 <atan+0x370>)
    cb1c:	4b41      	ldr	r3, [pc, #260]	; (cc24 <atan+0x374>)
    cb1e:	1c04      	adds	r4, r0, #0
    cb20:	1c0d      	adds	r5, r1, #0
    cb22:	1c30      	adds	r0, r6, #0
    cb24:	1c39      	adds	r1, r7, #0
    cb26:	f000 feef 	bl	d908 <____adddf3_from_thumb>
    cb2a:	1c02      	adds	r2, r0, #0
    cb2c:	1c0b      	adds	r3, r1, #0
    cb2e:	1c20      	adds	r0, r4, #0
    cb30:	1c29      	adds	r1, r5, #0
    cb32:	f000 fed9 	bl	d8e8 <____divdf3_from_thumb>
    cb36:	2200      	movs	r2, #0
    cb38:	1c06      	adds	r6, r0, #0
    cb3a:	1c0f      	adds	r7, r1, #0
    cb3c:	4692      	mov	sl, r2
    cb3e:	e6e5      	b.n	c90c <atan+0x5c>
    cb40:	4a39      	ldr	r2, [pc, #228]	; (cc28 <atan+0x378>)
    cb42:	4b3a      	ldr	r3, [pc, #232]	; (cc2c <atan+0x37c>)
    cb44:	f000 fee4 	bl	d910 <____subdf3_from_thumb>
    cb48:	4a37      	ldr	r2, [pc, #220]	; (cc28 <atan+0x378>)
    cb4a:	4b38      	ldr	r3, [pc, #224]	; (cc2c <atan+0x37c>)
    cb4c:	1c04      	adds	r4, r0, #0
    cb4e:	1c0d      	adds	r5, r1, #0
    cb50:	1c30      	adds	r0, r6, #0
    cb52:	1c39      	adds	r1, r7, #0
    cb54:	f000 fed4 	bl	d900 <____muldf3_from_thumb>
    cb58:	4a28      	ldr	r2, [pc, #160]	; (cbfc <atan+0x34c>)
    cb5a:	4b29      	ldr	r3, [pc, #164]	; (cc00 <atan+0x350>)
    cb5c:	f000 fed4 	bl	d908 <____adddf3_from_thumb>
    cb60:	1c02      	adds	r2, r0, #0
    cb62:	1c0b      	adds	r3, r1, #0
    cb64:	1c20      	adds	r0, r4, #0
    cb66:	1c29      	adds	r1, r5, #0
    cb68:	f000 febe 	bl	d8e8 <____divdf3_from_thumb>
    cb6c:	1c0f      	adds	r7, r1, #0
    cb6e:	2102      	movs	r1, #2
    cb70:	1c06      	adds	r6, r0, #0
    cb72:	468a      	mov	sl, r1
    cb74:	e6ca      	b.n	c90c <atan+0x5c>
    cb76:	46c0      	nop			; (mov r8, r8)
    cb78:	7fffffff 	.word	0x7fffffff
    cb7c:	440fffff 	.word	0x440fffff
    cb80:	7ff00000 	.word	0x7ff00000
    cb84:	3fdbffff 	.word	0x3fdbffff
    cb88:	3e1fffff 	.word	0x3e1fffff
    cb8c:	3f90ad3a 	.word	0x3f90ad3a
    cb90:	e322da11 	.word	0xe322da11
    cb94:	3fa97b4b 	.word	0x3fa97b4b
    cb98:	24760deb 	.word	0x24760deb
    cb9c:	3fb10d66 	.word	0x3fb10d66
    cba0:	a0d03d51 	.word	0xa0d03d51
    cba4:	3fb745cd 	.word	0x3fb745cd
    cba8:	c54c206e 	.word	0xc54c206e
    cbac:	3fc24924 	.word	0x3fc24924
    cbb0:	920083ff 	.word	0x920083ff
    cbb4:	3fd55555 	.word	0x3fd55555
    cbb8:	5555550d 	.word	0x5555550d
    cbbc:	bfa2b444 	.word	0xbfa2b444
    cbc0:	2c6a6c2f 	.word	0x2c6a6c2f
    cbc4:	3fadde2d 	.word	0x3fadde2d
    cbc8:	52defd9a 	.word	0x52defd9a
    cbcc:	3fb3b0f2 	.word	0x3fb3b0f2
    cbd0:	af749a6d 	.word	0xaf749a6d
    cbd4:	3fbc71c6 	.word	0x3fbc71c6
    cbd8:	fe231671 	.word	0xfe231671
    cbdc:	3fc99999 	.word	0x3fc99999
    cbe0:	9998ebc4 	.word	0x9998ebc4
    cbe4:	0000db7c 	.word	0x0000db7c
    cbe8:	0000db9c 	.word	0x0000db9c
    cbec:	3ff921fb 	.word	0x3ff921fb
    cbf0:	54442d18 	.word	0x54442d18
    cbf4:	7e37e43c 	.word	0x7e37e43c
    cbf8:	8800759c 	.word	0x8800759c
    cbfc:	3ff00000 	.word	0x3ff00000
    cc00:	00000000 	.word	0x00000000
    cc04:	3ff2ffff 	.word	0x3ff2ffff
    cc08:	3fe5ffff 	.word	0x3fe5ffff
    cc0c:	40037fff 	.word	0x40037fff
    cc10:	bff00000 	.word	0xbff00000
    cc14:	00000000 	.word	0x00000000
    cc18:	bff921fb 	.word	0xbff921fb
    cc1c:	54442d18 	.word	0x54442d18
    cc20:	40000000 	.word	0x40000000
    cc24:	00000000 	.word	0x00000000
    cc28:	3ff80000 	.word	0x3ff80000
    cc2c:	00000000 	.word	0x00000000

0000cc30 <fabs>:
    cc30:	b510      	push	{r4, lr}
    cc32:	1c03      	adds	r3, r0, #0
    cc34:	4803      	ldr	r0, [pc, #12]	; (cc44 <fabs+0x14>)
    cc36:	1c0a      	adds	r2, r1, #0
    cc38:	4003      	ands	r3, r0
    cc3a:	1c18      	adds	r0, r3, #0
    cc3c:	1c11      	adds	r1, r2, #0
    cc3e:	bc10      	pop	{r4}
    cc40:	bc04      	pop	{r2}
    cc42:	4710      	bx	r2
    cc44:	7fffffff 	.word	0x7fffffff

0000cc48 <floor>:
    cc48:	b5f0      	push	{r4, r5, r6, r7, lr}
    cc4a:	465f      	mov	r7, fp
    cc4c:	4656      	mov	r6, sl
    cc4e:	464d      	mov	r5, r9
    cc50:	4644      	mov	r4, r8
    cc52:	b4f0      	push	{r4, r5, r6, r7}
    cc54:	2200      	movs	r2, #0
    cc56:	2300      	movs	r3, #0
    cc58:	b082      	sub	sp, #8
    cc5a:	9200      	str	r2, [sp, #0]
    cc5c:	9301      	str	r3, [sp, #4]
    cc5e:	0043      	lsls	r3, r0, #1
    cc60:	0d5a      	lsrs	r2, r3, #21
    cc62:	4b4b      	ldr	r3, [pc, #300]	; (cd90 <floor+0x148>)
    cc64:	189b      	adds	r3, r3, r2
    cc66:	1c04      	adds	r4, r0, #0
    cc68:	1c0d      	adds	r5, r1, #0
    cc6a:	1c06      	adds	r6, r0, #0
    cc6c:	4682      	mov	sl, r0
    cc6e:	4689      	mov	r9, r1
    cc70:	4698      	mov	r8, r3
    cc72:	2b13      	cmp	r3, #19
    cc74:	dc2e      	bgt.n	ccd4 <floor+0x8c>
    cc76:	2b00      	cmp	r3, #0
    cc78:	db53      	blt.n	cd22 <floor+0xda>
    cc7a:	4b46      	ldr	r3, [pc, #280]	; (cd94 <floor+0x14c>)
    cc7c:	4642      	mov	r2, r8
    cc7e:	4113      	asrs	r3, r2
    cc80:	469b      	mov	fp, r3
    cc82:	1c0a      	adds	r2, r1, #0
    cc84:	4003      	ands	r3, r0
    cc86:	4682      	mov	sl, r0
    cc88:	4689      	mov	r9, r1
    cc8a:	431a      	orrs	r2, r3
    cc8c:	d017      	beq.n	ccbe <floor+0x76>
    cc8e:	4a42      	ldr	r2, [pc, #264]	; (cd98 <floor+0x150>)
    cc90:	4b42      	ldr	r3, [pc, #264]	; (cd9c <floor+0x154>)
    cc92:	f000 fe39 	bl	d908 <____adddf3_from_thumb>
    cc96:	4a42      	ldr	r2, [pc, #264]	; (cda0 <floor+0x158>)
    cc98:	4b42      	ldr	r3, [pc, #264]	; (cda4 <floor+0x15c>)
    cc9a:	f000 fe41 	bl	d920 <____gtdf2_from_thumb>
    cc9e:	2800      	cmp	r0, #0
    cca0:	dd07      	ble.n	ccb2 <floor+0x6a>
    cca2:	2c00      	cmp	r4, #0
    cca4:	db4d      	blt.n	cd42 <floor+0xfa>
    cca6:	4652      	mov	r2, sl
    cca8:	465b      	mov	r3, fp
    ccaa:	439a      	bics	r2, r3
    ccac:	2400      	movs	r4, #0
    ccae:	4692      	mov	sl, r2
    ccb0:	46a1      	mov	r9, r4
    ccb2:	4654      	mov	r4, sl
    ccb4:	464a      	mov	r2, r9
    ccb6:	9400      	str	r4, [sp, #0]
    ccb8:	9201      	str	r2, [sp, #4]
    ccba:	9c00      	ldr	r4, [sp, #0]
    ccbc:	9d01      	ldr	r5, [sp, #4]
    ccbe:	1c29      	adds	r1, r5, #0
    ccc0:	1c20      	adds	r0, r4, #0
    ccc2:	b002      	add	sp, #8
    ccc4:	bc3c      	pop	{r2, r3, r4, r5}
    ccc6:	4690      	mov	r8, r2
    ccc8:	4699      	mov	r9, r3
    ccca:	46a2      	mov	sl, r4
    cccc:	46ab      	mov	fp, r5
    ccce:	bcf0      	pop	{r4, r5, r6, r7}
    ccd0:	bc04      	pop	{r2}
    ccd2:	4710      	bx	r2
    ccd4:	2b33      	cmp	r3, #51	; 0x33
    ccd6:	dc19      	bgt.n	cd0c <floor+0xc4>
    ccd8:	4b33      	ldr	r3, [pc, #204]	; (cda8 <floor+0x160>)
    ccda:	18d2      	adds	r2, r2, r3
    ccdc:	2301      	movs	r3, #1
    ccde:	425b      	negs	r3, r3
    cce0:	40d3      	lsrs	r3, r2
    cce2:	469b      	mov	fp, r3
    cce4:	4689      	mov	r9, r1
    cce6:	420b      	tst	r3, r1
    cce8:	d0e9      	beq.n	ccbe <floor+0x76>
    ccea:	4a2b      	ldr	r2, [pc, #172]	; (cd98 <floor+0x150>)
    ccec:	4b2b      	ldr	r3, [pc, #172]	; (cd9c <floor+0x154>)
    ccee:	f000 fe0b 	bl	d908 <____adddf3_from_thumb>
    ccf2:	4a2b      	ldr	r2, [pc, #172]	; (cda0 <floor+0x158>)
    ccf4:	4b2b      	ldr	r3, [pc, #172]	; (cda4 <floor+0x15c>)
    ccf6:	f000 fe13 	bl	d920 <____gtdf2_from_thumb>
    ccfa:	2800      	cmp	r0, #0
    ccfc:	dd27      	ble.n	cd4e <floor+0x106>
    ccfe:	2c00      	cmp	r4, #0
    cd00:	db27      	blt.n	cd52 <floor+0x10a>
    cd02:	464a      	mov	r2, r9
    cd04:	465b      	mov	r3, fp
    cd06:	439a      	bics	r2, r3
    cd08:	4691      	mov	r9, r2
    cd0a:	e7d2      	b.n	ccb2 <floor+0x6a>
    cd0c:	2380      	movs	r3, #128	; 0x80
    cd0e:	00db      	lsls	r3, r3, #3
    cd10:	4598      	cmp	r8, r3
    cd12:	d1d4      	bne.n	ccbe <floor+0x76>
    cd14:	1c22      	adds	r2, r4, #0
    cd16:	1c2b      	adds	r3, r5, #0
    cd18:	f000 fdf6 	bl	d908 <____adddf3_from_thumb>
    cd1c:	1c04      	adds	r4, r0, #0
    cd1e:	1c0d      	adds	r5, r1, #0
    cd20:	e7cd      	b.n	ccbe <floor+0x76>
    cd22:	4a1d      	ldr	r2, [pc, #116]	; (cd98 <floor+0x150>)
    cd24:	4b1d      	ldr	r3, [pc, #116]	; (cd9c <floor+0x154>)
    cd26:	f000 fdef 	bl	d908 <____adddf3_from_thumb>
    cd2a:	4a1d      	ldr	r2, [pc, #116]	; (cda0 <floor+0x158>)
    cd2c:	4b1d      	ldr	r3, [pc, #116]	; (cda4 <floor+0x15c>)
    cd2e:	f000 fdf7 	bl	d920 <____gtdf2_from_thumb>
    cd32:	2800      	cmp	r0, #0
    cd34:	ddbd      	ble.n	ccb2 <floor+0x6a>
    cd36:	2c00      	cmp	r4, #0
    cd38:	db1a      	blt.n	cd70 <floor+0x128>
    cd3a:	2200      	movs	r2, #0
    cd3c:	4692      	mov	sl, r2
    cd3e:	4691      	mov	r9, r2
    cd40:	e7b7      	b.n	ccb2 <floor+0x6a>
    cd42:	2380      	movs	r3, #128	; 0x80
    cd44:	035b      	lsls	r3, r3, #13
    cd46:	4644      	mov	r4, r8
    cd48:	4123      	asrs	r3, r4
    cd4a:	449a      	add	sl, r3
    cd4c:	e7ab      	b.n	cca6 <floor+0x5e>
    cd4e:	46a2      	mov	sl, r4
    cd50:	e7af      	b.n	ccb2 <floor+0x6a>
    cd52:	4644      	mov	r4, r8
    cd54:	2c14      	cmp	r4, #20
    cd56:	d018      	beq.n	cd8a <floor+0x142>
    cd58:	4643      	mov	r3, r8
    cd5a:	2234      	movs	r2, #52	; 0x34
    cd5c:	1ad2      	subs	r2, r2, r3
    cd5e:	2301      	movs	r3, #1
    cd60:	4093      	lsls	r3, r2
    cd62:	444b      	add	r3, r9
    cd64:	4599      	cmp	r9, r3
    cd66:	d901      	bls.n	cd6c <floor+0x124>
    cd68:	2401      	movs	r4, #1
    cd6a:	44a2      	add	sl, r4
    cd6c:	4699      	mov	r9, r3
    cd6e:	e7c8      	b.n	cd02 <floor+0xba>
    cd70:	4b0e      	ldr	r3, [pc, #56]	; (cdac <floor+0x164>)
    cd72:	1c2a      	adds	r2, r5, #0
    cd74:	4033      	ands	r3, r6
    cd76:	431a      	orrs	r2, r3
    cd78:	d004      	beq.n	cd84 <floor+0x13c>
    cd7a:	4b0d      	ldr	r3, [pc, #52]	; (cdb0 <floor+0x168>)
    cd7c:	2400      	movs	r4, #0
    cd7e:	469a      	mov	sl, r3
    cd80:	46a1      	mov	r9, r4
    cd82:	e796      	b.n	ccb2 <floor+0x6a>
    cd84:	46b2      	mov	sl, r6
    cd86:	46a9      	mov	r9, r5
    cd88:	e793      	b.n	ccb2 <floor+0x6a>
    cd8a:	2201      	movs	r2, #1
    cd8c:	4492      	add	sl, r2
    cd8e:	e7b8      	b.n	cd02 <floor+0xba>
    cd90:	fffffc01 	.word	0xfffffc01
    cd94:	000fffff 	.word	0x000fffff
    cd98:	7e37e43c 	.word	0x7e37e43c
    cd9c:	8800759c 	.word	0x8800759c
	...
    cda8:	fffffbed 	.word	0xfffffbed
    cdac:	7fffffff 	.word	0x7fffffff
    cdb0:	bff00000 	.word	0xbff00000

0000cdb4 <isnan>:
    cdb4:	424a      	negs	r2, r1
    cdb6:	4b04      	ldr	r3, [pc, #16]	; (cdc8 <isnan+0x14>)
    cdb8:	430a      	orrs	r2, r1
    cdba:	4003      	ands	r3, r0
    cdbc:	0fd2      	lsrs	r2, r2, #31
    cdbe:	4803      	ldr	r0, [pc, #12]	; (cdcc <isnan+0x18>)
    cdc0:	431a      	orrs	r2, r3
    cdc2:	1a80      	subs	r0, r0, r2
    cdc4:	0fc0      	lsrs	r0, r0, #31
    cdc6:	4770      	bx	lr
    cdc8:	7fffffff 	.word	0x7fffffff
    cdcc:	7ff00000 	.word	0x7ff00000

0000cdd0 <matherr>:
    cdd0:	2000      	movs	r0, #0
    cdd2:	4770      	bx	lr

0000cdd4 <scalbn>:
    cdd4:	b5f0      	push	{r4, r5, r6, r7, lr}
    cdd6:	4647      	mov	r7, r8
    cdd8:	b480      	push	{r7}
    cdda:	4f3b      	ldr	r7, [pc, #236]	; (cec8 <scalbn+0xf4>)
    cddc:	1c03      	adds	r3, r0, #0
    cdde:	403b      	ands	r3, r7
    cde0:	4690      	mov	r8, r2
    cde2:	151a      	asrs	r2, r3, #20
    cde4:	1c05      	adds	r5, r0, #0
    cde6:	1c0e      	adds	r6, r1, #0
    cde8:	2a00      	cmp	r2, #0
    cdea:	d121      	bne.n	ce30 <scalbn+0x5c>
    cdec:	4b37      	ldr	r3, [pc, #220]	; (cecc <scalbn+0xf8>)
    cdee:	4003      	ands	r3, r0
    cdf0:	4319      	orrs	r1, r3
    cdf2:	d011      	beq.n	ce18 <scalbn+0x44>
    cdf4:	1c28      	adds	r0, r5, #0
    cdf6:	1c31      	adds	r1, r6, #0
    cdf8:	4a35      	ldr	r2, [pc, #212]	; (ced0 <scalbn+0xfc>)
    cdfa:	4b36      	ldr	r3, [pc, #216]	; (ced4 <scalbn+0x100>)
    cdfc:	f000 fd80 	bl	d900 <____muldf3_from_thumb>
    ce00:	4b35      	ldr	r3, [pc, #212]	; (ced8 <scalbn+0x104>)
    ce02:	1c05      	adds	r5, r0, #0
    ce04:	1c0e      	adds	r6, r1, #0
    ce06:	4598      	cmp	r8, r3
    ce08:	da0d      	bge.n	ce26 <scalbn+0x52>
    ce0a:	1c28      	adds	r0, r5, #0
    ce0c:	4a33      	ldr	r2, [pc, #204]	; (cedc <scalbn+0x108>)
    ce0e:	4b34      	ldr	r3, [pc, #208]	; (cee0 <scalbn+0x10c>)
    ce10:	f000 fd76 	bl	d900 <____muldf3_from_thumb>
    ce14:	1c05      	adds	r5, r0, #0
    ce16:	1c0e      	adds	r6, r1, #0
    ce18:	1c28      	adds	r0, r5, #0
    ce1a:	1c31      	adds	r1, r6, #0
    ce1c:	bc04      	pop	{r2}
    ce1e:	4690      	mov	r8, r2
    ce20:	bcf0      	pop	{r4, r5, r6, r7}
    ce22:	bc04      	pop	{r2}
    ce24:	4710      	bx	r2
    ce26:	1c03      	adds	r3, r0, #0
    ce28:	403b      	ands	r3, r7
    ce2a:	151b      	asrs	r3, r3, #20
    ce2c:	1c1a      	adds	r2, r3, #0
    ce2e:	3a36      	subs	r2, #54	; 0x36
    ce30:	4b2c      	ldr	r3, [pc, #176]	; (cee4 <scalbn+0x110>)
    ce32:	429a      	cmp	r2, r3
    ce34:	d00e      	beq.n	ce54 <scalbn+0x80>
    ce36:	4643      	mov	r3, r8
    ce38:	18d7      	adds	r7, r2, r3
    ce3a:	4b2b      	ldr	r3, [pc, #172]	; (cee8 <scalbn+0x114>)
    ce3c:	429f      	cmp	r7, r3
    ce3e:	dc12      	bgt.n	ce66 <scalbn+0x92>
    ce40:	2f00      	cmp	r7, #0
    ce42:	dd1d      	ble.n	ce80 <scalbn+0xac>
    ce44:	4a29      	ldr	r2, [pc, #164]	; (ceec <scalbn+0x118>)
    ce46:	1c01      	adds	r1, r0, #0
    ce48:	4011      	ands	r1, r2
    ce4a:	1c0b      	adds	r3, r1, #0
    ce4c:	053a      	lsls	r2, r7, #20
    ce4e:	4313      	orrs	r3, r2
    ce50:	1c1d      	adds	r5, r3, #0
    ce52:	e7e1      	b.n	ce18 <scalbn+0x44>
    ce54:	1c28      	adds	r0, r5, #0
    ce56:	1c31      	adds	r1, r6, #0
    ce58:	1c2a      	adds	r2, r5, #0
    ce5a:	1c33      	adds	r3, r6, #0
    ce5c:	f000 fd54 	bl	d908 <____adddf3_from_thumb>
    ce60:	1c05      	adds	r5, r0, #0
    ce62:	1c0e      	adds	r6, r1, #0
    ce64:	e7d8      	b.n	ce18 <scalbn+0x44>
    ce66:	1c2a      	adds	r2, r5, #0
    ce68:	1c33      	adds	r3, r6, #0
    ce6a:	4821      	ldr	r0, [pc, #132]	; (cef0 <scalbn+0x11c>)
    ce6c:	4921      	ldr	r1, [pc, #132]	; (cef4 <scalbn+0x120>)
    ce6e:	f000 f849 	bl	cf04 <copysign>
    ce72:	4a1f      	ldr	r2, [pc, #124]	; (cef0 <scalbn+0x11c>)
    ce74:	4b1f      	ldr	r3, [pc, #124]	; (cef4 <scalbn+0x120>)
    ce76:	f000 fd43 	bl	d900 <____muldf3_from_thumb>
    ce7a:	1c05      	adds	r5, r0, #0
    ce7c:	1c0e      	adds	r6, r1, #0
    ce7e:	e7cb      	b.n	ce18 <scalbn+0x44>
    ce80:	1c3b      	adds	r3, r7, #0
    ce82:	3336      	adds	r3, #54	; 0x36
    ce84:	dc0f      	bgt.n	cea6 <scalbn+0xd2>
    ce86:	4b1c      	ldr	r3, [pc, #112]	; (cef8 <scalbn+0x124>)
    ce88:	4598      	cmp	r8, r3
    ce8a:	dcec      	bgt.n	ce66 <scalbn+0x92>
    ce8c:	1c2a      	adds	r2, r5, #0
    ce8e:	1c33      	adds	r3, r6, #0
    ce90:	4812      	ldr	r0, [pc, #72]	; (cedc <scalbn+0x108>)
    ce92:	4913      	ldr	r1, [pc, #76]	; (cee0 <scalbn+0x10c>)
    ce94:	f000 f836 	bl	cf04 <copysign>
    ce98:	4a10      	ldr	r2, [pc, #64]	; (cedc <scalbn+0x108>)
    ce9a:	4b11      	ldr	r3, [pc, #68]	; (cee0 <scalbn+0x10c>)
    ce9c:	f000 fd30 	bl	d900 <____muldf3_from_thumb>
    cea0:	1c05      	adds	r5, r0, #0
    cea2:	1c0e      	adds	r6, r1, #0
    cea4:	e7b8      	b.n	ce18 <scalbn+0x44>
    cea6:	4b11      	ldr	r3, [pc, #68]	; (ceec <scalbn+0x118>)
    cea8:	4018      	ands	r0, r3
    ceaa:	1c3b      	adds	r3, r7, #0
    ceac:	3336      	adds	r3, #54	; 0x36
    ceae:	051b      	lsls	r3, r3, #20
    ceb0:	1c01      	adds	r1, r0, #0
    ceb2:	4319      	orrs	r1, r3
    ceb4:	1c08      	adds	r0, r1, #0
    ceb6:	4a11      	ldr	r2, [pc, #68]	; (cefc <scalbn+0x128>)
    ceb8:	4b11      	ldr	r3, [pc, #68]	; (cf00 <scalbn+0x12c>)
    ceba:	1c31      	adds	r1, r6, #0
    cebc:	f000 fd20 	bl	d900 <____muldf3_from_thumb>
    cec0:	1c05      	adds	r5, r0, #0
    cec2:	1c0e      	adds	r6, r1, #0
    cec4:	e7a8      	b.n	ce18 <scalbn+0x44>
    cec6:	46c0      	nop			; (mov r8, r8)
    cec8:	7ff00000 	.word	0x7ff00000
    cecc:	7fffffff 	.word	0x7fffffff
    ced0:	43500000 	.word	0x43500000
    ced4:	00000000 	.word	0x00000000
    ced8:	ffff3cb0 	.word	0xffff3cb0
    cedc:	01a56e1f 	.word	0x01a56e1f
    cee0:	c2f8f359 	.word	0xc2f8f359
    cee4:	000007ff 	.word	0x000007ff
    cee8:	000007fe 	.word	0x000007fe
    ceec:	800fffff 	.word	0x800fffff
    cef0:	7e37e43c 	.word	0x7e37e43c
    cef4:	8800759c 	.word	0x8800759c
    cef8:	0000c350 	.word	0x0000c350
    cefc:	3c900000 	.word	0x3c900000
    cf00:	00000000 	.word	0x00000000

0000cf04 <copysign>:
    cf04:	b530      	push	{r4, r5, lr}
    cf06:	4b07      	ldr	r3, [pc, #28]	; (cf24 <copysign+0x20>)
    cf08:	1c04      	adds	r4, r0, #0
    cf0a:	401c      	ands	r4, r3
    cf0c:	2380      	movs	r3, #128	; 0x80
    cf0e:	1c15      	adds	r5, r2, #0
    cf10:	061b      	lsls	r3, r3, #24
    cf12:	402b      	ands	r3, r5
    cf14:	1c0a      	adds	r2, r1, #0
    cf16:	431c      	orrs	r4, r3
    cf18:	1c20      	adds	r0, r4, #0
    cf1a:	1c11      	adds	r1, r2, #0
    cf1c:	bc30      	pop	{r4, r5}
    cf1e:	bc04      	pop	{r2}
    cf20:	4710      	bx	r2
    cf22:	46c0      	nop			; (mov r8, r8)
    cf24:	7fffffff 	.word	0x7fffffff

0000cf28 <__gedf2>:
    cf28:	e3e0c000 	mvn	ip, #0
    cf2c:	ea000002 	b	cf3c <__cmpdf2+0x4>

0000cf30 <__ledf2>:
    cf30:	e3a0c001 	mov	ip, #1
    cf34:	ea000000 	b	cf3c <__cmpdf2+0x4>

0000cf38 <__cmpdf2>:
    cf38:	e3a0c001 	mov	ip, #1
    cf3c:	e50dc004 	str	ip, [sp, #-4]
    cf40:	e1a0c080 	lsl	ip, r0, #1
    cf44:	e1f0cacc 	mvns	ip, ip, asr #21
    cf48:	e1a0c082 	lsl	ip, r2, #1
    cf4c:	11f0cacc 	mvnsne	ip, ip, asr #21
    cf50:	0a00000d 	beq	cf8c <__cmpdf2+0x54>
    cf54:	e191c080 	orrs	ip, r1, r0, lsl #1
    cf58:	0193c082 	orrseq	ip, r3, r2, lsl #1
    cf5c:	11300002 	teqne	r0, r2
    cf60:	01310003 	teqeq	r1, r3
    cf64:	03a00000 	moveq	r0, #0
    cf68:	012fff1e 	bxeq	lr
    cf6c:	e3700000 	cmn	r0, #0
    cf70:	e1300002 	teq	r0, r2
    cf74:	51500002 	cmppl	r0, r2
    cf78:	01510003 	cmpeq	r1, r3
    cf7c:	21a00fc2 	asrcs	r0, r2, #31
    cf80:	31e00fc2 	mvncc	r0, r2, asr #31
    cf84:	e3800001 	orr	r0, r0, #1
    cf88:	e12fff1e 	bx	lr
    cf8c:	e1a0c080 	lsl	ip, r0, #1
    cf90:	e1f0cacc 	mvns	ip, ip, asr #21
    cf94:	1a000001 	bne	cfa0 <__cmpdf2+0x68>
    cf98:	e191c600 	orrs	ip, r1, r0, lsl #12
    cf9c:	1a000004 	bne	cfb4 <__cmpdf2+0x7c>
    cfa0:	e1a0c082 	lsl	ip, r2, #1
    cfa4:	e1f0cacc 	mvns	ip, ip, asr #21
    cfa8:	1affffe9 	bne	cf54 <__cmpdf2+0x1c>
    cfac:	e193c602 	orrs	ip, r3, r2, lsl #12
    cfb0:	0affffe7 	beq	cf54 <__cmpdf2+0x1c>
    cfb4:	e51d0004 	ldr	r0, [sp, #-4]
    cfb8:	e12fff1e 	bx	lr

0000cfbc <__aeabi_cdrcmple>:
    cfbc:	e1a0c000 	mov	ip, r0
    cfc0:	e1a00002 	mov	r0, r2
    cfc4:	e1a0200c 	mov	r2, ip
    cfc8:	e1a0c001 	mov	ip, r1
    cfcc:	e1a01003 	mov	r1, r3
    cfd0:	e1a0300c 	mov	r3, ip
    cfd4:	eaffffff 	b	cfd8 <__aeabi_cdcmpeq>

0000cfd8 <__aeabi_cdcmpeq>:
    cfd8:	e92d4001 	push	{r0, lr}
    cfdc:	ebffffd5 	bl	cf38 <__cmpdf2>
    cfe0:	e3500000 	cmp	r0, #0
    cfe4:	43700000 	cmnmi	r0, #0
    cfe8:	e8bd4001 	pop	{r0, lr}
    cfec:	e12fff1e 	bx	lr

0000cff0 <__aeabi_dcmpeq>:
    cff0:	e52de008 	str	lr, [sp, #-8]!
    cff4:	ebfffff7 	bl	cfd8 <__aeabi_cdcmpeq>
    cff8:	03a00001 	moveq	r0, #1
    cffc:	13a00000 	movne	r0, #0
    d000:	e49de008 	ldr	lr, [sp], #8
    d004:	e12fff1e 	bx	lr

0000d008 <__aeabi_dcmplt>:
    d008:	e52de008 	str	lr, [sp, #-8]!
    d00c:	ebfffff1 	bl	cfd8 <__aeabi_cdcmpeq>
    d010:	33a00001 	movcc	r0, #1
    d014:	23a00000 	movcs	r0, #0
    d018:	e49de008 	ldr	lr, [sp], #8
    d01c:	e12fff1e 	bx	lr

0000d020 <__aeabi_dcmple>:
    d020:	e52de008 	str	lr, [sp, #-8]!
    d024:	ebffffeb 	bl	cfd8 <__aeabi_cdcmpeq>
    d028:	93a00001 	movls	r0, #1
    d02c:	83a00000 	movhi	r0, #0
    d030:	e49de008 	ldr	lr, [sp], #8
    d034:	e12fff1e 	bx	lr

0000d038 <__aeabi_dcmpge>:
    d038:	e52de008 	str	lr, [sp, #-8]!
    d03c:	ebffffde 	bl	cfbc <__aeabi_cdrcmple>
    d040:	93a00001 	movls	r0, #1
    d044:	83a00000 	movhi	r0, #0
    d048:	e49de008 	ldr	lr, [sp], #8
    d04c:	e12fff1e 	bx	lr

0000d050 <__aeabi_dcmpgt>:
    d050:	e52de008 	str	lr, [sp, #-8]!
    d054:	ebffffd8 	bl	cfbc <__aeabi_cdrcmple>
    d058:	33a00001 	movcc	r0, #1
    d05c:	23a00000 	movcs	r0, #0
    d060:	e49de008 	ldr	lr, [sp], #8
    d064:	e12fff1e 	bx	lr

0000d068 <__aeabi_d2iz>:
    d068:	e1a02080 	lsl	r2, r0, #1
    d06c:	e2922602 	adds	r2, r2, #2097152	; 0x200000
    d070:	2a00000c 	bcs	d0a8 <__aeabi_d2iz+0x40>
    d074:	5a000009 	bpl	d0a0 <__aeabi_d2iz+0x38>
    d078:	e3e03e3e 	mvn	r3, #992	; 0x3e0
    d07c:	e0532ac2 	subs	r2, r3, r2, asr #21
    d080:	9a00000a 	bls	d0b0 <__aeabi_d2iz+0x48>
    d084:	e1a03580 	lsl	r3, r0, #11
    d088:	e3833102 	orr	r3, r3, #-2147483648	; 0x80000000
    d08c:	e1833aa1 	orr	r3, r3, r1, lsr #21
    d090:	e3100102 	tst	r0, #-2147483648	; 0x80000000
    d094:	e1a00233 	lsr	r0, r3, r2
    d098:	12600000 	rsbne	r0, r0, #0
    d09c:	e12fff1e 	bx	lr
    d0a0:	e3a00000 	mov	r0, #0
    d0a4:	e12fff1e 	bx	lr
    d0a8:	e1911600 	orrs	r1, r1, r0, lsl #12
    d0ac:	1a000002 	bne	d0bc <__aeabi_d2iz+0x54>
    d0b0:	e2100102 	ands	r0, r0, #-2147483648	; 0x80000000
    d0b4:	03e00102 	mvneq	r0, #-2147483648	; 0x80000000
    d0b8:	e12fff1e 	bx	lr
    d0bc:	e3a00000 	mov	r0, #0
    d0c0:	e12fff1e 	bx	lr

0000d0c4 <__aeabi_d2f>:
    d0c4:	e1a02080 	lsl	r2, r0, #1
    d0c8:	e2523207 	subs	r3, r2, #1879048192	; 0x70000000
    d0cc:	2253c602 	subscs	ip, r3, #2097152	; 0x200000
    d0d0:	227cc57f 	rsbscs	ip, ip, #532676608	; 0x1fc00000
    d0d4:	9a000006 	bls	d0f4 <__aeabi_d2f+0x30>
    d0d8:	e200c102 	and	ip, r0, #-2147483648	; 0x80000000
    d0dc:	e1a02181 	lsl	r2, r1, #3
    d0e0:	e18c1ea1 	orr	r1, ip, r1, lsr #29
    d0e4:	e3520102 	cmp	r2, #-2147483648	; 0x80000000
    d0e8:	e0a10103 	adc	r0, r1, r3, lsl #2
    d0ec:	03c00001 	biceq	r0, r0, #1
    d0f0:	e12fff1e 	bx	lr
    d0f4:	e3100101 	tst	r0, #1073741824	; 0x40000000
    d0f8:	1a00000f 	bne	d13c <__aeabi_d2f+0x78>
    d0fc:	e293262e 	adds	r2, r3, #48234496	; 0x2e00000
    d100:	b2000102 	andlt	r0, r0, #-2147483648	; 0x80000000
    d104:	b12fff1e 	bxlt	lr
    d108:	e3800601 	orr	r0, r0, #1048576	; 0x100000
    d10c:	e1a02aa2 	lsr	r2, r2, #21
    d110:	e2622018 	rsb	r2, r2, #24
    d114:	e262c020 	rsb	ip, r2, #32
    d118:	e1b03c11 	lsls	r3, r1, ip
    d11c:	e1a01231 	lsr	r1, r1, r2
    d120:	13811001 	orrne	r1, r1, #1
    d124:	e1a03580 	lsl	r3, r0, #11
    d128:	e1a035a3 	lsr	r3, r3, #11
    d12c:	e1811c13 	orr	r1, r1, r3, lsl ip
    d130:	e1a03233 	lsr	r3, r3, r2
    d134:	e1a03083 	lsl	r3, r3, #1
    d138:	eaffffe6 	b	d0d8 <__aeabi_d2f+0x14>
    d13c:	e1f03ac2 	mvns	r3, r2, asr #21
    d140:	1a000003 	bne	d154 <__aeabi_d2f+0x90>
    d144:	e1913600 	orrs	r3, r1, r0, lsl #12
    d148:	13a0047f 	movne	r0, #2130706432	; 0x7f000000
    d14c:	13800503 	orrne	r0, r0, #12582912	; 0xc00000
    d150:	112fff1e 	bxne	lr
    d154:	e2000102 	and	r0, r0, #-2147483648	; 0x80000000
    d158:	e380047f 	orr	r0, r0, #2130706432	; 0x7f000000
    d15c:	e3800502 	orr	r0, r0, #8388608	; 0x800000
    d160:	e12fff1e 	bx	lr

0000d164 <__aeabi_frsub>:
    d164:	e2200102 	eor	r0, r0, #-2147483648	; 0x80000000
    d168:	ea000000 	b	d170 <__addsf3>

0000d16c <__aeabi_fsub>:
    d16c:	e2211102 	eor	r1, r1, #-2147483648	; 0x80000000

0000d170 <__addsf3>:
    d170:	e1b02080 	lsls	r2, r0, #1
    d174:	11b03081 	lslsne	r3, r1, #1
    d178:	11320003 	teqne	r2, r3
    d17c:	11f0cc42 	mvnsne	ip, r2, asr #24
    d180:	11f0cc43 	mvnsne	ip, r3, asr #24
    d184:	0a000047 	beq	d2a8 <__addsf3+0x138>
    d188:	e1a02c22 	lsr	r2, r2, #24
    d18c:	e0723c23 	rsbs	r3, r2, r3, lsr #24
    d190:	c0822003 	addgt	r2, r2, r3
    d194:	c0201001 	eorgt	r1, r0, r1
    d198:	c0210000 	eorgt	r0, r1, r0
    d19c:	c0201001 	eorgt	r1, r0, r1
    d1a0:	b2633000 	rsblt	r3, r3, #0
    d1a4:	e3530019 	cmp	r3, #25
    d1a8:	812fff1e 	bxhi	lr
    d1ac:	e3100102 	tst	r0, #-2147483648	; 0x80000000
    d1b0:	e3800502 	orr	r0, r0, #8388608	; 0x800000
    d1b4:	e3c004ff 	bic	r0, r0, #-16777216	; 0xff000000
    d1b8:	12600000 	rsbne	r0, r0, #0
    d1bc:	e3110102 	tst	r1, #-2147483648	; 0x80000000
    d1c0:	e3811502 	orr	r1, r1, #8388608	; 0x800000
    d1c4:	e3c114ff 	bic	r1, r1, #-16777216	; 0xff000000
    d1c8:	12611000 	rsbne	r1, r1, #0
    d1cc:	e1320003 	teq	r2, r3
    d1d0:	0a00002e 	beq	d290 <__addsf3+0x120>
    d1d4:	e2422001 	sub	r2, r2, #1
    d1d8:	e0900351 	adds	r0, r0, r1, asr r3
    d1dc:	e2633020 	rsb	r3, r3, #32
    d1e0:	e1a01311 	lsl	r1, r1, r3
    d1e4:	e2003102 	and	r3, r0, #-2147483648	; 0x80000000
    d1e8:	5a000001 	bpl	d1f4 <__addsf3+0x84>
    d1ec:	e2711000 	rsbs	r1, r1, #0
    d1f0:	e2e00000 	rsc	r0, r0, #0
    d1f4:	e3500502 	cmp	r0, #8388608	; 0x800000
    d1f8:	3a00000b 	bcc	d22c <__addsf3+0xbc>
    d1fc:	e3500401 	cmp	r0, #16777216	; 0x1000000
    d200:	3a000004 	bcc	d218 <__addsf3+0xa8>
    d204:	e1b000a0 	lsrs	r0, r0, #1
    d208:	e1a01061 	rrx	r1, r1
    d20c:	e2822001 	add	r2, r2, #1
    d210:	e35200fe 	cmp	r2, #254	; 0xfe
    d214:	2a000038 	bcs	d2fc <__addsf3+0x18c>
    d218:	e3510102 	cmp	r1, #-2147483648	; 0x80000000
    d21c:	e0a00b82 	adc	r0, r0, r2, lsl #23
    d220:	03c00001 	biceq	r0, r0, #1
    d224:	e1800003 	orr	r0, r0, r3
    d228:	e12fff1e 	bx	lr
    d22c:	e1b01081 	lsls	r1, r1, #1
    d230:	e0a00000 	adc	r0, r0, r0
    d234:	e3100502 	tst	r0, #8388608	; 0x800000
    d238:	e2422001 	sub	r2, r2, #1
    d23c:	1afffff5 	bne	d218 <__addsf3+0xa8>
    d240:	e1b0c620 	lsrs	ip, r0, #12
    d244:	01a00600 	lsleq	r0, r0, #12
    d248:	0242200c 	subeq	r2, r2, #12
    d24c:	e31008ff 	tst	r0, #16711680	; 0xff0000
    d250:	01a00400 	lsleq	r0, r0, #8
    d254:	02422008 	subeq	r2, r2, #8
    d258:	e310060f 	tst	r0, #15728640	; 0xf00000
    d25c:	01a00200 	lsleq	r0, r0, #4
    d260:	02422004 	subeq	r2, r2, #4
    d264:	e3100503 	tst	r0, #12582912	; 0xc00000
    d268:	01a00100 	lsleq	r0, r0, #2
    d26c:	02422002 	subeq	r2, r2, #2
    d270:	e3500502 	cmp	r0, #8388608	; 0x800000
    d274:	31a00080 	lslcc	r0, r0, #1
    d278:	e2d22000 	sbcs	r2, r2, #0
    d27c:	a0800b82 	addge	r0, r0, r2, lsl #23
    d280:	b2622000 	rsblt	r2, r2, #0
    d284:	a1800003 	orrge	r0, r0, r3
    d288:	b1830230 	orrlt	r0, r3, r0, lsr r2
    d28c:	e12fff1e 	bx	lr
    d290:	e3320000 	teq	r2, #0
    d294:	e2211502 	eor	r1, r1, #8388608	; 0x800000
    d298:	02200502 	eoreq	r0, r0, #8388608	; 0x800000
    d29c:	02822001 	addeq	r2, r2, #1
    d2a0:	12433001 	subne	r3, r3, #1
    d2a4:	eaffffca 	b	d1d4 <__addsf3+0x64>
    d2a8:	e1a03081 	lsl	r3, r1, #1
    d2ac:	e1f0cc42 	mvns	ip, r2, asr #24
    d2b0:	11f0cc43 	mvnsne	ip, r3, asr #24
    d2b4:	0a000013 	beq	d308 <__addsf3+0x198>
    d2b8:	e1320003 	teq	r2, r3
    d2bc:	0a000002 	beq	d2cc <__addsf3+0x15c>
    d2c0:	e3320000 	teq	r2, #0
    d2c4:	01a00001 	moveq	r0, r1
    d2c8:	e12fff1e 	bx	lr
    d2cc:	e1300001 	teq	r0, r1
    d2d0:	13a00000 	movne	r0, #0
    d2d4:	112fff1e 	bxne	lr
    d2d8:	e31204ff 	tst	r2, #-16777216	; 0xff000000
    d2dc:	1a000002 	bne	d2ec <__addsf3+0x17c>
    d2e0:	e1b00080 	lsls	r0, r0, #1
    d2e4:	23800102 	orrcs	r0, r0, #-2147483648	; 0x80000000
    d2e8:	e12fff1e 	bx	lr
    d2ec:	e2922402 	adds	r2, r2, #33554432	; 0x2000000
    d2f0:	32800502 	addcc	r0, r0, #8388608	; 0x800000
    d2f4:	312fff1e 	bxcc	lr
    d2f8:	e2003102 	and	r3, r0, #-2147483648	; 0x80000000
    d2fc:	e383047f 	orr	r0, r3, #2130706432	; 0x7f000000
    d300:	e3800502 	orr	r0, r0, #8388608	; 0x800000
    d304:	e12fff1e 	bx	lr
    d308:	e1f02c42 	mvns	r2, r2, asr #24
    d30c:	11a00001 	movne	r0, r1
    d310:	01f03c43 	mvnseq	r3, r3, asr #24
    d314:	11a01000 	movne	r1, r0
    d318:	e1b02480 	lsls	r2, r0, #9
    d31c:	01b03481 	lslseq	r3, r1, #9
    d320:	01300001 	teqeq	r0, r1
    d324:	13800501 	orrne	r0, r0, #4194304	; 0x400000
    d328:	e12fff1e 	bx	lr

0000d32c <__aeabi_ui2f>:
    d32c:	e3a03000 	mov	r3, #0
    d330:	ea000001 	b	d33c <__aeabi_i2f+0x8>

0000d334 <__aeabi_i2f>:
    d334:	e2103102 	ands	r3, r0, #-2147483648	; 0x80000000
    d338:	42600000 	rsbmi	r0, r0, #0
    d33c:	e1b0c000 	movs	ip, r0
    d340:	012fff1e 	bxeq	lr
    d344:	e383344b 	orr	r3, r3, #1258291200	; 0x4b000000
    d348:	e1a01000 	mov	r1, r0
    d34c:	e3a00000 	mov	r0, #0
    d350:	ea00000f 	b	d394 <__aeabi_l2f+0x30>

0000d354 <__aeabi_ul2f>:
    d354:	e1902001 	orrs	r2, r0, r1
    d358:	012fff1e 	bxeq	lr
    d35c:	e3a03000 	mov	r3, #0
    d360:	ea000005 	b	d37c <__aeabi_l2f+0x18>

0000d364 <__aeabi_l2f>:
    d364:	e1902001 	orrs	r2, r0, r1
    d368:	012fff1e 	bxeq	lr
    d36c:	e2113102 	ands	r3, r1, #-2147483648	; 0x80000000
    d370:	5a000001 	bpl	d37c <__aeabi_l2f+0x18>
    d374:	e2700000 	rsbs	r0, r0, #0
    d378:	e2e11000 	rsc	r1, r1, #0
    d37c:	e1b0c001 	movs	ip, r1
    d380:	01a0c000 	moveq	ip, r0
    d384:	01a01000 	moveq	r1, r0
    d388:	03a00000 	moveq	r0, #0
    d38c:	e383345b 	orr	r3, r3, #1526726656	; 0x5b000000
    d390:	02433201 	subeq	r3, r3, #268435456	; 0x10000000
    d394:	e2433502 	sub	r3, r3, #8388608	; 0x800000
    d398:	e3a02017 	mov	r2, #23
    d39c:	e35c0801 	cmp	ip, #65536	; 0x10000
    d3a0:	21a0c82c 	lsrcs	ip, ip, #16
    d3a4:	22422010 	subcs	r2, r2, #16
    d3a8:	e35c0c01 	cmp	ip, #256	; 0x100
    d3ac:	21a0c42c 	lsrcs	ip, ip, #8
    d3b0:	22422008 	subcs	r2, r2, #8
    d3b4:	e35c0010 	cmp	ip, #16
    d3b8:	21a0c22c 	lsrcs	ip, ip, #4
    d3bc:	22422004 	subcs	r2, r2, #4
    d3c0:	e35c0004 	cmp	ip, #4
    d3c4:	22422002 	subcs	r2, r2, #2
    d3c8:	304220ac 	subcc	r2, r2, ip, lsr #1
    d3cc:	e05221ac 	subs	r2, r2, ip, lsr #3
    d3d0:	e0433b82 	sub	r3, r3, r2, lsl #23
    d3d4:	ba000006 	blt	d3f4 <__aeabi_l2f+0x90>
    d3d8:	e0833211 	add	r3, r3, r1, lsl r2
    d3dc:	e1a0c210 	lsl	ip, r0, r2
    d3e0:	e2622020 	rsb	r2, r2, #32
    d3e4:	e35c0102 	cmp	ip, #-2147483648	; 0x80000000
    d3e8:	e0a30230 	adc	r0, r3, r0, lsr r2
    d3ec:	03c00001 	biceq	r0, r0, #1
    d3f0:	e12fff1e 	bx	lr
    d3f4:	e2822020 	add	r2, r2, #32
    d3f8:	e1a0c211 	lsl	ip, r1, r2
    d3fc:	e2622020 	rsb	r2, r2, #32
    d400:	e190008c 	orrs	r0, r0, ip, lsl #1
    d404:	e0a30231 	adc	r0, r3, r1, lsr r2
    d408:	01c00fac 	biceq	r0, r0, ip, lsr #31
    d40c:	e12fff1e 	bx	lr

0000d410 <__aeabi_fmul>:
    d410:	e3a0c0ff 	mov	ip, #255	; 0xff
    d414:	e01c2ba0 	ands	r2, ip, r0, lsr #23
    d418:	101c3ba1 	andsne	r3, ip, r1, lsr #23
    d41c:	1132000c 	teqne	r2, ip
    d420:	1133000c 	teqne	r3, ip
    d424:	0a00003e 	beq	d524 <__aeabi_fmul+0x114>
    d428:	e0822003 	add	r2, r2, r3
    d42c:	e020c001 	eor	ip, r0, r1
    d430:	e1b00480 	lsls	r0, r0, #9
    d434:	11b01481 	lslsne	r1, r1, #9
    d438:	0a000010 	beq	d480 <__aeabi_fmul+0x70>
    d43c:	e3a03302 	mov	r3, #134217728	; 0x8000000
    d440:	e18302a0 	orr	r0, r3, r0, lsr #5
    d444:	e18312a1 	orr	r1, r3, r1, lsr #5
    d448:	e0813190 	umull	r3, r1, r0, r1
    d44c:	e20c0102 	and	r0, ip, #-2147483648	; 0x80000000
    d450:	e3510502 	cmp	r1, #8388608	; 0x800000
    d454:	31a01081 	lslcc	r1, r1, #1
    d458:	31811fa3 	orrcc	r1, r1, r3, lsr #31
    d45c:	31a03083 	lslcc	r3, r3, #1
    d460:	e1800001 	orr	r0, r0, r1
    d464:	e2c2207f 	sbc	r2, r2, #127	; 0x7f
    d468:	e35200fd 	cmp	r2, #253	; 0xfd
    d46c:	8a00000f 	bhi	d4b0 <__aeabi_fmul+0xa0>
    d470:	e3530102 	cmp	r3, #-2147483648	; 0x80000000
    d474:	e0a00b82 	adc	r0, r0, r2, lsl #23
    d478:	03c00001 	biceq	r0, r0, #1
    d47c:	e12fff1e 	bx	lr
    d480:	e3300000 	teq	r0, #0
    d484:	e20cc102 	and	ip, ip, #-2147483648	; 0x80000000
    d488:	01a01481 	lsleq	r1, r1, #9
    d48c:	e18c04a0 	orr	r0, ip, r0, lsr #9
    d490:	e18004a1 	orr	r0, r0, r1, lsr #9
    d494:	e252207f 	subs	r2, r2, #127	; 0x7f
    d498:	c27230ff 	rsbsgt	r3, r2, #255	; 0xff
    d49c:	c1800b82 	orrgt	r0, r0, r2, lsl #23
    d4a0:	c12fff1e 	bxgt	lr
    d4a4:	e3800502 	orr	r0, r0, #8388608	; 0x800000
    d4a8:	e3a03000 	mov	r3, #0
    d4ac:	e2522001 	subs	r2, r2, #1
    d4b0:	ca000035 	bgt	d58c <__aeabi_fmul+0x17c>
    d4b4:	e3720019 	cmn	r2, #25
    d4b8:	d2000102 	andle	r0, r0, #-2147483648	; 0x80000000
    d4bc:	d12fff1e 	bxle	lr
    d4c0:	e2622000 	rsb	r2, r2, #0
    d4c4:	e1b01080 	lsls	r1, r0, #1
    d4c8:	e1a01231 	lsr	r1, r1, r2
    d4cc:	e2622020 	rsb	r2, r2, #32
    d4d0:	e1a0c210 	lsl	ip, r0, r2
    d4d4:	e1b00061 	rrxs	r0, r1
    d4d8:	e2a00000 	adc	r0, r0, #0
    d4dc:	e193308c 	orrs	r3, r3, ip, lsl #1
    d4e0:	01c00fac 	biceq	r0, r0, ip, lsr #31
    d4e4:	e12fff1e 	bx	lr
    d4e8:	e3320000 	teq	r2, #0
    d4ec:	e200c102 	and	ip, r0, #-2147483648	; 0x80000000
    d4f0:	01a00080 	lsleq	r0, r0, #1
    d4f4:	03100502 	tsteq	r0, #8388608	; 0x800000
    d4f8:	02422001 	subeq	r2, r2, #1
    d4fc:	0afffffb 	beq	d4f0 <__aeabi_fmul+0xe0>
    d500:	e180000c 	orr	r0, r0, ip
    d504:	e3330000 	teq	r3, #0
    d508:	e201c102 	and	ip, r1, #-2147483648	; 0x80000000
    d50c:	01a01081 	lsleq	r1, r1, #1
    d510:	03110502 	tsteq	r1, #8388608	; 0x800000
    d514:	02433001 	subeq	r3, r3, #1
    d518:	0afffffb 	beq	d50c <__aeabi_fmul+0xfc>
    d51c:	e181100c 	orr	r1, r1, ip
    d520:	eaffffc0 	b	d428 <__aeabi_fmul+0x18>
    d524:	e00c3ba1 	and	r3, ip, r1, lsr #23
    d528:	e132000c 	teq	r2, ip
    d52c:	1133000c 	teqne	r3, ip
    d530:	0a000005 	beq	d54c <__aeabi_fmul+0x13c>
    d534:	e3d0c102 	bics	ip, r0, #-2147483648	; 0x80000000
    d538:	13d1c102 	bicsne	ip, r1, #-2147483648	; 0x80000000
    d53c:	1affffe9 	bne	d4e8 <__aeabi_fmul+0xd8>
    d540:	e0200001 	eor	r0, r0, r1
    d544:	e2000102 	and	r0, r0, #-2147483648	; 0x80000000
    d548:	e12fff1e 	bx	lr
    d54c:	e3300000 	teq	r0, #0
    d550:	13300102 	teqne	r0, #-2147483648	; 0x80000000
    d554:	01a00001 	moveq	r0, r1
    d558:	13310000 	teqne	r1, #0
    d55c:	13310102 	teqne	r1, #-2147483648	; 0x80000000
    d560:	0a00000d 	beq	d59c <__aeabi_fmul+0x18c>
    d564:	e132000c 	teq	r2, ip
    d568:	1a000001 	bne	d574 <__aeabi_fmul+0x164>
    d56c:	e1b02480 	lsls	r2, r0, #9
    d570:	1a000009 	bne	d59c <__aeabi_fmul+0x18c>
    d574:	e133000c 	teq	r3, ip
    d578:	1a000002 	bne	d588 <__aeabi_fmul+0x178>
    d57c:	e1b03481 	lsls	r3, r1, #9
    d580:	11a00001 	movne	r0, r1
    d584:	1a000004 	bne	d59c <__aeabi_fmul+0x18c>
    d588:	e0200001 	eor	r0, r0, r1
    d58c:	e2000102 	and	r0, r0, #-2147483648	; 0x80000000
    d590:	e380047f 	orr	r0, r0, #2130706432	; 0x7f000000
    d594:	e3800502 	orr	r0, r0, #8388608	; 0x800000
    d598:	e12fff1e 	bx	lr
    d59c:	e380047f 	orr	r0, r0, #2130706432	; 0x7f000000
    d5a0:	e3800503 	orr	r0, r0, #12582912	; 0xc00000
    d5a4:	e12fff1e 	bx	lr

0000d5a8 <__aeabi_fdiv>:
    d5a8:	e3a0c0ff 	mov	ip, #255	; 0xff
    d5ac:	e01c2ba0 	ands	r2, ip, r0, lsr #23
    d5b0:	101c3ba1 	andsne	r3, ip, r1, lsr #23
    d5b4:	1132000c 	teqne	r2, ip
    d5b8:	1133000c 	teqne	r3, ip
    d5bc:	0a00003a 	beq	d6ac <__aeabi_fdiv+0x104>
    d5c0:	e0422003 	sub	r2, r2, r3
    d5c4:	e020c001 	eor	ip, r0, r1
    d5c8:	e1b01481 	lsls	r1, r1, #9
    d5cc:	e1a00480 	lsl	r0, r0, #9
    d5d0:	0a00001c 	beq	d648 <__aeabi_fdiv+0xa0>
    d5d4:	e3a03201 	mov	r3, #268435456	; 0x10000000
    d5d8:	e1831221 	orr	r1, r3, r1, lsr #4
    d5dc:	e1833220 	orr	r3, r3, r0, lsr #4
    d5e0:	e20c0102 	and	r0, ip, #-2147483648	; 0x80000000
    d5e4:	e1530001 	cmp	r3, r1
    d5e8:	31a03083 	lslcc	r3, r3, #1
    d5ec:	e2a2207d 	adc	r2, r2, #125	; 0x7d
    d5f0:	e3a0c502 	mov	ip, #8388608	; 0x800000
    d5f4:	e1530001 	cmp	r3, r1
    d5f8:	20433001 	subcs	r3, r3, r1
    d5fc:	2180000c 	orrcs	r0, r0, ip
    d600:	e15300a1 	cmp	r3, r1, lsr #1
    d604:	204330a1 	subcs	r3, r3, r1, lsr #1
    d608:	218000ac 	orrcs	r0, r0, ip, lsr #1
    d60c:	e1530121 	cmp	r3, r1, lsr #2
    d610:	20433121 	subcs	r3, r3, r1, lsr #2
    d614:	2180012c 	orrcs	r0, r0, ip, lsr #2
    d618:	e15301a1 	cmp	r3, r1, lsr #3
    d61c:	204331a1 	subcs	r3, r3, r1, lsr #3
    d620:	218001ac 	orrcs	r0, r0, ip, lsr #3
    d624:	e1b03203 	lsls	r3, r3, #4
    d628:	11b0c22c 	lsrsne	ip, ip, #4
    d62c:	1afffff0 	bne	d5f4 <__aeabi_fdiv+0x4c>
    d630:	e35200fd 	cmp	r2, #253	; 0xfd
    d634:	8affff9d 	bhi	d4b0 <__aeabi_fmul+0xa0>
    d638:	e1530001 	cmp	r3, r1
    d63c:	e0a00b82 	adc	r0, r0, r2, lsl #23
    d640:	03c00001 	biceq	r0, r0, #1
    d644:	e12fff1e 	bx	lr
    d648:	e20cc102 	and	ip, ip, #-2147483648	; 0x80000000
    d64c:	e18c04a0 	orr	r0, ip, r0, lsr #9
    d650:	e292207f 	adds	r2, r2, #127	; 0x7f
    d654:	c27230ff 	rsbsgt	r3, r2, #255	; 0xff
    d658:	c1800b82 	orrgt	r0, r0, r2, lsl #23
    d65c:	c12fff1e 	bxgt	lr
    d660:	e3800502 	orr	r0, r0, #8388608	; 0x800000
    d664:	e3a03000 	mov	r3, #0
    d668:	e2522001 	subs	r2, r2, #1
    d66c:	eaffff8f 	b	d4b0 <__aeabi_fmul+0xa0>
    d670:	e3320000 	teq	r2, #0
    d674:	e200c102 	and	ip, r0, #-2147483648	; 0x80000000
    d678:	01a00080 	lsleq	r0, r0, #1
    d67c:	03100502 	tsteq	r0, #8388608	; 0x800000
    d680:	02422001 	subeq	r2, r2, #1
    d684:	0afffffb 	beq	d678 <__aeabi_fdiv+0xd0>
    d688:	e180000c 	orr	r0, r0, ip
    d68c:	e3330000 	teq	r3, #0
    d690:	e201c102 	and	ip, r1, #-2147483648	; 0x80000000
    d694:	01a01081 	lsleq	r1, r1, #1
    d698:	03110502 	tsteq	r1, #8388608	; 0x800000
    d69c:	02433001 	subeq	r3, r3, #1
    d6a0:	0afffffb 	beq	d694 <__aeabi_fdiv+0xec>
    d6a4:	e181100c 	orr	r1, r1, ip
    d6a8:	eaffffc4 	b	d5c0 <__aeabi_fdiv+0x18>
    d6ac:	e00c3ba1 	and	r3, ip, r1, lsr #23
    d6b0:	e132000c 	teq	r2, ip
    d6b4:	1a000005 	bne	d6d0 <__aeabi_fdiv+0x128>
    d6b8:	e1b02480 	lsls	r2, r0, #9
    d6bc:	1affffb6 	bne	d59c <__aeabi_fmul+0x18c>
    d6c0:	e133000c 	teq	r3, ip
    d6c4:	1affffaf 	bne	d588 <__aeabi_fmul+0x178>
    d6c8:	e1a00001 	mov	r0, r1
    d6cc:	eaffffb2 	b	d59c <__aeabi_fmul+0x18c>
    d6d0:	e133000c 	teq	r3, ip
    d6d4:	1a000003 	bne	d6e8 <__aeabi_fdiv+0x140>
    d6d8:	e1b03481 	lsls	r3, r1, #9
    d6dc:	0affff97 	beq	d540 <__aeabi_fmul+0x130>
    d6e0:	e1a00001 	mov	r0, r1
    d6e4:	eaffffac 	b	d59c <__aeabi_fmul+0x18c>
    d6e8:	e3d0c102 	bics	ip, r0, #-2147483648	; 0x80000000
    d6ec:	13d1c102 	bicsne	ip, r1, #-2147483648	; 0x80000000
    d6f0:	1affffde 	bne	d670 <__aeabi_fdiv+0xc8>
    d6f4:	e3d02102 	bics	r2, r0, #-2147483648	; 0x80000000
    d6f8:	1affffa2 	bne	d588 <__aeabi_fmul+0x178>
    d6fc:	e3d13102 	bics	r3, r1, #-2147483648	; 0x80000000
    d700:	1affff8e 	bne	d540 <__aeabi_fmul+0x130>
    d704:	eaffffa4 	b	d59c <__aeabi_fmul+0x18c>

0000d708 <__gesf2>:
    d708:	e3e0c000 	mvn	ip, #0
    d70c:	ea000002 	b	d71c <__cmpsf2+0x4>

0000d710 <__lesf2>:
    d710:	e3a0c001 	mov	ip, #1
    d714:	ea000000 	b	d71c <__cmpsf2+0x4>

0000d718 <__cmpsf2>:
    d718:	e3a0c001 	mov	ip, #1
    d71c:	e50dc004 	str	ip, [sp, #-4]
    d720:	e1a02080 	lsl	r2, r0, #1
    d724:	e1a03081 	lsl	r3, r1, #1
    d728:	e1f0cc42 	mvns	ip, r2, asr #24
    d72c:	11f0cc43 	mvnsne	ip, r3, asr #24
    d730:	0a000006 	beq	d750 <__cmpsf2+0x38>
    d734:	e192c0a3 	orrs	ip, r2, r3, lsr #1
    d738:	11300001 	teqne	r0, r1
    d73c:	50520003 	subspl	r0, r2, r3
    d740:	81a00fc1 	asrhi	r0, r1, #31
    d744:	31e00fc1 	mvncc	r0, r1, asr #31
    d748:	13800001 	orrne	r0, r0, #1
    d74c:	e12fff1e 	bx	lr
    d750:	e1f0cc42 	mvns	ip, r2, asr #24
    d754:	1a000001 	bne	d760 <__cmpsf2+0x48>
    d758:	e1b0c480 	lsls	ip, r0, #9
    d75c:	1a000003 	bne	d770 <__cmpsf2+0x58>
    d760:	e1f0cc43 	mvns	ip, r3, asr #24
    d764:	1afffff2 	bne	d734 <__cmpsf2+0x1c>
    d768:	e1b0c481 	lsls	ip, r1, #9
    d76c:	0afffff0 	beq	d734 <__cmpsf2+0x1c>
    d770:	e51d0004 	ldr	r0, [sp, #-4]
    d774:	e12fff1e 	bx	lr

0000d778 <__aeabi_cfrcmple>:
    d778:	e1a0c000 	mov	ip, r0
    d77c:	e1a00001 	mov	r0, r1
    d780:	e1a0100c 	mov	r1, ip
    d784:	eaffffff 	b	d788 <__aeabi_cfcmpeq>

0000d788 <__aeabi_cfcmpeq>:
    d788:	e92d400f 	push	{r0, r1, r2, r3, lr}
    d78c:	ebffffe1 	bl	d718 <__cmpsf2>
    d790:	e3500000 	cmp	r0, #0
    d794:	43700000 	cmnmi	r0, #0
    d798:	e8bd400f 	pop	{r0, r1, r2, r3, lr}
    d79c:	e12fff1e 	bx	lr

0000d7a0 <__aeabi_fcmpeq>:
    d7a0:	e52de008 	str	lr, [sp, #-8]!
    d7a4:	ebfffff7 	bl	d788 <__aeabi_cfcmpeq>
    d7a8:	03a00001 	moveq	r0, #1
    d7ac:	13a00000 	movne	r0, #0
    d7b0:	e49de008 	ldr	lr, [sp], #8
    d7b4:	e12fff1e 	bx	lr

0000d7b8 <__aeabi_fcmplt>:
    d7b8:	e52de008 	str	lr, [sp, #-8]!
    d7bc:	ebfffff1 	bl	d788 <__aeabi_cfcmpeq>
    d7c0:	33a00001 	movcc	r0, #1
    d7c4:	23a00000 	movcs	r0, #0
    d7c8:	e49de008 	ldr	lr, [sp], #8
    d7cc:	e12fff1e 	bx	lr

0000d7d0 <__aeabi_fcmple>:
    d7d0:	e52de008 	str	lr, [sp, #-8]!
    d7d4:	ebffffeb 	bl	d788 <__aeabi_cfcmpeq>
    d7d8:	93a00001 	movls	r0, #1
    d7dc:	83a00000 	movhi	r0, #0
    d7e0:	e49de008 	ldr	lr, [sp], #8
    d7e4:	e12fff1e 	bx	lr

0000d7e8 <__aeabi_fcmpge>:
    d7e8:	e52de008 	str	lr, [sp, #-8]!
    d7ec:	ebffffe1 	bl	d778 <__aeabi_cfrcmple>
    d7f0:	93a00001 	movls	r0, #1
    d7f4:	83a00000 	movhi	r0, #0
    d7f8:	e49de008 	ldr	lr, [sp], #8
    d7fc:	e12fff1e 	bx	lr

0000d800 <__aeabi_fcmpgt>:
    d800:	e52de008 	str	lr, [sp, #-8]!
    d804:	ebffffdb 	bl	d778 <__aeabi_cfrcmple>
    d808:	33a00001 	movcc	r0, #1
    d80c:	23a00000 	movcs	r0, #0
    d810:	e49de008 	ldr	lr, [sp], #8
    d814:	e12fff1e 	bx	lr

0000d818 <__aeabi_f2iz>:
    d818:	e1a02080 	lsl	r2, r0, #1
    d81c:	e352047f 	cmp	r2, #2130706432	; 0x7f000000
    d820:	3a000008 	bcc	d848 <__aeabi_f2iz+0x30>
    d824:	e3a0309e 	mov	r3, #158	; 0x9e
    d828:	e0532c22 	subs	r2, r3, r2, lsr #24
    d82c:	9a000007 	bls	d850 <__aeabi_f2iz+0x38>
    d830:	e1a03400 	lsl	r3, r0, #8
    d834:	e3833102 	orr	r3, r3, #-2147483648	; 0x80000000
    d838:	e3100102 	tst	r0, #-2147483648	; 0x80000000
    d83c:	e1a00233 	lsr	r0, r3, r2
    d840:	12600000 	rsbne	r0, r0, #0
    d844:	e12fff1e 	bx	lr
    d848:	e3a00000 	mov	r0, #0
    d84c:	e12fff1e 	bx	lr
    d850:	e3720061 	cmn	r2, #97	; 0x61
    d854:	1a000001 	bne	d860 <__aeabi_f2iz+0x48>
    d858:	e1b02480 	lsls	r2, r0, #9
    d85c:	1a000002 	bne	d86c <__aeabi_f2iz+0x54>
    d860:	e2100102 	ands	r0, r0, #-2147483648	; 0x80000000
    d864:	03e00102 	mvneq	r0, #-2147483648	; 0x80000000
    d868:	e12fff1e 	bx	lr
    d86c:	e3a00000 	mov	r0, #0
    d870:	e12fff1e 	bx	lr

0000d874 <__errno>:
    d874:	4b01      	ldr	r3, [pc, #4]	; (d87c <__errno+0x8>)
    d876:	6818      	ldr	r0, [r3, #0]
    d878:	4770      	bx	lr
    d87a:	46c0      	nop			; (mov r8, r8)
    d87c:	40000560 	.word	0x40000560

0000d880 <__memcpy_from_arm>:
    d880:	e59fc000 	ldr	ip, [pc]	; d888 <__memcpy_from_arm+0x8>
    d884:	e12fff1c 	bx	ip
    d888:	0000741d 	.word	0x0000741d

0000d88c <____divsi3_from_arm>:
    d88c:	e59fc000 	ldr	ip, [pc]	; d894 <____divsi3_from_arm+0x8>
    d890:	e12fff1c 	bx	ip
    d894:	00007505 	.word	0x00007505

0000d898 <__cos_from_arm>:
    d898:	e59fc000 	ldr	ip, [pc]	; d8a0 <__cos_from_arm+0x8>
    d89c:	e12fff1c 	bx	ip
    d8a0:	0000b0c9 	.word	0x0000b0c9

0000d8a4 <____udivsi3_from_arm>:
    d8a4:	e59fc000 	ldr	ip, [pc]	; d8ac <____udivsi3_from_arm+0x8>
    d8a8:	e12fff1c 	bx	ip
    d8ac:	00007479 	.word	0x00007479

0000d8b0 <__sqrt_from_arm>:
    d8b0:	e59fc000 	ldr	ip, [pc]	; d8b8 <__sqrt_from_arm+0x8>
    d8b4:	e12fff1c 	bx	ip
    d8b8:	0000b30d 	.word	0x0000b30d

0000d8bc <__sin_from_arm>:
    d8bc:	e59fc000 	ldr	ip, [pc]	; d8c4 <__sin_from_arm+0x8>
    d8c0:	e12fff1c 	bx	ip
    d8c4:	0000b181 	.word	0x0000b181

0000d8c8 <__atan2_from_arm>:
    d8c8:	e59fc000 	ldr	ip, [pc]	; d8d0 <__atan2_from_arm+0x8>
    d8cc:	e12fff1c 	bx	ip
    d8d0:	0000b23d 	.word	0x0000b23d
    d8d4:	00000000 	.word	0x00000000

0000d8d8 <____floatsidf_from_thumb>:
    d8d8:	4778      	bx	pc
    d8da:	46c0      	nop			; (mov r8, r8)
    d8dc:	eaffe803 	b	78f0 <__aeabi_i2d>

0000d8e0 <____ltdf2_from_thumb>:
    d8e0:	4778      	bx	pc
    d8e2:	46c0      	nop			; (mov r8, r8)
    d8e4:	eafffd91 	b	cf30 <__ledf2>

0000d8e8 <____divdf3_from_thumb>:
    d8e8:	4778      	bx	pc
    d8ea:	46c0      	nop			; (mov r8, r8)
    d8ec:	eaffe8de 	b	7c6c <__aeabi_ddiv>

0000d8f0 <____eqdf2_from_thumb>:
    d8f0:	4778      	bx	pc
    d8f2:	46c0      	nop			; (mov r8, r8)
    d8f4:	eafffd8f 	b	cf38 <__cmpdf2>

0000d8f8 <____gedf2_from_thumb>:
    d8f8:	4778      	bx	pc
    d8fa:	46c0      	nop			; (mov r8, r8)
    d8fc:	eafffd89 	b	cf28 <__gedf2>

0000d900 <____muldf3_from_thumb>:
    d900:	4778      	bx	pc
    d902:	46c0      	nop			; (mov r8, r8)
    d904:	eaffe834 	b	79dc <__aeabi_dmul>

0000d908 <____adddf3_from_thumb>:
    d908:	4778      	bx	pc
    d90a:	46c0      	nop			; (mov r8, r8)
    d90c:	eaffe729 	b	75b8 <__adddf3>

0000d910 <____subdf3_from_thumb>:
    d910:	4778      	bx	pc
    d912:	46c0      	nop			; (mov r8, r8)
    d914:	eaffe726 	b	75b4 <__aeabi_dsub>

0000d918 <____fixdfsi_from_thumb>:
    d918:	4778      	bx	pc
    d91a:	46c0      	nop			; (mov r8, r8)
    d91c:	eafffdd1 	b	d068 <__aeabi_d2iz>

0000d920 <____gtdf2_from_thumb>:
    d920:	4778      	bx	pc
    d922:	46c0      	nop			; (mov r8, r8)
    d924:	eafffd7f 	b	cf28 <__gedf2>
    d928:	20706553 	.word	0x20706553
    d92c:	32203420 	.word	0x32203420
    d930:	00343130 	.word	0x00343130

0000d934 <C.0.1302>:
    d934:	466e614a 614d6265 72704172 4a79614d     JanFebMarAprMayJ
    d944:	754a6e75 6775416c 4f706553 6f4e7463     unJulAugSepOctNo
    d954:	7a654476 65444252 75657571 42203a65     vDezRBDequeue: B
    d964:	65666675 6d452072 21797470 0000000a     uffer Empty!....
    d974:	66754231 20726566 4c4c5546 00000a21     1Buffer FULL!...
    d984:	55424544 00003a47 0000003a 0000000a     DEBUG:..:.......
    d994:	6e617461 00000032 74727173 00000000     atan2...sqrt....

0000d9a4 <npio2_hw>:
    d9a4:	3ff921fb 400921fb 4012d97c 401921fb     .!.?.!.@|..@.!.@
    d9b4:	401f6a7a 4022d97c 4025fdbb 402921fb     zj.@|."@..%@.!)@
    d9c4:	402c463a 402f6a7a 4031475c 4032d97c     :F,@zj/@\G1@|.2@
    d9d4:	40346b9c 4035fdbb 40378fdb 403921fb     .k4@..5@..7@.!9@
    d9e4:	403ab41b 403c463a 403dd85a 403f6a7a     ..:@:F<@Z.=@zj?@
    d9f4:	40407e4c 4041475c 4042106c 4042d97c     L~@@\GA@l.B@|.B@
    da04:	4043a28c 40446b9c 404534ac 4045fdbb     ..C@.kD@.4E@..E@
    da14:	4046c6cb 40478fdb 404858eb 404921fb     ..F@..G@.XH@.!I@

0000da24 <two_over_pi>:
    da24:	00a2f983 006e4e44 001529fc 002757d1     ....DNn..)...W'.
    da34:	00f534dd 00c0db62 0095993c 00439041     .4..b...<...A.C.
    da44:	00fe5163 00abdebb 00c561b7 00246e3a     cQ.......a..:n$.
    da54:	00424dd2 00e00649 002eea09 00d1921c     .MB.I...........
    da64:	00fe1deb 001cb129 00a73ee8 008235f5     ....)....>...5..
    da74:	002ebb44 0084e99c 007026b4 005f7e41     D........&p.A~_.
    da84:	003991d6 00398353 0039f49c 00845f8b     ..9.S.9...9.._..
    da94:	00bdf928 003b1ff8 0097ffde 0005980f     (.....;.........
    daa4:	00ef2f11 008b5a0a 006d1f6d 00367ecf     ./...Z..m.m..~6.
    dab4:	0027cb09 00b74f46 003f669e 005fea2d     ..'.FO...f?.-._.
    dac4:	007527ba 00c7ebe5 00f17b3d 000739f7     .'u.....={...9..
    dad4:	008a5292 00ea6bfb 005fb11f 008d5d08     .R...k...._..]..
    dae4:	00560330 0046fc7b 006babf0 00cfbc20     0.V.{.F...k. ...
    daf4:	009af436 001da9e3 0091615e 00e61b08     6.......^a......
    db04:	00659985 005f14a0 0068408d 00ffd880     ..e..._..@h.....
    db14:	004d7327 00310606 001556ca 0073a8c9     'sM...1..V....s.
    db24:	0060e27b 00c08c6b                       {.`.k...

0000db2c <init_jk>:
    db2c:	00000002 00000003 00000004 00000006     ................

0000db3c <PIo2>:
    db3c:	3ff921fb 40000000 3e74442d 00000000     .!.?...@-Dt>....
    db4c:	3cf84698 80000000 3b78cc51 60000000     .F.<....Q.x;...`
    db5c:	39f01b83 80000000 387a2520 40000000     ...9.... %z8...@
    db6c:	36e38222 80000000 3569f31d 00000000     "..6......i5....

0000db7c <atanhi>:
    db7c:	3fddac67 0561bb4f 3fe921fb 54442d18     g..?O.a..!.?.-DT
    db8c:	3fef730b d281f69b 3ff921fb 54442d18     .s.?.....!.?.-DT

0000db9c <atanlo>:
    db9c:	3c7a2b7f 222f65e2 3c81a626 33145c07     .+z<.e/"&..<.\.3
    dbac:	3c700788 7af0cbbd 3c91a626 33145c07     ..p<...z&..<.\.3

0000dbbc <__fdlib_version>:
    dbbc:	00000001                                ....

0000dbc0 <_global_impure_ptr>:
    dbc0:	40000564 00000043                       d..@C...
