   1              		.file	"irq.c"
   9              	.Ltext0:
  10              		.align	2
  12              	DefaultVICHandler:
  13              	.LFB2:
  14              	.LM1:
  15              		@ Function supports interworking.
  16              		@ args = 0, pretend = 0, frame = 0
  17              		@ frame_needed = 1, uses_anonymous_args = 0
  18 0000 0DC0A0E1 		mov	ip, sp
  19              	.LCFI0:
  20 0004 00D82DE9 		stmfd	sp!, {fp, ip, lr, pc}
  21              	.LCFI1:
  22 0008 04B04CE2 		sub	fp, ip, #4
  23              	.LCFI2:
  24              	.LM2:
  25 000c 0030A0E3 		mov	r3, #0
  26 0010 FD3E43E2 		sub	r3, r3, #4048
  27 0014 0020A0E3 		mov	r2, #0
  28 0018 002083E5 		str	r2, [r3, #0]
  29              	.LM3:
  30 001c 0CD04BE2 		sub	sp, fp, #12
  31 0020 00689DE8 		ldmfd	sp, {fp, sp, lr}
  32 0024 1EFF2FE1 		bx	lr
  33              	.LFE2:
  35              		.align	2
  36              		.global	init_VIC
  38              	init_VIC:
  39              	.LFB3:
  40              	.LM4:
  41              		@ Function supports interworking.
  42              		@ args = 0, pretend = 0, frame = 12
  43              		@ frame_needed = 1, uses_anonymous_args = 0
  44 0028 0DC0A0E1 		mov	ip, sp
  45              	.LCFI3:
  46 002c 00D82DE9 		stmfd	sp!, {fp, ip, lr, pc}
  47              	.LCFI4:
  48 0030 04B04CE2 		sub	fp, ip, #4
  49              	.LCFI5:
  50 0034 0CD04DE2 		sub	sp, sp, #12
  51              	.LCFI6:
  52              	.LM5:
  53 0038 0030A0E3 		mov	r3, #0
  54 003c 18300BE5 		str	r3, [fp, #-24]
  55              	.LM6:
  56 0040 FE3EE0E3 		mvn	r3, #4064
  57 0044 0B3043E2 		sub	r3, r3, #11
  58 0048 0020E0E3 		mvn	r2, #0
  59 004c 002083E5 		str	r2, [r3, #0]
  60              	.LM7:
  61 0050 0030A0E3 		mov	r3, #0
  62 0054 FD3E43E2 		sub	r3, r3, #4048
  63 0058 0020A0E3 		mov	r2, #0
  64 005c 002083E5 		str	r2, [r3, #0]
  65              	.LM8:
  66 0060 FF3EE0E3 		mvn	r3, #4080
  67 0064 033043E2 		sub	r3, r3, #3
  68 0068 0020A0E3 		mov	r2, #0
  69 006c 002083E5 		str	r2, [r3, #0]
  70              	.LM9:
  71 0070 0030A0E3 		mov	r3, #0
  72 0074 18300BE5 		str	r3, [fp, #-24]
  73 0078 100000EA 		b	.L4
  74              	.L5:
  75              	.LM10:
  76 007c 18301BE5 		ldr	r3, [fp, #-24]
  77 0080 0331A0E1 		mov	r3, r3, asl #2
  78 0084 0F3C43E2 		sub	r3, r3, #3840
  79 0088 14300BE5 		str	r3, [fp, #-20]
  80              	.LM11:
  81 008c 18301BE5 		ldr	r3, [fp, #-24]
  82 0090 0331A0E1 		mov	r3, r3, asl #2
  83 0094 0E3C43E2 		sub	r3, r3, #3584
  84 0098 10300BE5 		str	r3, [fp, #-16]
  85              	.LM12:
  86 009c 14201BE5 		ldr	r2, [fp, #-20]
  87 00a0 0030A0E3 		mov	r3, #0
  88 00a4 003082E5 		str	r3, [r2, #0]
  89              	.LM13:
  90 00a8 10201BE5 		ldr	r2, [fp, #-16]
  91 00ac 0030A0E3 		mov	r3, #0
  92 00b0 003082E5 		str	r3, [r2, #0]
  93              	.LM14:
  94 00b4 18301BE5 		ldr	r3, [fp, #-24]
  95 00b8 013083E2 		add	r3, r3, #1
  96 00bc 18300BE5 		str	r3, [fp, #-24]
  97              	.L4:
  98 00c0 18301BE5 		ldr	r3, [fp, #-24]
  99 00c4 0F0053E3 		cmp	r3, #15
 100 00c8 EBFFFF9A 		bls	.L5
 101              	.LM15:
 102 00cc 3F3DE0E3 		mvn	r3, #4032
 103 00d0 0B3043E2 		sub	r3, r3, #11
 104 00d4 0C209FE5 		ldr	r2, .L8
 105 00d8 002083E5 		str	r2, [r3, #0]
 106              	.LM16:
 107 00dc 0CD04BE2 		sub	sp, fp, #12
 108 00e0 00689DE8 		ldmfd	sp, {fp, sp, lr}
 109 00e4 1EFF2FE1 		bx	lr
 110              	.L9:
 111              		.align	2
 112              	.L8:
 113 00e8 00000000 		.word	DefaultVICHandler
 114              	.LFE3:
 116              		.align	2
 117              		.global	install_irq
 119              	install_irq:
 120              	.LFB4:
 121              	.LM17:
 122              		@ Function supports interworking.
 123              		@ args = 0, pretend = 0, frame = 24
 124              		@ frame_needed = 1, uses_anonymous_args = 0
 125 00ec 0DC0A0E1 		mov	ip, sp
 126              	.LCFI7:
 127 00f0 00D82DE9 		stmfd	sp!, {fp, ip, lr, pc}
 128              	.LCFI8:
 129 00f4 04B04CE2 		sub	fp, ip, #4
 130              	.LCFI9:
 131 00f8 18D04DE2 		sub	sp, sp, #24
 132              	.LCFI10:
 133 00fc 1C000BE5 		str	r0, [fp, #-28]
 134 0100 20100BE5 		str	r1, [fp, #-32]
 135              	.LM18:
 136 0104 FE2EE0E3 		mvn	r2, #4064
 137 0108 0B2042E2 		sub	r2, r2, #11
 138 010c 1C101BE5 		ldr	r1, [fp, #-28]
 139 0110 0130A0E3 		mov	r3, #1
 140 0114 1331A0E1 		mov	r3, r3, asl r1
 141 0118 003082E5 		str	r3, [r2, #0]
 142              	.LM19:
 143 011c 0030A0E3 		mov	r3, #0
 144 0120 18300BE5 		str	r3, [fp, #-24]
 145 0124 170000EA 		b	.L11
 146              	.L12:
 147              	.LM20:
 148 0128 18301BE5 		ldr	r3, [fp, #-24]
 149 012c 0331A0E1 		mov	r3, r3, asl #2
 150 0130 0F3C43E2 		sub	r3, r3, #3840
 151 0134 14300BE5 		str	r3, [fp, #-20]
 152              	.LM21:
 153 0138 18301BE5 		ldr	r3, [fp, #-24]
 154 013c 0331A0E1 		mov	r3, r3, asl #2
 155 0140 0E3C43E2 		sub	r3, r3, #3584
 156 0144 10300BE5 		str	r3, [fp, #-16]
 157              	.LM22:
 158 0148 14301BE5 		ldr	r3, [fp, #-20]
 159 014c 003093E5 		ldr	r3, [r3, #0]
 160 0150 000053E3 		cmp	r3, #0
 161 0154 0800001A 		bne	.L13
 162              	.LM23:
 163 0158 20301BE5 		ldr	r3, [fp, #-32]
 164 015c 0320A0E1 		mov	r2, r3
 165 0160 14301BE5 		ldr	r3, [fp, #-20]
 166 0164 002083E5 		str	r2, [r3, #0]
 167              	.LM24:
 168 0168 1C301BE5 		ldr	r3, [fp, #-28]
 169 016c 202083E3 		orr	r2, r3, #32
 170 0170 10301BE5 		ldr	r3, [fp, #-16]
 171 0174 002083E5 		str	r2, [r3, #0]
 172              	.LM25:
 173 0178 050000EA 		b	.L15
 174              	.L13:
 175              	.LM26:
 176 017c 18301BE5 		ldr	r3, [fp, #-24]
 177 0180 013083E2 		add	r3, r3, #1
 178 0184 18300BE5 		str	r3, [fp, #-24]
 179              	.L11:
 180 0188 18301BE5 		ldr	r3, [fp, #-24]
 181 018c 0F0053E3 		cmp	r3, #15
 182 0190 E4FFFF9A 		bls	.L12
 183              	.L15:
 184              	.LM27:
 185 0194 18301BE5 		ldr	r3, [fp, #-24]
 186 0198 100053E3 		cmp	r3, #16
 187 019c 0200001A 		bne	.L16
 188              	.LM28:
 189 01a0 0030A0E3 		mov	r3, #0
 190 01a4 24300BE5 		str	r3, [fp, #-36]
 191 01a8 070000EA 		b	.L18
 192              	.L16:
 193              	.LM29:
 194 01ac 0020A0E3 		mov	r2, #0
 195 01b0 FF2E42E2 		sub	r2, r2, #4080
 196 01b4 1C101BE5 		ldr	r1, [fp, #-28]
 197 01b8 0130A0E3 		mov	r3, #1
 198 01bc 1331A0E1 		mov	r3, r3, asl r1
 199 01c0 003082E5 		str	r3, [r2, #0]
 200              	.LM30:
 201 01c4 0130A0E3 		mov	r3, #1
 202 01c8 24300BE5 		str	r3, [fp, #-36]
 203              	.L18:
 204 01cc 24301BE5 		ldr	r3, [fp, #-36]
 205              	.LM31:
 206 01d0 0300A0E1 		mov	r0, r3
 207 01d4 0CD04BE2 		sub	sp, fp, #12
 208 01d8 00689DE8 		ldmfd	sp, {fp, sp, lr}
 209 01dc 1EFF2FE1 		bx	lr
 210              	.LFE4:
 212              		.align	2
 213              		.global	uninstall_irq
 215              	uninstall_irq:
 216              	.LFB5:
 217              	.LM32:
 218              		@ Function supports interworking.
 219              		@ args = 0, pretend = 0, frame = 20
 220              		@ frame_needed = 1, uses_anonymous_args = 0
 221 01e0 0DC0A0E1 		mov	ip, sp
 222              	.LCFI11:
 223 01e4 00D82DE9 		stmfd	sp!, {fp, ip, lr, pc}
 224              	.LCFI12:
 225 01e8 04B04CE2 		sub	fp, ip, #4
 226              	.LCFI13:
 227 01ec 14D04DE2 		sub	sp, sp, #20
 228              	.LCFI14:
 229 01f0 1C000BE5 		str	r0, [fp, #-28]
 230              	.LM33:
 231 01f4 FE2EE0E3 		mvn	r2, #4064
 232 01f8 0B2042E2 		sub	r2, r2, #11
 233 01fc 1C101BE5 		ldr	r1, [fp, #-28]
 234 0200 0130A0E3 		mov	r3, #1
 235 0204 1331A0E1 		mov	r3, r3, asl r1
 236 0208 003082E5 		str	r3, [r2, #0]
 237              	.LM34:
 238 020c 0030A0E3 		mov	r3, #0
 239 0210 18300BE5 		str	r3, [fp, #-24]
 240 0214 190000EA 		b	.L21
 241              	.L22:
 242              	.LM35:
 243 0218 18301BE5 		ldr	r3, [fp, #-24]
 244 021c 0331A0E1 		mov	r3, r3, asl #2
 245 0220 0F3C43E2 		sub	r3, r3, #3840
 246 0224 14300BE5 		str	r3, [fp, #-20]
 247              	.LM36:
 248 0228 18301BE5 		ldr	r3, [fp, #-24]
 249 022c 0331A0E1 		mov	r3, r3, asl #2
 250 0230 0E3C43E2 		sub	r3, r3, #3584
 251 0234 10300BE5 		str	r3, [fp, #-16]
 252              	.LM37:
 253 0238 10301BE5 		ldr	r3, [fp, #-16]
 254 023c 003093E5 		ldr	r3, [r3, #0]
 255 0240 2020C3E3 		bic	r2, r3, #32
 256 0244 1C301BE5 		ldr	r3, [fp, #-28]
 257 0248 030052E1 		cmp	r2, r3
 258 024c 0800001A 		bne	.L23
 259              	.LM38:
 260 0250 14201BE5 		ldr	r2, [fp, #-20]
 261 0254 0030A0E3 		mov	r3, #0
 262 0258 003082E5 		str	r3, [r2, #0]
 263              	.LM39:
 264 025c 10301BE5 		ldr	r3, [fp, #-16]
 265 0260 003093E5 		ldr	r3, [r3, #0]
 266 0264 2020C3E3 		bic	r2, r3, #32
 267 0268 10301BE5 		ldr	r3, [fp, #-16]
 268 026c 002083E5 		str	r2, [r3, #0]
 269              	.LM40:
 270 0270 050000EA 		b	.L25
 271              	.L23:
 272              	.LM41:
 273 0274 18301BE5 		ldr	r3, [fp, #-24]
 274 0278 013083E2 		add	r3, r3, #1
 275 027c 18300BE5 		str	r3, [fp, #-24]
 276              	.L21:
 277 0280 18301BE5 		ldr	r3, [fp, #-24]
 278 0284 0F0053E3 		cmp	r3, #15
 279 0288 E2FFFF9A 		bls	.L22
 280              	.L25:
 281              	.LM42:
 282 028c 18301BE5 		ldr	r3, [fp, #-24]
 283 0290 100053E3 		cmp	r3, #16
 284 0294 0200001A 		bne	.L26
 285              	.LM43:
 286 0298 0030A0E3 		mov	r3, #0
 287 029c 20300BE5 		str	r3, [fp, #-32]
 288 02a0 070000EA 		b	.L28
 289              	.L26:
 290              	.LM44:
 291 02a4 0020A0E3 		mov	r2, #0
 292 02a8 FF2E42E2 		sub	r2, r2, #4080
 293 02ac 1C101BE5 		ldr	r1, [fp, #-28]
 294 02b0 0130A0E3 		mov	r3, #1
 295 02b4 1331A0E1 		mov	r3, r3, asl r1
 296 02b8 003082E5 		str	r3, [r2, #0]
 297              	.LM45:
 298 02bc 0130A0E3 		mov	r3, #1
 299 02c0 20300BE5 		str	r3, [fp, #-32]
 300              	.L28:
 301 02c4 20301BE5 		ldr	r3, [fp, #-32]
 302              	.LM46:
 303 02c8 0300A0E1 		mov	r0, r3
 304 02cc 0CD04BE2 		sub	sp, fp, #12
 305 02d0 00689DE8 		ldmfd	sp, {fp, sp, lr}
 306 02d4 1EFF2FE1 		bx	lr
 307              	.LFE5:
 425              	.Letext0: